 breathless

 Timestamp is 5adcb73a (Sun Apr 22 11:24:26 2018)

 Preferred load address is 10000000

 Start         Length     Name                   Class
 0001:00000000 00013720H .text$di                CODE
 0001:00013720 000ba800H .text$mn                CODE
 0001:000cdf20 00002440H .text$x                 CODE
 0001:000d0360 00000311H .text$yd                CODE
 0002:00000000 000001e0H .idata$5                DATA
 0002:000001e0 00000004H .00cfg                  DATA
 0002:000001e4 00000004H .CRT$XCA                DATA
 0002:000001e8 0000000cH .CRT$XCC                DATA
 0002:000001f4 00000008H .CRT$XCL                DATA
 0002:000001fc 000002a8H .CRT$XCU                DATA
 0002:000004a4 00000004H .CRT$XCZ                DATA
 0002:000004a8 00000004H .CRT$XIA                DATA
 0002:000004ac 00000018H .CRT$XIC                DATA
 0002:000004c4 00000004H .CRT$XIZ                DATA
 0002:000004c8 00000004H .CRT$XLA                DATA
 0002:000004cc 00000004H .CRT$XLZ                DATA
 0002:000004d0 00000004H .CRT$XPA                DATA
 0002:000004d4 00000008H .CRT$XPX                DATA
 0002:000004dc 00000004H .CRT$XPXA               DATA
 0002:000004e0 00000004H .CRT$XPZ                DATA
 0002:000004e4 00000004H .CRT$XTA                DATA
 0002:000004e8 00000008H .CRT$XTZ                DATA
 0002:000004ec 00000000H .gfids$y                DATA
 0002:000004f0 0003c850H .rdata                  DATA
 0002:0003cd40 00000018H .rdata$T                DATA
 0002:0003cd58 00000dc8H .rdata$r                DATA
 0002:0003db20 000002c0H .rdata$sxdata           DATA
 0002:0003dde0 000003c4H .rdata$zzzdbg           DATA
 0002:0003e1a4 00000004H .rtc$IAA                DATA
 0002:0003e1a8 00000004H .rtc$IZZ                DATA
 0002:0003e1ac 00000004H .rtc$TAA                DATA
 0002:0003e1b0 00000004H .rtc$TZZ                DATA
 0002:0003e1b4 00000004H .tls                    DATA
 0002:0003e1b8 00000004H .tls$                   DATA
 0002:0003e1bc 00000004H .tls$ZZZ                DATA
 0002:0003e1c0 00003d8cH .xdata$x                DATA
 0002:00041f4c 00000000H .edata                  DATA
 0002:00041f4c 00000064H .idata$2                DATA
 0002:00041fb0 00000014H .idata$3                DATA
 0002:00041fc4 000001e0H .idata$4                DATA
 0002:000421a4 00000890H .idata$6                DATA
 0003:00000000 0008db50H .data                   DATA
 0003:0008db50 000006a0H .data$r                 DATA
 0003:0008e1f0 0043d97cH .bss                    DATA
 0004:00000000 00000060H .rsrc$01                DATA
 0004:00000060 00000180H .rsrc$02                DATA

  Address         Publics by Value              Rva+Base       Lib:Object

 0000:00000000       ___guard_longjmp_count     00000000     <absolute>
 0000:00000000       ___guard_iat_table         00000000     <absolute>
 0000:00000000       ___guard_iat_count         00000000     <absolute>
 0000:00000000       ___hybrid_auxiliary_iat    00000000     <absolute>
 0000:00000000       ___hybrid_code_map         00000000     <absolute>
 0000:00000000       ___enclave_config          00000000     <absolute>
 0000:00000000       ___guard_fids_table        00000000     <absolute>
 0000:00000000       ___guard_longjmp_table     00000000     <absolute>
 0000:00000000       ___hybrid_code_map_count   00000000     <absolute>
 0000:00000000       ___guard_fids_count        00000000     <absolute>
 0000:00000000       ___dynamic_value_reloc_table 00000000     <absolute>
 0000:00000000       __except_list              00000000     <absolute>
 0000:0000002c       __tls_array                0000002c     <absolute>
 0000:000000b0       ___safe_se_handler_count   000000b0     <absolute>
 0000:00000100       ___guard_flags             00000100     <absolute>
 0000:00000000       ___ImageBase               10000000     <linker-defined>
 0001:00013720       ?MyColorPicker3@ImGui@@YA_NPBDQAMH@Z 10014720 f   imguicolorpicker.obj
 0001:000137f0       ?MyColorPicker4@ImGui@@YA_NPBDQAMH@Z 100147f0 f   imguicolorpicker.obj
 0001:00014500       ?MyColorEdit3@ImGui@@YA_NPBDQAMH@Z 10015500 f   imguicolorpicker.obj
 0001:000145d0       ?MyColorEdit4@ImGui@@YA_NPBDQAMH@Z 100155d0 f   imguicolorpicker.obj
 0001:00015330       ??0Vector2D@@QAE@MM@Z      10016330 f i recvproxy.obj
 0001:00015330       ??0ImVec2@@QAE@MM@Z        10016330 f i imguicolorpicker.obj
 0001:00015360       ??0ImVec4@@QAE@MMMM@Z      10016360 f i imguicolorpicker.obj
 0001:000153b0       ??_H@YGXPAXIIP6EPAX0@Z@Z   100163b0 f i imguicolorpicker.obj
 0001:000153e0       ?GetBL@ImRect@@QBE?AUImVec2@@XZ 100163e0 f i imguicolorpicker.obj
 0001:00015420       ?GetCurrentWindow@ImGui@@YAPAUImGuiWindow@@XZ 10016420 f i imguicolorpicker.obj
 0001:00015450       ___local_stdio_scanf_options 10016450 f i imguicolorpicker.obj
 0001:00015460       __vsscanf_s_l              10016460 f i imguicolorpicker.obj
 0001:00015490       _sscanf_s                  10016490 f i imguicolorpicker.obj
 0001:000154d0       _vsscanf_s                 100164d0 f i imguicolorpicker.obj
 0001:000154f0       ?Parse@Node@valve_parser@@UAE_NXZ 100164f0 f   Parser.obj
 0001:00015690       ??0Object@valve_parser@@QAE@PAVDocument@1@@Z 10016690 f   Parser.obj
 0001:000156c0       ?ToObject@Object@valve_parser@@UAEPAV12@XZ 100166c0 f   Parser.obj
 0001:000156d0       ?Parse@Object@valve_parser@@UAE_NXZ 100166d0 f   Parser.obj
 0001:00015890       ?GetKeyByName@Object@valve_parser@@QAE?AV?$shared_ptr@VNode@valve_parser@@@std@@PAD@Z 10016890 f   Parser.obj
 0001:00015970       ??$?0$$V@?$_Compressed_pair@V?$allocator@D@std@@V?$_String_val@U?$_Simple_types@D@std@@@2@$00@std@@QAE@U_Zero_then_variadic_args_t@1@@Z 10016970 f i Parser.obj
 0001:00015990       ??$?0ABV?$allocator@D@std@@$$V@?$_Compressed_pair@V?$allocator@D@std@@V?$_String_val@U?$_Simple_types@D@std@@@2@$00@std@@QAE@U_One_then_variadic_args_t@1@ABV?$allocator@D@1@@Z 10016990 f i Parser.obj
 0001:00015990       ??$?0V?$allocator@D@std@@$$V@?$_Compressed_pair@V?$allocator@D@std@@V?$_String_val@U?$_Simple_types@D@std@@@2@$00@std@@QAE@U_One_then_variadic_args_t@1@$$QAV?$allocator@D@1@@Z 10016990 f i Configuration.obj
 0001:000159c0       ??$?0PAVDocument@valve_parser@@@?$_Ref_count_obj@VKeyValue@valve_parser@@@std@@QAE@$$QAPAVDocument@valve_parser@@@Z 100169c0 f i Parser.obj
 0001:00015a50       ??$?0PAVDocument@valve_parser@@@?$_Ref_count_obj@VObject@valve_parser@@@std@@QAE@$$QAPAVDocument@valve_parser@@@Z 10016a50 f i Parser.obj
 0001:00015ae0       ??$?0V?$_Vector_iterator@V?$_Vector_val@U?$_Simple_types@_S@std@@@std@@@std@@X@?$basic_string@DU?$char_traits@D@std@@V?$allocator@D@2@@std@@QAE@V?$_Vector_iterator@V?$_Vector_val@U?$_Simple_types@_S@std@@@std@@@1@0ABV?$allocator@D@1@@Z 10016ae0 f i Parser.obj
 0001:00015b60       ??$?0VObject@valve_parser@@X@?$shared_ptr@VNode@valve_parser@@@std@@QAE@ABV?$shared_ptr@VObject@valve_parser@@@1@@Z 10016b60 f i Parser.obj
 0001:00015b60       ??0?$shared_ptr@VNode@valve_parser@@@std@@QAE@ABV01@@Z 10016b60 f i Parser.obj
 0001:00015b60       ??$?0VKeyValue@valve_parser@@X@?$shared_ptr@VNode@valve_parser@@@std@@QAE@ABV?$shared_ptr@VKeyValue@valve_parser@@@1@@Z 10016b60 f i Parser.obj
 0001:00015bb0       ??$?4VKeyValue@valve_parser@@@?$shared_ptr@VNode@valve_parser@@@std@@QAEAAV01@ABV?$shared_ptr@VKeyValue@valve_parser@@@1@@Z 10016bb0 f i Parser.obj
 0001:00015bb0       ??$?4VObject@valve_parser@@@?$shared_ptr@VNode@valve_parser@@@std@@QAEAAV01@ABV?$shared_ptr@VObject@valve_parser@@@1@@Z 10016bb0 f i Parser.obj
 0001:00015bf0       ??$?8DU?$char_traits@D@std@@V?$allocator@D@1@@std@@YA_NABV?$basic_string@DU?$char_traits@D@std@@V?$allocator@D@2@@0@0@Z 10016bf0 f i Parser.obj
 0001:00015c10       ??$_Construct@PA_S@?$basic_string@DU?$char_traits@D@std@@V?$allocator@D@2@@std@@QAEXPA_SQA_SUinput_iterator_tag@1@@Z 10016c10 f i Parser.obj
 0001:00015ca0       ??$_Construct@PA_S@?$basic_string@DU?$char_traits@D@std@@V?$allocator@D@2@@std@@QAEXQA_S0Uforward_iterator_tag@1@@Z 10016ca0 f i Parser.obj
 0001:00015cf0       ??$_Copy_memmove@PAPAURecvTable@@PAPAU1@@std@@YAPAPAURecvTable@@PAPAU1@00@Z 10016cf0 f i NetVarManager.obj
 0001:00015cf0       ??$_Copy_memmove@PAPAV?$shared_ptr@VNode@valve_parser@@@std@@PAPAV12@@std@@YAPAPAV?$shared_ptr@VNode@valve_parser@@@0@PAPAV10@00@Z 10016cf0 f i Hooks.obj
 0001:00015cf0       ??$_Copy_memmove@PA_SPA_S@std@@YAPA_SPA_S00@Z 10016cf0 f i Parser.obj
 0001:00015cf0       ??$_Copy_memmove@PAPAV?$ConfigValue@H@@PAPAV1@@std@@YAPAPAV?$ConfigValue@H@@PAPAV1@00@Z 10016cf0 f i Configuration.obj
 0001:00015cf0       ??$_Copy_memmove@PBHPAH@std@@YAPAHPBH0PAH@Z 10016cf0 f i LegitBot.obj
 0001:00015cf0       ??$_Copy_memmove@PAPAV?$ConfigValue@_N@@PAPAV1@@std@@YAPAPAV?$ConfigValue@_N@@PAPAV1@00@Z 10016cf0 f i Configuration.obj
 0001:00015cf0       ??$_Copy_memmove@PAPAV?$ConfigValue@M@@PAPAV1@@std@@YAPAPAV?$ConfigValue@M@@PAPAV1@00@Z 10016cf0 f i Configuration.obj
 0001:00015cf0       ??$_Copy_memmove@PAHPAH@std@@YAPAHPAH00@Z 10016cf0 f i RageBot.obj
 0001:00015d30       ??$_Destroy_range1@V?$allocator@V?$shared_ptr@VNode@valve_parser@@@std@@@std@@@std@@YAXPAV?$shared_ptr@VNode@valve_parser@@@0@0AAV?$allocator@V?$shared_ptr@VNode@valve_parser@@@std@@@0@U?$integral_constant@_N$0A@@0@@Z 10016d30 f i Parser.obj
 0001:00015d70       ??$_Destroy_range@V?$allocator@V?$shared_ptr@VNode@valve_parser@@@std@@@std@@@std@@YAXPAV?$shared_ptr@VNode@valve_parser@@@0@0AAV?$allocator@V?$shared_ptr@VNode@valve_parser@@@std@@@0@@Z 10016d70 f i Parser.obj
 0001:00015da0       ??$_Distance1@PA_S@std@@YAHPA_S0Urandom_access_iterator_tag@0@@Z 10016da0 f i Parser.obj
 0001:00015db0       ??$_Emplace_back_with_unused_capacity@ABV?$shared_ptr@VNode@valve_parser@@@std@@@?$vector@V?$shared_ptr@VNode@valve_parser@@@std@@V?$allocator@V?$shared_ptr@VNode@valve_parser@@@std@@@2@@std@@AAEXABV?$shared_ptr@VNode@valve_parser@@@1@@Z 10016db0 f i Parser.obj
 0001:00015e30       ??$_Emplace_back_with_unused_capacity@AB_S@?$vector@_SV?$allocator@_S@std@@@std@@AAEXAB_S@Z 10016e30 f i Parser.obj
 0001:00015eb0       ??$_Max_value@I@std@@YAABIABI0@Z 10016eb0 f i Parser.obj
 0001:00015ee0       ??$_Min_value@I@std@@YAABIABI0@Z 10016ee0 f i Parser.obj
 0001:00015f10       ??$_Ptr_copy_cat@$$CBV?$basic_string@DU?$char_traits@D@std@@V?$allocator@D@2@@std@@V12@@std@@YA?AU_General_ptr_iterator_tag@0@ABQBV?$basic_string@DU?$char_traits@D@std@@V?$allocator@D@2@@0@ABQAV20@@Z 10016f10 f i Hooks.obj
 0001:00015f10       ??$_Ptr_move_cat@VVector@@V1@@std@@YA?AU_General_ptr_iterator_tag@0@ABQAVVector@@0@Z 10016f10 f i GrenadePrediction.obj
 0001:00015f10       ??$_Fill_memset_is_safe@PAV?$_List_unchecked_iterator@V?$_List_val@U?$_List_simple_types@U?$pair@$$CBV?$basic_string@DU?$char_traits@D@std@@V?$allocator@D@2@@std@@V?$set@V?$basic_string@DU?$char_traits@D@std@@V?$allocator@D@2@@std@@U?$less@V?$basic_string@DU?$char_traits@D@std@@V?$allocator@D@2@@std@@@2@V?$allocator@V?$basic_string@DU?$char_traits@D@std@@V?$allocator@D@2@@std@@@2@@2@@std@@@std@@@std@@@std@@V12@@std@@YA?AU?$integral_constant@_N$0A@@0@ABQAV?$_List_unchecked_iterator@V?$_List_val@U?$_List_simple_types@U?$pair@$$CBV?$basic_string@DU?$char_traits@D@std@@V?$allocator@D@2@@std@@V?$set@V?$basic_string@DU?$char_traits@D@std@@V?$allocator@D@2@@std@@U?$less@V?$basic_string@DU?$char_traits@D@std@@V?$allocator@D@2@@std@@@2@V?$allocator@V?$basic_string@DU?$char_traits@D@std@@V?$allocator@D@2@@std@@@2@@2@@std@@@std@@@std@@@0@ABV20@@Z 10016f10 f i Configuration.obj
 0001:00015f10       ??$_Is_checked@V?$_String_iterator@V?$_String_val@U?$_Simple_types@D@std@@@std@@@std@@@std@@YA?AU?$integral_constant@_N$00@0@V?$_String_iterator@V?$_String_val@U?$_Simple_types@D@std@@@std@@@0@@Z 10016f10 f i Hooks.obj
 0001:00015f10       ??$_Fill_memset_is_safe@PAV?$_List_unchecked_iterator@V?$_List_val@U?$_List_simple_types@U?$pair@QADPAD@std@@@std@@@std@@@std@@V12@@std@@YA?AU?$integral_constant@_N$0A@@0@ABQAV?$_List_unchecked_iterator@V?$_List_val@U?$_List_simple_types@U?$pair@QADPAD@std@@@std@@@std@@@0@ABV20@@Z 10016f10 f i Hooks.obj
 0001:00015f10       ??$_Idl_distance@V?$_String_iterator@V?$_String_val@U?$_Simple_types@D@std@@@std@@@std@@PAD@std@@YA?AU_Distance_unknown@0@ABQAD0@Z 10016f10 f i Hooks.obj
 0001:00015f10       ??$_Ptr_move_cat@V?$shared_ptr@VNode@valve_parser@@@std@@V12@@std@@YA?AU_General_ptr_iterator_tag@0@ABQAV?$shared_ptr@VNode@valve_parser@@@0@0@Z 10016f10 f i Parser.obj
 0001:00015f10       ??$_Fill_memset_is_safe@PAV?$_List_unchecked_iterator@V?$_List_val@U?$_List_simple_types@U?$pair@$$CBV?$basic_string@DU?$char_traits@D@std@@V?$allocator@D@2@@std@@V12@@std@@@std@@@std@@@std@@V12@@std@@YA?AU?$integral_constant@_N$0A@@0@ABQAV?$_List_unchecked_iterator@V?$_List_val@U?$_List_simple_types@U?$pair@$$CBV?$basic_string@DU?$char_traits@D@std@@V?$allocator@D@2@@std@@V12@@std@@@std@@@std@@@0@ABV20@@Z 10016f10 f i Configuration.obj
 0001:00015f10       ??$_Fill_memset_is_safe@PAV?$_List_unchecked_iterator@V?$_List_val@U?$_List_simple_types@U?$pair@$$CBV?$basic_string@DU?$char_traits@D@std@@V?$allocator@D@2@@std@@UskinInfo@@@std@@@std@@@std@@@std@@V12@@std@@YA?AU?$integral_constant@_N$0A@@0@ABQAV?$_List_unchecked_iterator@V?$_List_val@U?$_List_simple_types@U?$pair@$$CBV?$basic_string@DU?$char_traits@D@std@@V?$allocator@D@2@@std@@UskinInfo@@@std@@@std@@@std@@@0@ABV20@@Z 10016f10 f i Configuration.obj
 0001:00016250       ??$_Reset@VObject@valve_parser@@@?$_Ptr_base@VNode@valve_parser@@@std@@QAEXABV?$_Ptr_base@VObject@valve_parser@@@1@@Z 10017250 f i Parser.obj
 0001:00016250       ??$_Reset@VNode@valve_parser@@@?$_Ptr_base@VNode@valve_parser@@@std@@QAEXABV01@@Z 10017250 f i Parser.obj
 0001:00016250       ??$_Reset@VKeyValue@valve_parser@@@?$_Ptr_base@VNode@valve_parser@@@std@@QAEXABV?$_Ptr_base@VKeyValue@valve_parser@@@1@@Z 10017250 f i Parser.obj
 0001:00016280       ??$_Resetp0@VObject@valve_parser@@@?$shared_ptr@VObject@valve_parser@@@std@@QAEXPAVObject@valve_parser@@PAV_Ref_count_base@1@@Z 10017280 f i Parser.obj
 0001:00016280       ??$_Resetp0@VKeyValue@valve_parser@@@?$shared_ptr@VKeyValue@valve_parser@@@std@@QAEXPAVKeyValue@valve_parser@@PAV_Ref_count_base@1@@Z 10017280 f i Parser.obj
 0001:00016280       ??$_Resetp0@VNode@valve_parser@@@?$shared_ptr@VNode@valve_parser@@@std@@QAEXPAVNode@valve_parser@@PAV_Ref_count_base@1@@Z 10017280 f i Hooks.obj
 0001:000162b0       ??$_Traits_equal@U?$char_traits@D@std@@@std@@YA_NQBDI0I@Z 100172b0 f i Parser.obj
 0001:000162f0       ??$_Unchecked@V?$_Vector_val@U?$_Simple_types@_S@std@@@std@@@std@@YAPA_SABV?$_Vector_iterator@V?$_Vector_val@U?$_Simple_types@_S@std@@@std@@@0@@Z 100172f0 f i Parser.obj
 0001:00016300       ??$_Uninitialized_move@PAV?$shared_ptr@VNode@valve_parser@@@std@@PAV12@V?$allocator@V?$shared_ptr@VNode@valve_parser@@@std@@@2@@std@@YAPAV?$shared_ptr@VNode@valve_parser@@@0@PAV10@00AAV?$allocator@V?$shared_ptr@VNode@valve_parser@@@std@@@0@@Z 10017300 f i Parser.obj
 0001:00016390       ??$_Uninitialized_move_al_unchecked@PAV?$shared_ptr@VNode@valve_parser@@@std@@PAV12@V?$allocator@V?$shared_ptr@VNode@valve_parser@@@std@@@2@@std@@YAPAV?$shared_ptr@VNode@valve_parser@@@0@PAV10@00AAV?$allocator@V?$shared_ptr@VNode@valve_parser@@@std@@@0@U_General_ptr_iterator_tag@0@U_Unused_parameter@0@@Z 10017390 f i Parser.obj
 0001:00016460       ??$_Uninitialized_copy_al_unchecked@$$CBHHV?$allocator@H@std@@@std@@YAPAHPBH0PAHAAV?$allocator@H@0@U_Really_trivial_ptr_iterator_tag@0@U?$integral_constant@_N$00@0@@Z 10017460 f i LegitBot.obj
 0001:00016460       ??$_Uninitialized_move_al_unchecked@_S_SV?$allocator@_S@std@@@std@@YAPA_SPA_S00AAV?$allocator@_S@0@U_Really_trivial_ptr_iterator_tag@0@U?$integral_constant@_N$00@0@@Z 10017460 f i Parser.obj
 0001:00016460       ??$_Uninitialized_move_al_unchecked@PAV?$ConfigValue@M@@PAV1@V?$allocator@PAV?$ConfigValue@M@@@std@@@std@@YAPAPAV?$ConfigValue@M@@PAPAV1@00AAV?$allocator@PAV?$ConfigValue@M@@@0@U_Really_trivial_ptr_iterator_tag@0@U?$integral_constant@_N$00@0@@Z 10017460 f i Configuration.obj
 0001:00016460       ??$_Uninitialized_move_al_unchecked@PAURecvTable@@PAU1@V?$allocator@PAURecvTable@@@std@@@std@@YAPAPAURecvTable@@PAPAU1@00AAV?$allocator@PAURecvTable@@@0@U_Really_trivial_ptr_iterator_tag@0@U?$integral_constant@_N$00@0@@Z 10017460 f i NetVarManager.obj
 0001:00016460       ??$_Uninitialized_copy_al_unchecked@PAV?$shared_ptr@VNode@valve_parser@@@std@@PAV12@V?$allocator@PAV?$shared_ptr@VNode@valve_parser@@@std@@@2@@std@@YAPAPAV?$shared_ptr@VNode@valve_parser@@@0@PAPAV10@00AAV?$allocator@PAV?$shared_ptr@VNode@valve_parser@@@std@@@0@U_Really_trivial_ptr_iterator_tag@0@U?$integral_constant@_N$00@0@@Z 10017460 f i Hooks.obj
 0001:00016460       ??$_Uninitialized_move_al_unchecked@HHV?$allocator@H@std@@@std@@YAPAHPAH00AAV?$allocator@H@0@U_Really_trivial_ptr_iterator_tag@0@U?$integral_constant@_N$00@0@@Z 10017460 f i RageBot.obj
 0001:00016460       ??$_Uninitialized_move_al_unchecked@PAV?$ConfigValue@_N@@PAV1@V?$allocator@PAV?$ConfigValue@_N@@@std@@@std@@YAPAPAV?$ConfigValue@_N@@PAPAV1@00AAV?$allocator@PAV?$ConfigValue@_N@@@0@U_Really_trivial_ptr_iterator_tag@0@U?$integral_constant@_N$00@0@@Z 10017460 f i Configuration.obj
 0001:00016460       ??$_Uninitialized_move_al_unchecked@PAV?$ConfigValue@H@@PAV1@V?$allocator@PAV?$ConfigValue@H@@@std@@@std@@YAPAPAV?$ConfigValue@H@@PAPAV1@00AAV?$allocator@PAV?$ConfigValue@H@@@0@U_Really_trivial_ptr_iterator_tag@0@U?$integral_constant@_N$00@0@@Z 10017460 f i Configuration.obj
 0001:00016480       ??$construct@V?$shared_ptr@VNode@valve_parser@@@std@@ABV12@@?$_Default_allocator_traits@V?$allocator@V?$shared_ptr@VNode@valve_parser@@@std@@@std@@@std@@SAXAAV?$allocator@V?$shared_ptr@VNode@valve_parser@@@std@@@1@QAV?$shared_ptr@VNode@valve_parser@@@1@ABV31@@Z 10017480 f i Parser.obj
 0001:000164b0       ??$construct@V?$shared_ptr@VNode@valve_parser@@@std@@V12@@?$_Default_allocator_traits@V?$allocator@V?$shared_ptr@VNode@valve_parser@@@std@@@std@@@std@@SAXAAV?$allocator@V?$shared_ptr@VNode@valve_parser@@@std@@@1@QAV?$shared_ptr@VNode@valve_parser@@@1@$$QAV31@@Z 100174b0 f i Parser.obj
 0001:000164e0       ??$construct@_SAB_S@?$_Default_allocator_traits@V?$allocator@_S@std@@@std@@SAXAAV?$allocator@_S@1@QA_SAB_S@Z 100174e0 f i Parser.obj
 0001:00016510       ??$destroy@V?$shared_ptr@VNode@valve_parser@@@std@@@?$_Default_allocator_traits@V?$allocator@V?$shared_ptr@VNode@valve_parser@@@std@@@std@@@std@@SAXAAV?$allocator@V?$shared_ptr@VNode@valve_parser@@@std@@@1@QAV?$shared_ptr@VNode@valve_parser@@@1@@Z 10017510 f i Parser.obj
 0001:00016520       ??$distance@PA_S@std@@YAHPA_S0@Z 10017520 f i Parser.obj
 0001:00016540       ??$emplace_back@ABV?$shared_ptr@VNode@valve_parser@@@std@@@?$vector@V?$shared_ptr@VNode@valve_parser@@@std@@V?$allocator@V?$shared_ptr@VNode@valve_parser@@@std@@@2@@std@@QAEXABV?$shared_ptr@VNode@valve_parser@@@1@@Z 10017540 f i Parser.obj
 0001:000166d0       ??$emplace_back@AB_S@?$vector@_SV?$allocator@_S@std@@@std@@QAEXAB_S@Z 100176d0 f i Parser.obj
 0001:00016860       ??$make_shared@VKeyValue@valve_parser@@PAVDocument@2@@std@@YA?AV?$shared_ptr@VKeyValue@valve_parser@@@0@$$QAPAVDocument@valve_parser@@@Z 10017860 f i Parser.obj
 0001:00016930       ??$make_shared@VObject@valve_parser@@PAVDocument@2@@std@@YA?AV?$shared_ptr@VObject@valve_parser@@@0@$$QAPAVDocument@valve_parser@@@Z 10017930 f i Parser.obj
 0001:00016a00       ??$swap@PAVNode@valve_parser@@X@std@@YAXAAPAVNode@valve_parser@@0@Z 10017a00 f i Parser.obj
 0001:00016a00       ??$swap@PAV_Ref_count_base@std@@X@std@@YAXAAPAV_Ref_count_base@0@0@Z 10017a00 f i Parser.obj
 0001:00016a40       ??0?$_Ptr_base@VObject@valve_parser@@@std@@QAE@$$QAV01@@Z 10017a40 f i Parser.obj
 0001:00016a40       ??0?$_Ptr_base@VNode@valve_parser@@@std@@QAE@$$QAV01@@Z 10017a40 f i Parser.obj
 0001:00016a40       ??0?$_Ptr_base@VKeyValue@valve_parser@@@std@@QAE@$$QAV01@@Z 10017a40 f i Parser.obj
 0001:00016a80       ??0?$_String_alloc@U?$_String_base_types@DV?$allocator@D@std@@@std@@@std@@QAE@XZ 10017a80 f i Parser.obj
 0001:00016aa0       ??0?$_String_val@U?$_Simple_types@D@std@@@std@@QAE@XZ 10017aa0 f i Parser.obj
 0001:00016ad0       ??0?$_List_unchecked_const_iterator@V?$_List_val@U?$_List_simple_types@U?$pair@$$CBV?$basic_string@DU?$char_traits@D@std@@V?$allocator@D@2@@std@@V12@@std@@@std@@@std@@U_Iterator_base0@2@@std@@QAE@PAU?$_List_node@U?$pair@$$CBV?$basic_string@DU?$char_traits@D@std@@V?$allocator@D@2@@std@@V12@@std@@PAX@1@PBV?$_List_val@U?$_List_simple_types@U?$pair@$$CBV?$basic_string@DU?$char_traits@D@std@@V?$allocator@D@2@@std@@V12@@std@@@std@@@1@@Z 10017ad0 f i Configuration.obj
 0001:00016ad0       ??0?$_Tree_unchecked_const_iterator@V?$_Tree_val@U?$_Tree_simple_types@V?$basic_string@DU?$char_traits@D@std@@V?$allocator@D@2@@std@@@std@@@std@@U_Iterator_base0@2@@std@@QAE@PAU?$_Tree_node@V?$basic_string@DU?$char_traits@D@std@@V?$allocator@D@2@@std@@PAX@1@PBV?$_Tree_val@U?$_Tree_simple_types@V?$basic_string@DU?$char_traits@D@std@@V?$allocator@D@2@@std@@@std@@@1@@Z 10017ad0 f i Configuration.obj
 0001:00016ad0       ??0?$_Vector_const_iterator@V?$_Vector_val@U?$_Simple_types@VVector@@@std@@@std@@@std@@QAE@PAVVector@@PBU_Container_base0@1@@Z 10017ad0 f i GrenadePrediction.obj
 0001:00016ad0       ??0?$_List_unchecked_const_iterator@V?$_List_val@U?$_List_simple_types@U?$pair@$$CBV?$basic_string@DU?$char_traits@D@std@@V?$allocator@D@2@@std@@UskinInfo@@@std@@@std@@@std@@U_Iterator_base0@2@@std@@QAE@PAU?$_List_node@U?$pair@$$CBV?$basic_string@DU?$char_traits@D@std@@V?$allocator@D@2@@std@@UskinInfo@@@std@@PAX@1@PBV?$_List_val@U?$_List_simple_types@U?$pair@$$CBV?$basic_string@DU?$char_traits@D@std@@V?$allocator@D@2@@std@@UskinInfo@@@std@@@std@@@1@@Z 10017ad0 f i Configuration.obj
 0001:00016ad0       ??0?$_List_unchecked_const_iterator@V?$_List_val@U?$_List_simple_types@U?$pair@$$CBV?$basic_string@DU?$char_traits@D@std@@V?$allocator@D@2@@std@@V?$set@V?$basic_string@DU?$char_traits@D@std@@V?$allocator@D@2@@std@@U?$less@V?$basic_string@DU?$char_traits@D@std@@V?$allocator@D@2@@std@@@2@V?$allocator@V?$basic_string@DU?$char_traits@D@std@@V?$allocator@D@2@@std@@@2@@2@@std@@@std@@@std@@U_Iterator_base0@2@@std@@QAE@PAU?$_List_node@U?$pair@$$CBV?$basic_string@DU?$char_traits@D@std@@V?$allocator@D@2@@std@@V?$set@V?$basic_string@DU?$char_traits@D@std@@V?$allocator@D@2@@std@@U?$less@V?$basic_string@DU?$char_traits@D@std@@V?$allocator@D@2@@std@@@2@V?$allocator@V?$basic_string@DU?$char_traits@D@std@@V?$allocator@D@2@@std@@@2@@2@@std@@PAX@1@PBV?$_List_val@U?$_List_simple_types@U?$pair@$$CBV?$basic_string@DU?$char_traits@D@std@@V?$allocator@D@2@@std@@V?$set@V?$basic_string@DU?$char_traits@D@std@@V?$allocator@D@2@@std@@U?$less@V?$basic_string@DU?$char_traits@D@std@@V?$allocator@D@2@@std@@@2@V?$allocator@V?$basic_string@DU?$char_traits@D@std@@V?$allocator@D@2@@std@@@2@@2@@std@@@std@@@1@@Z 10017ad0 f i Configuration.obj
 0001:00016ad0       ??0?$_Tree_unchecked_const_iterator@V?$_Tree_val@U?$_Tree_simple_types@U?$pair@$$CBW4ItemDefinitionIndexx@@UDefItem_t@@@std@@@std@@@std@@U_Iterator_base0@2@@std@@QAE@PAU?$_Tree_node@U?$pair@$$CBW4ItemDefinitionIndexx@@UDefItem_t@@@std@@PAX@1@PBV?$_Tree_val@U?$_Tree_simple_types@U?$pair@$$CBW4ItemDefinitionIndexx@@UDefItem_t@@@std@@@std@@@1@@Z 10017ad0 f i recvproxy.obj
 0001:00016ad0       ??0?$_Vector_const_iterator@V?$_Vector_val@U?$_Simple_types@_S@std@@@std@@@std@@QAE@PA_SPBU_Container_base0@1@@Z 10017ad0 f i Parser.obj
 0001:00016ad0       ??0?$_List_unchecked_const_iterator@V?$_List_val@U?$_List_simple_types@U?$pair@QADPAD@std@@@std@@@std@@U_Iterator_base0@2@@std@@QAE@PAU?$_List_node@U?$pair@QADPAD@std@@PAX@1@PBV?$_List_val@U?$_List_simple_types@U?$pair@QADPAD@std@@@std@@@1@@Z 10017ad0 f i Hooks.obj
 0001:00016ad0       ??0?$_Vector_const_iterator@V?$_Vector_val@U?$_Simple_types@PAURecvTable@@@std@@@std@@@std@@QAE@PAPAURecvTable@@PBU_Container_base0@1@@Z 10017ad0 f i NetVarManager.obj
 0001:00016ad0       ??0?$_String_const_iterator@V?$_String_val@U?$_Simple_types@D@std@@@std@@@std@@QAE@PBDPBU_Container_base0@1@@Z 10017ad0 f i Hooks.obj
 0001:00016b00       ??0?$_List_const_iterator@V?$_List_val@U?$_List_simple_types@U?$pair@$$CBV?$basic_string@DU?$char_traits@D@std@@V?$allocator@D@2@@std@@V?$set@V?$basic_string@DU?$char_traits@D@std@@V?$allocator@D@2@@std@@U?$less@V?$basic_string@DU?$char_traits@D@std@@V?$allocator@D@2@@std@@@2@V?$allocator@V?$basic_string@DU?$char_traits@D@std@@V?$allocator@D@2@@std@@@2@@2@@std@@@std@@@std@@@std@@QAE@PAU?$_List_node@U?$pair@$$CBV?$basic_string@DU?$char_traits@D@std@@V?$allocator@D@2@@std@@V?$set@V?$basic_string@DU?$char_traits@D@std@@V?$allocator@D@2@@std@@U?$less@V?$basic_string@DU?$char_traits@D@std@@V?$allocator@D@2@@std@@@2@V?$allocator@V?$basic_string@DU?$char_traits@D@std@@V?$allocator@D@2@@std@@@2@@2@@std@@PAX@1@PBV?$_List_val@U?$_List_simple_types@U?$pair@$$CBV?$basic_string@DU?$char_traits@D@std@@V?$allocator@D@2@@std@@V?$set@V?$basic_string@DU?$char_traits@D@std@@V?$allocator@D@2@@std@@U?$less@V?$basic_string@DU?$char_traits@D@std@@V?$allocator@D@2@@std@@@2@V?$allocator@V?$basic_string@DU?$char_traits@D@std@@V?$allocator@D@2@@std@@@2@@2@@std@@@std@@@1@@Z 10017b00 f i Hooks.obj
 0001:00016b00       ??0?$_Vector_iterator@V?$_Vector_val@U?$_Simple_types@_S@std@@@std@@@std@@QAE@PA_SPBU_Container_base0@1@@Z 10017b00 f i Parser.obj
 0001:00016b00       ??0?$_Vector_iterator@V?$_Vector_val@U?$_Simple_types@PAURecvTable@@@std@@@std@@@std@@QAE@PAPAURecvTable@@PBU_Container_base0@1@@Z 10017b00 f i NetVarManager.obj
 0001:00016b00       ??0?$_Vector_iterator@V?$_Vector_val@U?$_Simple_types@VVector@@@std@@@std@@@std@@QAE@PAVVector@@PBU_Container_base0@1@@Z 10017b00 f i GrenadePrediction.obj
 0001:00016b00       ??0?$_Tree_const_iterator@V?$_Tree_val@U?$_Tree_simple_types@V?$basic_string@DU?$char_traits@D@std@@V?$allocator@D@2@@std@@@std@@@std@@@std@@QAE@PAU?$_Tree_node@V?$basic_string@DU?$char_traits@D@std@@V?$allocator@D@2@@std@@PAX@1@PBV?$_Tree_val@U?$_Tree_simple_types@V?$basic_string@DU?$char_traits@D@std@@V?$allocator@D@2@@std@@@std@@@1@@Z 10017b00 f i Configuration.obj
 0001:00016b00       ??0?$_Tree_const_iterator@V?$_Tree_val@U?$_Tree_simple_types@U?$pair@$$CBW4ItemDefinitionIndexx@@UDefItem_t@@@std@@@std@@@std@@@std@@QAE@PAU?$_Tree_node@U?$pair@$$CBW4ItemDefinitionIndexx@@UDefItem_t@@@std@@PAX@1@PBV?$_Tree_val@U?$_Tree_simple_types@U?$pair@$$CBW4ItemDefinitionIndexx@@UDefItem_t@@@std@@@std@@@1@@Z 10017b00 f i recvproxy.obj
 0001:00016b00       ??0?$_List_unchecked_iterator@V?$_List_val@U?$_List_simple_types@U?$pair@$$CBV?$basic_string@DU?$char_traits@D@std@@V?$allocator@D@2@@std@@V?$set@V?$basic_string@DU?$char_traits@D@std@@V?$allocator@D@2@@std@@U?$less@V?$basic_string@DU?$char_traits@D@std@@V?$allocator@D@2@@std@@@2@V?$allocator@V?$basic_string@DU?$char_traits@D@std@@V?$allocator@D@2@@std@@@2@@2@@std@@@std@@@std@@@std@@QAE@PAU?$_List_node@U?$pair@$$CBV?$basic_string@DU?$char_traits@D@std@@V?$allocator@D@2@@std@@V?$set@V?$basic_string@DU?$char_traits@D@std@@V?$allocator@D@2@@std@@U?$less@V?$basic_string@DU?$char_traits@D@std@@V?$allocator@D@2@@std@@@2@V?$allocator@V?$basic_string@DU?$char_traits@D@std@@V?$allocator@D@2@@std@@@2@@2@@std@@PAX@1@PBV?$_List_val@U?$_List_simple_types@U?$pair@$$CBV?$basic_string@DU?$char_traits@D@std@@V?$allocator@D@2@@std@@V?$set@V?$basic_string@DU?$char_traits@D@std@@V?$allocator@D@2@@std@@U?$less@V?$basic_string@DU?$char_traits@D@std@@V?$allocator@D@2@@std@@@2@V?$allocator@V?$basic_string@DU?$char_traits@D@std@@V?$allocator@D@2@@std@@@2@@2@@std@@@std@@@1@@Z 10017b00 f i Configuration.obj
 0001:00016b00       ??0?$_List_unchecked_iterator@V?$_List_val@U?$_List_simple_types@U?$pair@$$CBV?$basic_string@DU?$char_traits@D@std@@V?$allocator@D@2@@std@@UskinInfo@@@std@@@std@@@std@@@std@@QAE@PAU?$_List_node@U?$pair@$$CBV?$basic_string@DU?$char_traits@D@std@@V?$allocator@D@2@@std@@UskinInfo@@@std@@PAX@1@PBV?$_List_val@U?$_List_simple_types@U?$pair@$$CBV?$basic_string@DU?$char_traits@D@std@@V?$allocator@D@2@@std@@UskinInfo@@@std@@@std@@@1@@Z 10017b00 f i Configuration.obj
 0001:00016b00       ??0?$_List_const_iterator@V?$_List_val@U?$_List_simple_types@U?$pair@$$CBV?$basic_string@DU?$char_traits@D@std@@V?$allocator@D@2@@std@@V12@@std@@@std@@@std@@@std@@QAE@PAU?$_List_node@U?$pair@$$CBV?$basic_string@DU?$char_traits@D@std@@V?$allocator@D@2@@std@@V12@@std@@PAX@1@PBV?$_List_val@U?$_List_simple_types@U?$pair@$$CBV?$basic_string@DU?$char_traits@D@std@@V?$allocator@D@2@@std@@V12@@std@@@std@@@1@@Z 10017b00 f i Hooks.obj
 0001:00016b00       ??0?$_List_const_iterator@V?$_List_val@U?$_List_simple_types@U?$pair@$$CBV?$basic_string@DU?$char_traits@D@std@@V?$allocator@D@2@@std@@UskinInfo@@@std@@@std@@@std@@@std@@QAE@PAU?$_List_node@U?$pair@$$CBV?$basic_string@DU?$char_traits@D@std@@V?$allocator@D@2@@std@@UskinInfo@@@std@@PAX@1@PBV?$_List_val@U?$_List_simple_types@U?$pair@$$CBV?$basic_string@DU?$char_traits@D@std@@V?$allocator@D@2@@std@@UskinInfo@@@std@@@std@@@1@@Z 10017b00 f i Hooks.obj
 0001:00016b00       ??0?$_List_unchecked_iterator@V?$_List_val@U?$_List_simple_types@U?$pair@QADPAD@std@@@std@@@std@@@std@@QAE@PAU?$_List_node@U?$pair@QADPAD@std@@PAX@1@PBV?$_List_val@U?$_List_simple_types@U?$pair@QADPAD@std@@@std@@@1@@Z 10017b00 f i Hooks.obj
 0001:00016b00       ??0?$_List_unchecked_iterator@V?$_List_val@U?$_List_simple_types@U?$pair@$$CBV?$basic_string@DU?$char_traits@D@std@@V?$allocator@D@2@@std@@V12@@std@@@std@@@std@@@std@@QAE@PAU?$_List_node@U?$pair@$$CBV?$basic_string@DU?$char_traits@D@std@@V?$allocator@D@2@@std@@V12@@std@@PAX@1@PBV?$_List_val@U?$_List_simple_types@U?$pair@$$CBV?$basic_string@DU?$char_traits@D@std@@V?$allocator@D@2@@std@@V12@@std@@@std@@@1@@Z 10017b00 f i Configuration.obj
 0001:00016b00       ??0?$_String_iterator@V?$_String_val@U?$_Simple_types@D@std@@@std@@@std@@QAE@PADPBU_Container_base0@1@@Z 10017b00 f i Hooks.obj
 0001:00016b20       ??0?$basic_string@DU?$char_traits@D@std@@V?$allocator@D@2@@std@@QAE@QBD@Z 10017b20 f i Parser.obj
 0001:00016b80       ??0?$shared_ptr@VObject@valve_parser@@@std@@QAE@$$QAV01@@Z 10017b80 f i Parser.obj
 0001:00016b80       ??0?$shared_ptr@VKeyValue@valve_parser@@@std@@QAE@$$QAV01@@Z 10017b80 f i Parser.obj
 0001:00016b80       ??0?$shared_ptr@VNode@valve_parser@@@std@@QAE@$$QAV01@@Z 10017b80 f i Parser.obj
 0001:00016bd0       ??0?$shared_ptr@VNode@valve_parser@@@std@@QAE@$$T@Z 10017bd0 f i Parser.obj
 0001:00016bf0       ??0?$shared_ptr@VObject@valve_parser@@@std@@QAE@XZ 10017bf0 f i Parser.obj
 0001:00016bf0       ??0?$shared_ptr@VKeyValue@valve_parser@@@std@@QAE@XZ 10017bf0 f i Parser.obj
 0001:00016bf0       ??0?$shared_ptr@VNode@valve_parser@@@std@@QAE@XZ 10017bf0 f i Parser.obj
 0001:00016c10       ??0KeyValue@valve_parser@@QAE@PAVDocument@1@@Z 10017c10 f i Parser.obj
 0001:00016c50       ??0Node@valve_parser@@QAE@PAVDocument@1@@Z 10017c50 f i Parser.obj
 0001:00016c80       ??0_Ref_count_base@std@@IAE@XZ 10017c80 f i Parser.obj
 0001:00016cb0       ??1_Iostream_error_category@std@@UAE@XZ 10017cb0 f i Utilities.obj
 0001:00016cb0       ??1?$_Deque_val@U?$_Deque_simple_types@V?$shared_ptr@VNode@valve_parser@@@std@@@std@@@std@@QAE@XZ 10017cb0 f i Hooks.obj
 0001:00016cb0       ??1?$_Deque_iterator@V?$_Deque_val@U?$_Deque_simple_types@V?$shared_ptr@VNode@valve_parser@@@std@@@std@@@std@@@std@@QAE@XZ 10017cb0 f i Hooks.obj
 0001:00016cb0       ??1?$_Compressed_pair@V?$allocator@D@std@@V?$_String_val@U?$_Simple_types@D@std@@@2@$00@std@@QAE@XZ 10017cb0 f i Parser.obj
 0001:00016cd0       ??1?$_Ref_count_obj@VNode@valve_parser@@@std@@UAE@XZ 10017cd0 f i Hooks.obj
 0001:00016cd0       ??1?$_Ref_count_obj@VKeyValue@valve_parser@@@std@@UAE@XZ 10017cd0 f i Parser.obj
 0001:00016cd0       ??1?$_Ref_count_obj@VObject@valve_parser@@@std@@UAE@XZ 10017cd0 f i Parser.obj
 0001:00016cf0       ??1?$_String_alloc@U?$_String_base_types@DV?$allocator@D@std@@@std@@@std@@QAE@XZ 10017cf0 f i Parser.obj
 0001:00016cf0       ??1?$_Compressed_pair@V?$allocator@V?$shared_ptr@VNode@valve_parser@@@std@@@std@@V?$_Deque_val@U?$_Deque_simple_types@V?$shared_ptr@VNode@valve_parser@@@std@@@std@@@2@$00@std@@QAE@XZ 10017cf0 f i Hooks.obj
 0001:00016d10       ??1?$basic_string@DU?$char_traits@D@std@@V?$allocator@D@2@@std@@QAE@XZ 10017d10 f i Parser.obj
 0001:00016d50       ??1?$shared_ptr@VNode@valve_parser@@@std@@QAE@XZ 10017d50 f i Parser.obj
 0001:00016d50       ??1?$shared_ptr@VKeyValue@valve_parser@@@std@@QAE@XZ 10017d50 f i Parser.obj
 0001:00016d50       ??1?$shared_ptr@VObject@valve_parser@@@std@@QAE@XZ 10017d50 f i Parser.obj
 0001:00016d90       ??1?$vector@V?$shared_ptr@VNode@valve_parser@@@std@@V?$allocator@V?$shared_ptr@VNode@valve_parser@@@std@@@2@@std@@QAE@XZ 10017d90 f i Parser.obj
 0001:00016dd0       ??1?$vector@_SV?$allocator@_S@std@@@std@@QAE@XZ 10017dd0 f i Parser.obj
 0001:00016e10       ??1Node@valve_parser@@QAE@XZ 10017e10 f i Parser.obj
 0001:00016e30       ??1Object@valve_parser@@QAE@XZ 10017e30 f i Parser.obj
 0001:00016e30       ??1KeyValue@valve_parser@@QAE@XZ 10017e30 f i Parser.obj
 0001:00016e50       ??1_Ref_count_base@std@@UAE@XZ 10017e50 f i Parser.obj
 0001:00016e70       ??2@YAPAXIPAX@Z            10017e70 f i Parser.obj
 0001:00016e80       ??D?$_String_iterator@V?$_String_val@U?$_Simple_types@D@std@@@std@@@std@@QBEAADXZ 10017e80 f i Utilities.obj
 0001:00016e80       ??C?$shared_ptr@VObject@valve_parser@@@std@@QBEPAVObject@valve_parser@@XZ 10017e80 f i Parser.obj
 0001:00016e80       ?get@?$shared_ptr@VNode@valve_parser@@@std@@QBEPAVNode@valve_parser@@XZ 10017e80 f i Hooks.obj
 0001:00016e80       ??D?$_Vector_iterator@V?$_Vector_val@U?$_Simple_types@VVector@@@std@@@std@@@std@@QBEAAVVector@@XZ 10017e80 f i GrenadePrediction.obj
 0001:00016e80       ??C?$shared_ptr@VNode@valve_parser@@@std@@QBEPAVNode@valve_parser@@XZ 10017e80 f i Parser.obj
 0001:00016e80       ??C?$shared_ptr@VKeyValue@valve_parser@@@std@@QBEPAVKeyValue@valve_parser@@XZ 10017e80 f i Parser.obj
 0001:00016f70       ??_E?$_Ref_count_obj@VKeyValue@valve_parser@@@std@@UAEPAXI@Z 10017f70 f i Parser.obj
 0001:00016f70       ??_G?$_Ref_count_obj@VKeyValue@valve_parser@@@std@@UAEPAXI@Z 10017f70 f i Parser.obj
 0001:00016fa0       ??_G?$_Ref_count_obj@VObject@valve_parser@@@std@@UAEPAXI@Z 10017fa0 f i Parser.obj
 0001:00016fa0       ??_E?$_Ref_count_obj@VObject@valve_parser@@@std@@UAEPAXI@Z 10017fa0 f i Parser.obj
 0001:00016fd0       ??_G?$shared_ptr@VNode@valve_parser@@@std@@QAEPAXI@Z 10017fd0 f i Parser.obj
 0001:00017000       ??_GKeyValue@valve_parser@@QAEPAXI@Z 10018000 f i Parser.obj
 0001:00017030       ??_GObject@valve_parser@@QAEPAXI@Z 10018030 f i Parser.obj
 0001:00017060       ??_G_Ref_count_base@std@@UAEPAXI@Z 10018060 f i Parser.obj
 0001:00017060       ??_E_Ref_count_base@std@@UAEPAXI@Z 10018060 f i Parser.obj
 0001:00017090       ?EndReached@Str@valve_parser@@SAPA_UPA_U_U@Z 10018090 f i Parser.obj
 0001:00017160       ?ParseTextEndTag@Str@valve_parser@@SAPA_UPA_U_U@Z 10018160 f i Parser.obj
 0001:000171a0       ?ParseTextExpectedTag@Str@valve_parser@@SAPA_UPA_U_U_N@Z 100181a0 f i Parser.obj
 0001:00017270       ?StrEqu@Util@valve_parser@@SA_NVStr@2@PAD@Z 10018270 f i Parser.obj
 0001:00017300       ?GetTraceType@CTraceFilter@@UBE?AW4TraceType_t@@XZ 10018300 f i Autowall.obj
 0001:00017300       ?ToKeyValue@Node@valve_parser@@UAEPAVKeyValue@2@XZ 10018300 f i Parser.obj
 0001:00017300       ?ToObject@Node@valve_parser@@UAEPAVObject@2@XZ 10018300 f i Parser.obj
 0001:00017300       ?_Getcont@_Iterator_base0@std@@QBEPBU_Container_base0@2@XZ 10018300 f i Hooks.obj
 0001:00017300       ?GetTraceType@CTraceFilterWorldAndPropsOnly@@UBE?AW4TraceType_t@@XZ 10018300 f i GrenadePrediction.obj
 0001:00017300       ?sync@?$basic_streambuf@DU?$char_traits@D@std@@@std@@MAEHXZ 10018300 f i Utilities.obj
 0001:00017310       ?_Allocate@std@@YAPAXII_N@Z 10018310 f i Parser.obj
 0001:000173d0       ?_Become_small@?$basic_string@DU?$char_traits@D@std@@V?$allocator@D@2@@std@@QAEXXZ 100183d0 f i Parser.obj
 0001:00017460       ?_Calculate_growth@?$basic_string@DU?$char_traits@D@std@@V?$allocator@D@2@@std@@QBEII@Z 10018460 f i Parser.obj
 0001:000174e0       ?_Calculate_growth@?$vector@V?$shared_ptr@VNode@valve_parser@@@std@@V?$allocator@V?$shared_ptr@VNode@valve_parser@@@std@@@2@@std@@ABEII@Z 100184e0 f i Parser.obj
 0001:00017530       ?_Calculate_growth@?$vector@_SV?$allocator@_S@std@@@std@@ABEII@Z 10018530 f i Parser.obj
 0001:00017580       ?_Change_array@?$vector@V?$shared_ptr@VNode@valve_parser@@@std@@V?$allocator@V?$shared_ptr@VNode@valve_parser@@@std@@@2@@std@@AAEXQAV?$shared_ptr@VNode@valve_parser@@@2@II@Z 10018580 f i Parser.obj
 0001:00017620       ?_Change_array@?$vector@_SV?$allocator@_S@std@@@std@@AAEXQA_SII@Z 10018620 f i Parser.obj
 0001:000176c0       ?_Deallocate@std@@YAXPAXII@Z 100186c0 f i Parser.obj
 0001:00017750       ?_Decref@?$_Ptr_base@VNode@valve_parser@@@std@@QAEXXZ 10018750 f i Parser.obj
 0001:00017750       ?_Decref@?$_Ptr_base@VKeyValue@valve_parser@@@std@@QAEXXZ 10018750 f i Parser.obj
 0001:00017750       ?_Decref@?$_Ptr_base@VObject@valve_parser@@@std@@QAEXXZ 10018750 f i Parser.obj
 0001:00017770       ?_Decref@_Ref_count_base@std@@QAEXXZ 10018770 f i Parser.obj
 0001:000177a0       ?_Decwref@_Ref_count_base@std@@QAEXXZ 100187a0 f i Parser.obj
 0001:000177d0       ?_Delete_this@?$_Ref_count_obj@VKeyValue@valve_parser@@@std@@EAEXXZ 100187d0 f i Parser.obj
 0001:000177d0       ?_Delete_this@?$_Ref_count_obj@VNode@valve_parser@@@std@@EAEXXZ 100187d0 f i Hooks.obj
 0001:000177d0       ?_Delete_this@?$_Ref_count_obj@VObject@valve_parser@@@std@@EAEXXZ 100187d0 f i Parser.obj
 0001:00017810       ?_Destroy@?$_Ref_count_obj@VKeyValue@valve_parser@@@std@@EAEXXZ 10018810 f i Parser.obj
 0001:00017850       ?_Destroy@?$_Ref_count_obj@VObject@valve_parser@@@std@@EAEXXZ 10018850 f i Parser.obj
 0001:00017890       ?_Destroy@?$vector@V?$shared_ptr@VNode@valve_parser@@@std@@V?$allocator@V?$shared_ptr@VNode@valve_parser@@@std@@@2@@std@@AAEXPAV?$shared_ptr@VNode@valve_parser@@@2@0@Z 10018890 f i Parser.obj
 0001:000178c0       ?_Destroy@?$vector@VVector@@V?$allocator@VVector@@@std@@@std@@AAEXPAVVector@@0@Z 100188c0 f i ESP.obj
 0001:000178c0       ?_Destroy@?$vector@V?$_List_unchecked_iterator@V?$_List_val@U?$_List_simple_types@U?$pair@$$CBV?$basic_string@DU?$char_traits@D@std@@V?$allocator@D@2@@std@@V12@@std@@@std@@@std@@@std@@V?$allocator@V?$_List_unchecked_iterator@V?$_List_val@U?$_List_simple_types@U?$pair@$$CBV?$basic_string@DU?$char_traits@D@std@@V?$allocator@D@2@@std@@V12@@std@@@std@@@std@@@std@@@2@@std@@AAEXPAV?$_List_unchecked_iterator@V?$_List_val@U?$_List_simple_types@U?$pair@$$CBV?$basic_string@DU?$char_traits@D@std@@V?$allocator@D@2@@std@@V12@@std@@@std@@@std@@@2@0@Z 100188c0 f i Configuration.obj
 0001:000178c0       ?_Destroy@?$vector@PAV?$ConfigValue@M@@V?$allocator@PAV?$ConfigValue@M@@@std@@@std@@AAEXPAPAV?$ConfigValue@M@@0@Z 100188c0 f i Configuration.obj
 0001:000178c0       ?_Destroy@?$vector@PAV?$ConfigValue@H@@V?$allocator@PAV?$ConfigValue@H@@@std@@@std@@AAEXPAPAV?$ConfigValue@H@@0@Z 100188c0 f i Configuration.obj
 0001:000178c0       ?_Destroy@?$vector@V?$_List_unchecked_iterator@V?$_List_val@U?$_List_simple_types@U?$pair@$$CBV?$basic_string@DU?$char_traits@D@std@@V?$allocator@D@2@@std@@V?$set@V?$basic_string@DU?$char_traits@D@std@@V?$allocator@D@2@@std@@U?$less@V?$basic_string@DU?$char_traits@D@std@@V?$allocator@D@2@@std@@@2@V?$allocator@V?$basic_string@DU?$char_traits@D@std@@V?$allocator@D@2@@std@@@2@@2@@std@@@std@@@std@@@std@@V?$allocator@V?$_List_unchecked_iterator@V?$_List_val@U?$_List_simple_types@U?$pair@$$CBV?$basic_string@DU?$char_traits@D@std@@V?$allocator@D@2@@std@@V?$set@V?$basic_string@DU?$char_traits@D@std@@V?$allocator@D@2@@std@@U?$less@V?$basic_string@DU?$char_traits@D@std@@V?$allocator@D@2@@std@@@2@V?$allocator@V?$basic_string@DU?$char_traits@D@std@@V?$allocator@D@2@@std@@@2@@2@@std@@@std@@@std@@@std@@@2@@std@@AAEXPAV?$_List_unchecked_iterator@V?$_List_val@U?$_List_simple_types@U?$pair@$$CBV?$basic_string@DU?$char_traits@D@std@@V?$allocator@D@2@@std@@V?$set@V?$basic_string@DU?$char_traits@D@std@@V?$allocator@D@2@@std@@U?$less@V?$basic_string@DU?$char_traits@D@std@@V?$allocator@D@2@@std@@@2@V?$allocator@V?$basic_string@DU?$char_traits@D@std@@V?$allocator@D@2@@std@@@2@@2@@std@@@std@@@std@@@2@0@Z 100188c0 f i Configuration.obj
 0001:000178c0       ?_Destroy@?$vector@V?$_List_unchecked_iterator@V?$_List_val@U?$_List_simple_types@U?$pair@$$CBV?$basic_string@DU?$char_traits@D@std@@V?$allocator@D@2@@std@@UskinInfo@@@std@@@std@@@std@@@std@@V?$allocator@V?$_List_unchecked_iterator@V?$_List_val@U?$_List_simple_types@U?$pair@$$CBV?$basic_string@DU?$char_traits@D@std@@V?$allocator@D@2@@std@@UskinInfo@@@std@@@std@@@std@@@std@@@2@@std@@AAEXPAV?$_List_unchecked_iterator@V?$_List_val@U?$_List_simple_types@U?$pair@$$CBV?$basic_string@DU?$char_traits@D@std@@V?$allocator@D@2@@std@@UskinInfo@@@std@@@std@@@std@@@2@0@Z 100188c0 f i Configuration.obj
 0001:000178c0       ?_Destroy@?$vector@PAURecvTable@@V?$allocator@PAURecvTable@@@std@@@std@@AAEXPAPAURecvTable@@0@Z 100188c0 f i NetVarManager.obj
 0001:000178c0       ?_Destroy@?$vector@HV?$allocator@H@std@@@std@@AAEXPAH0@Z 100188c0 f i LegitBot.obj
 0001:000178c0       ?_Destroy@?$vector@_SV?$allocator@_S@std@@@std@@AAEXPA_S0@Z 100188c0 f i Parser.obj
 0001:000178c0       ?_Destroy@?$vector@V?$_List_unchecked_iterator@V?$_List_val@U?$_List_simple_types@U?$pair@QADPAD@std@@@std@@@std@@@std@@V?$allocator@V?$_List_unchecked_iterator@V?$_List_val@U?$_List_simple_types@U?$pair@QADPAD@std@@@std@@@std@@@std@@@2@@std@@AAEXPAV?$_List_unchecked_iterator@V?$_List_val@U?$_List_simple_types@U?$pair@QADPAD@std@@@std@@@std@@@2@0@Z 100188c0 f i Hooks.obj
 0001:000178c0       ?_Destroy@?$vector@PAV?$ConfigValue@_N@@V?$allocator@PAV?$ConfigValue@_N@@@std@@@std@@AAEXPAPAV?$ConfigValue@_N@@0@Z 100188c0 f i Configuration.obj
 0001:000178f0       ?_Equal@?$basic_string@DU?$char_traits@D@std@@V?$allocator@D@2@@std@@QBE_NABV12@@Z 100188f0 f i Parser.obj
 0001:00017960       ?_Get_deleter@_Ref_count_base@std@@UBEPAXABVtype_info@@@Z 10018960 f i Parser.obj
 0001:00017970       ?_Getptr@?$_Ref_count_obj@VNode@valve_parser@@@std@@QAEPAVNode@valve_parser@@XZ 10018970 f i Hooks.obj
 0001:00017970       ?_Getptr@?$_Ref_count_obj@VObject@valve_parser@@@std@@QAEPAVObject@valve_parser@@XZ 10018970 f i Parser.obj
 0001:00017970       ?_Getptr@?$_Ref_count_obj@VKeyValue@valve_parser@@@std@@QAEPAVKeyValue@valve_parser@@XZ 10018970 f i Parser.obj
 0001:00017990       ?_Has_unused_capacity@?$vector@_SV?$allocator@_S@std@@@std@@ABE_NXZ 10018990 f i Parser.obj
 0001:00017990       ?_Has_unused_capacity@?$vector@PAURecvTable@@V?$allocator@PAURecvTable@@@std@@@std@@ABE_NXZ 10018990 f i NetVarManager.obj
 0001:00017990       ?_Has_unused_capacity@?$vector@VVector@@V?$allocator@VVector@@@std@@@std@@ABE_NXZ 10018990 f i GrenadePrediction.obj
 0001:00017990       ?_Has_unused_capacity@?$vector@PAV?$ConfigValue@H@@V?$allocator@PAV?$ConfigValue@H@@@std@@@std@@ABE_NXZ 10018990 f i Configuration.obj
 0001:00017990       ?_Has_unused_capacity@?$vector@V?$shared_ptr@VNode@valve_parser@@@std@@V?$allocator@V?$shared_ptr@VNode@valve_parser@@@std@@@2@@std@@ABE_NXZ 10018990 f i Parser.obj
 0001:00017990       ?_Has_unused_capacity@?$vector@PAV?$ConfigValue@M@@V?$allocator@PAV?$ConfigValue@M@@@std@@@std@@ABE_NXZ 10018990 f i Configuration.obj
 0001:00017990       ?_Has_unused_capacity@?$vector@HV?$allocator@H@std@@@std@@ABE_NXZ 10018990 f i RageBot.obj
 0001:00017990       ?_Has_unused_capacity@?$vector@PAV?$ConfigValue@_N@@V?$allocator@PAV?$ConfigValue@_N@@@std@@@std@@ABE_NXZ 10018990 f i Configuration.obj
 0001:000179d0       ?_Large_string_engaged@?$_String_val@U?$_Simple_types@D@std@@@std@@QBE_NXZ 100189d0 f i Parser.obj
 0001:00017a00       ?_Myptr@?$_String_val@U?$_Simple_types@D@std@@@std@@QAEPADXZ 10018a00 f i Parser.obj
 0001:00017a00       ?_Myptr@?$_String_val@U?$_Simple_types@D@std@@@std@@QBEPBDXZ 10018a00 f i Parser.obj
 0001:00017a40       ?_Reallocate_exactly@?$vector@_SV?$allocator@_S@std@@@std@@AAEXI@Z 10018a40 f i Parser.obj
 0001:00017b10       ?_Reset0@?$_Ptr_base@VObject@valve_parser@@@std@@QAEXPAVObject@valve_parser@@PAV_Ref_count_base@2@@Z 10018b10 f i Parser.obj
 0001:00017b10       ?_Reset0@?$_Ptr_base@VNode@valve_parser@@@std@@QAEXPAVNode@valve_parser@@PAV_Ref_count_base@2@@Z 10018b10 f i Parser.obj
 0001:00017b10       ?_Reset0@?$_Ptr_base@VKeyValue@valve_parser@@@std@@QAEXPAVKeyValue@valve_parser@@PAV_Ref_count_base@2@@Z 10018b10 f i Parser.obj
 0001:00017b50       ?_Reset@?$_Ptr_base@VNode@valve_parser@@@std@@QAEXPAVNode@valve_parser@@PAV_Ref_count_base@2@@Z 10018b50 f i Parser.obj
 0001:00017b80       ?_Swap@?$_Ptr_base@VNode@valve_parser@@@std@@QAEXAAV12@@Z 10018b80 f i Parser.obj
 0001:00017bc0       ?_Tidy@?$vector@V?$shared_ptr@VNode@valve_parser@@@std@@V?$allocator@V?$shared_ptr@VNode@valve_parser@@@std@@@2@@std@@AAEXXZ 10018bc0 f i Parser.obj
 0001:00017c50       ?_Tidy@?$vector@_SV?$allocator@_S@std@@@std@@AAEXXZ 10018c50 f i Parser.obj
 0001:00017ce0       ?_Tidy_deallocate@?$basic_string@DU?$char_traits@D@std@@V?$allocator@D@2@@std@@QAEXXZ 10018ce0 f i Parser.obj
 0001:00017d90       ?_Tidy_init@?$basic_string@DU?$char_traits@D@std@@V?$allocator@D@2@@std@@QAEXXZ 10018d90 f i Parser.obj
 0001:00017de0       ?_Umove_if_noexcept1@?$vector@V?$shared_ptr@VNode@valve_parser@@@std@@V?$allocator@V?$shared_ptr@VNode@valve_parser@@@std@@@2@@std@@AAEXPAV?$shared_ptr@VNode@valve_parser@@@2@00U?$integral_constant@_N$00@2@@Z 10018de0 f i Parser.obj
 0001:00017e10       ?_Umove_if_noexcept@?$vector@V?$shared_ptr@VNode@valve_parser@@@std@@V?$allocator@V?$shared_ptr@VNode@valve_parser@@@std@@@2@@std@@AAEXPAV?$shared_ptr@VNode@valve_parser@@@2@00@Z 10018e10 f i Parser.obj
 0001:00017e40       ?_Xlen@?$basic_string@DU?$char_traits@D@std@@V?$allocator@D@2@@std@@SAXXZ 10018e40 f i Parser.obj
 0001:00017e50       ?allocate@?$allocator@D@std@@QAEPADI@Z 10018e50 f i Parser.obj
 0001:00017e70       ?allocate@?$allocator@V?$shared_ptr@VNode@valve_parser@@@std@@@std@@QAEPAV?$shared_ptr@VNode@valve_parser@@@2@I@Z 10018e70 f i Parser.obj
 0001:00017e70       ?allocate@?$allocator@U_Container_proxy@std@@@std@@QAEPAU_Container_proxy@2@I@Z 10018e70 f i Hooks.obj
 0001:00017e90       ?allocate@?$allocator@_S@std@@QAEPA_SI@Z 10018e90 f i Parser.obj
 0001:00017eb0       ?assign@?$basic_string@DU?$char_traits@D@std@@V?$allocator@D@2@@std@@QAEAAV12@QBD@Z 10018eb0 f i Parser.obj
 0001:00017ee0       ?assign@?$basic_string@DU?$char_traits@D@std@@V?$allocator@D@2@@std@@QAEAAV12@QBDI@Z 10018ee0 f i Parser.obj
 0001:00017f70       ?assign@?$char_traits@D@std@@SAXAADABD@Z 10018f70 f i Parser.obj
 0001:00017f80       ?capacity@?$vector@V?$shared_ptr@VNode@valve_parser@@@std@@V?$allocator@V?$shared_ptr@VNode@valve_parser@@@std@@@2@@std@@QBEIXZ 10018f80 f i Parser.obj
 0001:00017fb0       ?capacity@?$vector@_SV?$allocator@_S@std@@@std@@QBEIXZ 10018fb0 f i Parser.obj
 0001:00017fe0       ?compare@?$char_traits@D@std@@SAHQBD0I@Z 10018fe0 f i Parser.obj
 0001:00018000       ?copy@?$char_traits@D@std@@SAPADQADQBDI@Z 10019000 f i Parser.obj
 0001:00018020       ?deallocate@?$allocator@D@std@@QAEXQADI@Z 10019020 f i Parser.obj
 0001:00018040       ?deallocate@?$allocator@V?$shared_ptr@VNode@valve_parser@@@std@@@std@@QAEXQAV?$shared_ptr@VNode@valve_parser@@@2@I@Z 10019040 f i Parser.obj
 0001:00018060       ?deallocate@?$allocator@_S@std@@QAEXQA_SI@Z 10019060 f i Parser.obj
 0001:00018080       ?identify@Document@valve_parser@@AAE_NAAV?$shared_ptr@VNode@valve_parser@@@std@@@Z 10019080 f i Parser.obj
 0001:00018230       ?length@?$char_traits@D@std@@SAIQBD@Z 10019230 f i Parser.obj
 0001:00018250       ?eof@?$char_traits@D@std@@SAHXZ 10019250 f i Utilities.obj
 0001:00018250       ?max_size@?$_Default_allocator_traits@V?$allocator@D@std@@@std@@SAIABV?$allocator@D@2@@Z 10019250 f i Parser.obj
 0001:00018250       ?max@?$mersenne_twister_engine@I$0CA@$0CHA@$0BIN@$0BP@$0JJAILANP@$0L@$0PPPPPPPP@$06$0JNCMFGIA@$0P@$0OPMGAAAA@$0BC@$0GMAHIJGF@@std@@SAIXZ 10019250 f i LegitBot.obj
 0001:00018260       ?max_size@?$_Default_allocator_traits@V?$allocator@V?$shared_ptr@VNode@valve_parser@@@std@@@std@@@std@@SAIABV?$allocator@V?$shared_ptr@VNode@valve_parser@@@std@@@2@@Z 10019260 f i Parser.obj
 0001:00018270       ?max@?$numeric_limits@H@std@@SAHXZ 10019270 f i Parser.obj
 0001:00018270       ?max_size@?$_Default_allocator_traits@V?$allocator@_S@std@@@std@@SAIABV?$allocator@_S@2@@Z 10019270 f i Parser.obj
 0001:00018280       ?max_size@?$basic_string@DU?$char_traits@D@std@@V?$allocator@D@2@@std@@QBEIXZ 10019280 f i Parser.obj
 0001:000182e0       ?max_size@?$vector@V?$shared_ptr@VNode@valve_parser@@@std@@V?$allocator@V?$shared_ptr@VNode@valve_parser@@@std@@@2@@std@@QBEIXZ 100192e0 f i Parser.obj
 0001:00018320       ?max_size@?$vector@_SV?$allocator@_S@std@@@std@@QBEIXZ 10019320 f i Parser.obj
 0001:00018360       ?move@?$char_traits@D@std@@SAPADQADQBDI@Z 10019360 f i Parser.obj
 0001:00018380       ?push_back@?$basic_string@DU?$char_traits@D@std@@V?$allocator@D@2@@std@@QAEXD@Z 10019380 f i Parser.obj
 0001:00018410       ?push_back@?$vector@V?$shared_ptr@VNode@valve_parser@@@std@@V?$allocator@V?$shared_ptr@VNode@valve_parser@@@std@@@2@@std@@QAEXABV?$shared_ptr@VNode@valve_parser@@@2@@Z 10019410 f i Parser.obj
 0001:00018430       ?push_back@?$vector@_SV?$allocator@_S@std@@@std@@QAEXAB_S@Z 10019430 f i Parser.obj
 0001:00018450       ?reserve@?$basic_string@DU?$char_traits@D@std@@V?$allocator@D@2@@std@@QAEXI@Z 10019450 f i Parser.obj
 0001:000184e0       ?reserve@?$vector@_SV?$allocator@_S@std@@@std@@QAEXI@Z 100194e0 f i Parser.obj
 0001:00018520       ?size@?$vector@V?$shared_ptr@VNode@valve_parser@@@std@@V?$allocator@V?$shared_ptr@VNode@valve_parser@@@std@@@2@@std@@QBEIXZ 10019520 f i Parser.obj
 0001:00018550       ?size@?$vector@_SV?$allocator@_S@std@@@std@@QBEIXZ 10019550 f i Parser.obj
 0001:00018580       ?swap@?$shared_ptr@VNode@valve_parser@@@std@@QAEXAAV12@@Z 10019580 f i Parser.obj
 0001:000185a0       ?toString@Str@valve_parser@@QAE?AV?$basic_string@DU?$char_traits@D@std@@V?$allocator@D@2@@std@@XZ 100195a0 f i Parser.obj
 0001:00018750       ?Hooked_RecvProxy_Viewmodel@@YAXPAVCRecvProxyData@@PAX1@Z 10019750 f   recvproxy.obj
 0001:00018a20       ?SetViewModelSequence2@@YAXPBVCRecvProxyData@@PAX1@Z 10019a20 f   recvproxy.obj
 0001:00018d20       ?NoSmoke@@YAXPBVCRecvProxyData@@PAX1@Z 10019d20 f   recvproxy.obj
 0001:00018d50       ?AnimationFixHook@@YAXXZ   10019d50 f   recvproxy.obj
 0001:00018e10       ?AnimationFixUnhook@@YAXXZ 10019e10 f   recvproxy.obj
 0001:00018ec0       ?NetvarHook@@YAXXZ         10019ec0 f   recvproxy.obj
 0001:00019000       ?UnloadProxy@@YAXXZ        1001a000 f   recvproxy.obj
 0001:00019130       ??$?0$$CBW4ItemDefinitionIndexx@@UDefItem_t@@X$0A@@?$pair@$$CBW4ItemDefinitionIndexx@@UDefItem_t@@@std@@QAE@ABW4ItemDefinitionIndexx@@ABUDefItem_t@@@Z 1001a130 f i recvproxy.obj
 0001:00019170       ??$?0ABU?$less@V?$basic_string@DU?$char_traits@D@std@@V?$allocator@D@2@@std@@@std@@U_Zero_then_variadic_args_t@1@@?$_Compressed_pair@U?$less@V?$basic_string@DU?$char_traits@D@std@@V?$allocator@D@2@@std@@@std@@V?$_Compressed_pair@V?$allocator@U?$_Tree_node@V?$basic_string@DU?$char_traits@D@std@@V?$allocator@D@2@@std@@PAX@std@@@std@@V?$_Tree_val@U?$_Tree_simple_types@V?$basic_string@DU?$char_traits@D@std@@V?$allocator@D@2@@std@@@std@@@2@$00@2@$00@std@@QAE@U_One_then_variadic_args_t@1@ABU?$less@V?$basic_string@DU?$char_traits@D@std@@V?$allocator@D@2@@std@@@1@$$QAU_Zero_then_variadic_args_t@1@@Z 1001a170 f i Hooks.obj
 0001:00019170       ??$?0ABU?$less@W4ItemDefinitionIndexx@@@std@@U_Zero_then_variadic_args_t@1@@?$_Compressed_pair@U?$less@W4ItemDefinitionIndexx@@@std@@V?$_Compressed_pair@V?$allocator@U?$_Tree_node@U?$pair@$$CBW4ItemDefinitionIndexx@@UDefItem_t@@@std@@PAX@std@@@std@@V?$_Tree_val@U?$_Tree_simple_types@U?$pair@$$CBW4ItemDefinitionIndexx@@UDefItem_t@@@std@@@std@@@2@$00@2@$00@std@@QAE@U_One_then_variadic_args_t@1@ABU?$less@W4ItemDefinitionIndexx@@@1@$$QAU_Zero_then_variadic_args_t@1@@Z 1001a170 f i recvproxy.obj
 0001:000191b0       ??$?8DU?$char_traits@D@std@@V?$allocator@D@1@@std@@YA_NABV?$basic_string@DU?$char_traits@D@std@@V?$allocator@D@2@@0@QBD@Z 1001a1b0 f i recvproxy.obj
 0001:000191d0       ??$_Buynode@ABU?$pair@$$CBW4ItemDefinitionIndexx@@UDefItem_t@@@std@@@?$_Tree_comp_alloc@V?$_Tmap_traits@W4ItemDefinitionIndexx@@UDefItem_t@@U?$less@W4ItemDefinitionIndexx@@@std@@V?$allocator@U?$pair@$$CBW4ItemDefinitionIndexx@@UDefItem_t@@@std@@@4@$0A@@std@@@std@@QAEPAU?$_Tree_node@U?$pair@$$CBW4ItemDefinitionIndexx@@UDefItem_t@@@std@@PAX@1@ABU?$pair@$$CBW4ItemDefinitionIndexx@@UDefItem_t@@@1@@Z 1001a1d0 f i recvproxy.obj
 0001:00019290       ??$_Buynode_if_nil@AAU?$pair@$$CBW4ItemDefinitionIndexx@@UDefItem_t@@@std@@@?$_Tree@V?$_Tmap_traits@W4ItemDefinitionIndexx@@UDefItem_t@@U?$less@W4ItemDefinitionIndexx@@@std@@V?$allocator@U?$pair@$$CBW4ItemDefinitionIndexx@@UDefItem_t@@@std@@@4@$0A@@std@@@std@@IAEPAU?$_Tree_node@U?$pair@$$CBW4ItemDefinitionIndexx@@UDefItem_t@@@std@@PAX@1@PAU21@AAU?$pair@$$CBW4ItemDefinitionIndexx@@UDefItem_t@@@1@@Z 1001a290 f i recvproxy.obj
 0001:000192a0       ??$_Insert_at@AAU?$pair@$$CBW4ItemDefinitionIndexx@@UDefItem_t@@@std@@PAU?$_Tree_node@U?$pair@$$CBW4ItemDefinitionIndexx@@UDefItem_t@@@std@@PAX@2@@?$_Tree@V?$_Tmap_traits@W4ItemDefinitionIndexx@@UDefItem_t@@U?$less@W4ItemDefinitionIndexx@@@std@@V?$allocator@U?$pair@$$CBW4ItemDefinitionIndexx@@UDefItem_t@@@std@@@4@$0A@@std@@@std@@IAE?AV?$_Tree_iterator@V?$_Tree_val@U?$_Tree_simple_types@U?$pair@$$CBW4ItemDefinitionIndexx@@UDefItem_t@@@std@@@std@@@std@@@1@_NPAU?$_Tree_node@U?$pair@$$CBW4ItemDefinitionIndexx@@UDefItem_t@@@std@@PAX@1@AAU?$pair@$$CBW4ItemDefinitionIndexx@@UDefItem_t@@@1@1@Z 1001a2a0 f i recvproxy.obj
 0001:00019540       ??$_Insert_hint@AAU?$pair@$$CBW4ItemDefinitionIndexx@@UDefItem_t@@@std@@PAU?$_Tree_node@U?$pair@$$CBW4ItemDefinitionIndexx@@UDefItem_t@@@std@@PAX@2@@?$_Tree@V?$_Tmap_traits@W4ItemDefinitionIndexx@@UDefItem_t@@U?$less@W4ItemDefinitionIndexx@@@std@@V?$allocator@U?$pair@$$CBW4ItemDefinitionIndexx@@UDefItem_t@@@std@@@4@$0A@@std@@@std@@IAE?AV?$_Tree_iterator@V?$_Tree_val@U?$_Tree_simple_types@U?$pair@$$CBW4ItemDefinitionIndexx@@UDefItem_t@@@std@@@std@@@std@@@1@V?$_Tree_const_iterator@V?$_Tree_val@U?$_Tree_simple_types@U?$pair@$$CBW4ItemDefinitionIndexx@@UDefItem_t@@@std@@@std@@@std@@@1@AAU?$pair@$$CBW4ItemDefinitionIndexx@@UDefItem_t@@@1@PAU?$_Tree_node@U?$pair@$$CBW4ItemDefinitionIndexx@@UDefItem_t@@@std@@PAX@1@@Z 1001a540 f i recvproxy.obj
 0001:00019f00       ??$_Insert_nohint@AAU?$pair@$$CBW4ItemDefinitionIndexx@@UDefItem_t@@@std@@PAU?$_Tree_node@U?$pair@$$CBW4ItemDefinitionIndexx@@UDefItem_t@@@std@@PAX@2@@?$_Tree@V?$_Tmap_traits@W4ItemDefinitionIndexx@@UDefItem_t@@U?$less@W4ItemDefinitionIndexx@@@std@@V?$allocator@U?$pair@$$CBW4ItemDefinitionIndexx@@UDefItem_t@@@std@@@4@$0A@@std@@@std@@IAE?AU?$pair@V?$_Tree_iterator@V?$_Tree_val@U?$_Tree_simple_types@U?$pair@$$CBW4ItemDefinitionIndexx@@UDefItem_t@@@std@@@std@@@std@@@std@@_N@1@_NAAU?$pair@$$CBW4ItemDefinitionIndexx@@UDefItem_t@@@1@PAU?$_Tree_node@U?$pair@$$CBW4ItemDefinitionIndexx@@UDefItem_t@@@std@@PAX@1@@Z 1001af00 f i recvproxy.obj
 0001:0001a200       ??$call_vfunc@P6E_NPAXPAY123MHHM@Z@@YAP6E_NPAXPAY123MHHM@Z0K@Z 1001b200 f i ESP.obj
 0001:0001a200       ??$call_vfunc@P6EHPAXPBD@Z@@YAP6EHPAXPBD@Z0K@Z 1001b200 f i recvproxy.obj
 0001:0001a200       ??$call_vfunc@P6EPAUsurfacedata_t@@PAXH@Z@@YAP6EPAUsurfacedata_t@@PAXH@Z0K@Z 1001b200 f i Autowall.obj
 0001:0001a200       ??$call_vfunc@P6EPBDPAXPBX@Z@@YAP6EPBDPAXPBX@Z0K@Z 1001b200 f i recvproxy.obj
 0001:0001a200       ??$call_vfunc@P6EAAY123$$CBMPAX@Z@@YAP6EAAY123$$CBMPAX@Z0K@Z 1001b200 f i Render.obj
 0001:0001a200       ??$call_vfunc@P6EHPAXPBDH@Z@@YAP6EHPAXPBDH@Z0K@Z 1001b200 f i Hooks.obj
 0001:0001a200       ??$call_vfunc@P6EXPAXMMM@Z@@YAP6EXPAXMMM@Z0K@Z 1001b200 f i ESP.obj
 0001:0001a200       ??$call_vfunc@P6EPAVIMaterial@@PAXPBDPAVKeyValues@@@Z@@YAP6EPAVIMaterial@@PAXPBDPAVKeyValues@@@Z0K@Z 1001b200 f i Chams.obj
 0001:0001a200       ??$call_vfunc@P6EXPAXPBDD@Z@@YAP6EXPAXPBDD@Z0K@Z 1001b200 f i Hooks.obj
 0001:0001a200       ??$call_vfunc@P6EPAVCSWeaponInfo@@PAX@Z@@YAP6EPAVCSWeaponInfo@@PAX@Z0K@Z 1001b200 f i Autowall.obj
 0001:0001a200       ??$call_vfunc@P6EXPAX@Z@@YAP6EXPAX@Z0K@Z 1001b200 f i Chams.obj
 0001:0001a200       ??$call_vfunc@P6EHPAX_N@Z@@YAP6EHPAX_N@Z0K@Z 1001b200 f i Render.obj
 0001:0001a200       ??$call_vfunc@P6EXPAXKPB_WAAH2@Z@@YAP6EXPAXKPB_WAAH2@Z0K@Z 1001b200 f i Render.obj
 0001:0001a200       ??$call_vfunc@P6EHPAX@Z@@YAP6EHPAX@Z0K@Z 1001b200 f i recvproxy.obj
 0001:0001a200       ??$call_vfunc@P6EXPAXPBD@Z@@YAP6EXPAXPBD@Z0K@Z 1001b200 f i ESP.obj
 0001:0001a200       ??$call_vfunc@P6EPAVIMaterial@@PAXPBD1_N1@Z@@YAP6EPAVIMaterial@@PAXPBD1_N1@Z0K@Z 1001b200 f i Hooks.obj
 0001:0001a200       ??$call_vfunc@P6EHPAXABVVector@@AAV1@@Z@@YAP6EHPAXABVVector@@AAV0@@Z0K@Z 1001b200 f i ESP.obj
 0001:0001a200       ??$call_vfunc@P6EGPAXG@Z@@YAP6EGPAXG@Z0K@Z 1001b200 f i ESP.obj
 0001:0001a200       ??$call_vfunc@P6EHPAXH@Z@@YAP6EHPAXH@Z0K@Z 1001b200 f i Hooks.obj
 0001:0001a200       ??$call_vfunc@P6GPAUstudiohdr_t@@PBUmodel_t@@@Z@@YAP6GPAUstudiohdr_t@@PBUmodel_t@@@ZPAXK@Z 1001b200 f i ESP.obj
 0001:0001a200       ??$call_vfunc@P6E_NPAXHPAUplayer_info_s@@@Z@@YAP6E_NPAXHPAUplayer_info_s@@@Z0K@Z 1001b200 f i ESP.obj
 0001:0001a200       ??$call_vfunc@P6EMPAX@Z@@YAP6EMPAX@Z0K@Z 1001b200 f i ESP.obj
 0001:0001a200       ??$call_vfunc@P6EXPAXHPAUVertex_t@@_N@Z@@YAP6EXPAXHPAUVertex_t@@_N@Z0K@Z 1001b200 f i Render.obj
 0001:0001a200       ??$call_vfunc@P6EXPAXAAVVector@@@Z@@YAP6EXPAXAAVVector@@@Z0K@Z 1001b200 f i Autowall.obj
 0001:0001a200       ??$call_vfunc@P6EIPAX@Z@@YAP6EIPAX@Z0K@Z 1001b200 f i Render.obj
 0001:0001a200       ??$call_vfunc@P6EXPAXHH@Z@@YAP6EXPAXHH@Z0K@Z 1001b200 f i Render.obj
 0001:0001a200       ??$call_vfunc@P6EXPAXHPBEHH@Z@@YAP6EXPAXHPBEHH@Z0K@Z 1001b200 f i Render.obj
 0001:0001a200       ??$call_vfunc@P6EXPAXH@Z@@YAP6EXPAXH@Z0K@Z 1001b200 f i ESP.obj
 0001:0001a200       ??$call_vfunc@P6EGPAX@Z@@YAP6EGPAX@Z0K@Z 1001b200 f i ESP.obj
 0001:0001a200       ??$call_vfunc@P6EXPAXW4MaterialVarFlags_t@@_N@Z@@YAP6EXPAXW4MaterialVarFlags_t@@_N@Z0K@Z 1001b200 f i ESP.obj
 0001:0001a200       ??$call_vfunc@P6EPAUdlight_t@@PAXH@Z@@YAP6EPAUdlight_t@@PAXH@Z0K@Z 1001b200 f i ESP.obj
 0001:0001a200       ??$call_vfunc@P6EPAVIMaterial@@PAXG@Z@@YAP6EPAVIMaterial@@PAXG@Z0K@Z 1001b200 f i ESP.obj
 0001:0001a200       ??$call_vfunc@P6EXPAXHHHH@Z@@YAP6EXPAXHHHH@Z0K@Z 1001b200 f i ESP.obj
 0001:0001a200       ??$call_vfunc@P6EPAXPAXH@Z@@YAP6EPAXPAXH@Z0K@Z 1001b200 f i recvproxy.obj
 0001:0001a200       ??$call_vfunc@P6EXPAXPBM@Z@@YAP6EXPAXPBM@Z0K@Z 1001b200 f i Chams.obj
 0001:0001a200       ??$call_vfunc@P6EXPAXPB_WHH@Z@@YAP6EXPAXPB_WHH@Z0K@Z 1001b200 f i Render.obj
 0001:0001a200       ??$call_vfunc@P6EXPAXABURay_t@@IPAVITraceFilter@@PAVCGameTrace@@@Z@@YAP6EXPAXABURay_t@@IPAVITraceFilter@@PAVCGameTrace@@@Z0K@Z 1001b200 f i ESP.obj
 0001:0001a200       ??$call_vfunc@P6EPBDPAXPBDH@Z@@YAP6EPBDPAXPBDH@Z0K@Z 1001b200 f i Hooks.obj
 0001:0001a200       ??$call_vfunc@P6EPBDPAXI@Z@@YAP6EPBDPAXI@Z0K@Z 1001b200 f i Hooks.obj
 0001:0001a200       ??$call_vfunc@P6EPBDPAX@Z@@YAP6EPBDPAX@Z0K@Z 1001b200 f i ESP.obj
 0001:0001a200       ??$call_vfunc@P6EXPAXAAH1@Z@@YAP6EXPAXAAH1@Z0K@Z 1001b200 f i ESP.obj
 0001:0001a200       ??$call_vfunc@P6EXPAXK@Z@@YAP6EXPAXK@Z0K@Z 1001b200 f i Render.obj
 0001:0001a200       ??$call_vfunc@P6EXPAXPAH1H@Z@@YAP6EXPAXPAH1H@Z0K@Z 1001b200 f i Render.obj
 0001:0001a200       ??$call_vfunc@P6EXPAXVColor@@@Z@@YAP6EXPAXVColor@@@Z0K@Z 1001b200 f i ESP.obj
 0001:0001a200       ??$call_vfunc@P6EXPAXABURay_t@@IPAVC_BaseEntity@@PAVCGameTrace@@@Z@@YAP6EXPAXABURay_t@@IPAVC_BaseEntity@@PAVCGameTrace@@@Z0K@Z 1001b200 f i LegitBot.obj
 0001:0001a200       ??$call_vfunc@P6EPAVC_BaseEntity@@PAXK@Z@@YAP6EPAVC_BaseEntity@@PAXK@Z0K@Z 1001b200 f i Hooks.obj
 0001:0001a200       ??$call_vfunc@P6EXPAXKPBDHHHHHHH@Z@@YAP6EXPAXKPBDHHHHHHH@Z0K@Z 1001b200 f i Render.obj
 0001:0001a200       ??$call_vfunc@P6EXPAXPAVIMaterial@@W4OverrideType_t@@H@Z@@YAP6EXPAXPAVIMaterial@@W4OverrideType_t@@H@Z0K@Z 1001b200 f i Chams.obj
 0001:0001a200       ??$call_vfunc@P6E_NPAX@Z@@YAP6E_NPAX@Z0K@Z 1001b200 f i Hooks.obj
 0001:0001a200       ??$call_vfunc@P6EPAXPAXPBUmodel_t@@HPAPAVIMaterial@@@Z@@YAP6EPAXPAXPBUmodel_t@@HPAPAVIMaterial@@@Z0K@Z 1001b200 f i ESP.obj
 0001:0001a200       ??$call_vfunc@P6EXPAXM@Z@@YAP6EXPAXM@Z0K@Z 1001b200 f i Chams.obj
 0001:0001a230       ??$construct@PAU?$_List_node@U?$pair@$$CBV?$basic_string@DU?$char_traits@D@std@@V?$allocator@D@2@@std@@V12@@std@@PAX@std@@AAPAU12@@?$_Default_allocator_traits@V?$allocator@U?$_List_node@U?$pair@$$CBV?$basic_string@DU?$char_traits@D@std@@V?$allocator@D@2@@std@@V12@@std@@PAX@std@@@std@@@std@@SAXAAV?$allocator@U?$_List_node@U?$pair@$$CBV?$basic_string@DU?$char_traits@D@std@@V?$allocator@D@2@@std@@V12@@std@@PAX@std@@@1@QAPAU?$_List_node@U?$pair@$$CBV?$basic_string@DU?$char_traits@D@std@@V?$allocator@D@2@@std@@V12@@std@@PAX@1@AAPAU31@@Z 1001b230 f i Configuration.obj
 0001:0001a230       ??$construct@PAV?$ConfigValue@M@@PAV1@@?$_Default_allocator_traits@V?$allocator@PAV?$ConfigValue@M@@@std@@@std@@SAXAAV?$allocator@PAV?$ConfigValue@M@@@1@QAPAV?$ConfigValue@M@@$$QAPAV3@@Z 1001b230 f i Configuration.obj
 0001:0001a230       ??$construct@PAU?$_Tree_node@U?$pair@$$CBW4ItemDefinitionIndexx@@UDefItem_t@@@std@@PAX@std@@AAPAU12@@?$_Default_allocator_traits@V?$allocator@U?$_Tree_node@U?$pair@$$CBW4ItemDefinitionIndexx@@UDefItem_t@@@std@@PAX@std@@@std@@@std@@SAXAAV?$allocator@U?$_Tree_node@U?$pair@$$CBW4ItemDefinitionIndexx@@UDefItem_t@@@std@@PAX@std@@@1@QAPAU?$_Tree_node@U?$pair@$$CBW4ItemDefinitionIndexx@@UDefItem_t@@@std@@PAX@1@AAPAU31@@Z 1001b230 f i recvproxy.obj
 0001:0001a230       ??$construct@PAV?$ConfigValue@H@@PAV1@@?$_Default_allocator_traits@V?$allocator@PAV?$ConfigValue@H@@@std@@@std@@SAXAAV?$allocator@PAV?$ConfigValue@H@@@1@QAPAV?$ConfigValue@H@@$$QAPAV3@@Z 1001b230 f i Configuration.obj
 0001:0001a230       ??$construct@PAURecvTable@@ABQAU1@@?$_Default_allocator_traits@V?$allocator@PAURecvTable@@@std@@@std@@SAXAAV?$allocator@PAURecvTable@@@1@QAPAURecvTable@@ABQAU3@@Z 1001b230 f i NetVarManager.obj
 0001:0001a230       ??$construct@PAU?$_List_node@U?$pair@QADPAD@std@@PAX@std@@AAPAU12@@?$_Default_allocator_traits@V?$allocator@U?$_List_node@U?$pair@QADPAD@std@@PAX@std@@@std@@@std@@SAXAAV?$allocator@U?$_List_node@U?$pair@QADPAD@std@@PAX@std@@@1@QAPAU?$_List_node@U?$pair@QADPAD@std@@PAX@1@AAPAU31@@Z 1001b230 f i Hooks.obj
 0001:0001a230       ??$construct@PAU?$_List_node@U?$pair@$$CBV?$basic_string@DU?$char_traits@D@std@@V?$allocator@D@2@@std@@V?$set@V?$basic_string@DU?$char_traits@D@std@@V?$allocator@D@2@@std@@U?$less@V?$basic_string@DU?$char_traits@D@std@@V?$allocator@D@2@@std@@@2@V?$allocator@V?$basic_string@DU?$char_traits@D@std@@V?$allocator@D@2@@std@@@2@@2@@std@@PAX@std@@AAPAU12@@?$_Default_allocator_traits@V?$allocator@U?$_List_node@U?$pair@$$CBV?$basic_string@DU?$char_traits@D@std@@V?$allocator@D@2@@std@@V?$set@V?$basic_string@DU?$char_traits@D@std@@V?$allocator@D@2@@std@@U?$less@V?$basic_string@DU?$char_traits@D@std@@V?$allocator@D@2@@std@@@2@V?$allocator@V?$basic_string@DU?$char_traits@D@std@@V?$allocator@D@2@@std@@@2@@2@@std@@PAX@std@@@std@@@std@@SAXAAV?$allocator@U?$_List_node@U?$pair@$$CBV?$basic_string@DU?$char_traits@D@std@@V?$allocator@D@2@@std@@V?$set@V?$basic_string@DU?$char_traits@D@std@@V?$allocator@D@2@@std@@U?$less@V?$basic_string@DU?$char_traits@D@std@@V?$allocator@D@2@@std@@@2@V?$allocator@V?$basic_string@DU?$char_traits@D@std@@V?$allocator@D@2@@std@@@2@@2@@std@@PAX@std@@@1@QAPAU?$_List_node@U?$pair@$$CBV?$basic_string@DU?$char_traits@D@std@@V?$allocator@D@2@@std@@V?$set@V?$basic_string@DU?$char_traits@D@std@@V?$allocator@D@2@@std@@U?$less@V?$basic_string@DU?$char_traits@D@std@@V?$allocator@D@2@@std@@@2@V?$allocator@V?$basic_string@DU?$char_traits@D@std@@V?$allocator@D@2@@std@@@2@@2@@std@@PAX@1@AAPAU31@@Z 1001b230 f i Configuration.obj
 0001:0001a230       ??$construct@PAU?$_Tree_node@V?$basic_string@DU?$char_traits@D@std@@V?$allocator@D@2@@std@@PAX@std@@AAPAU12@@?$_Default_allocator_traits@V?$allocator@U?$_Tree_node@V?$basic_string@DU?$char_traits@D@std@@V?$allocator@D@2@@std@@PAX@std@@@std@@@std@@SAXAAV?$allocator@U?$_Tree_node@V?$basic_string@DU?$char_traits@D@std@@V?$allocator@D@2@@std@@PAX@std@@@1@QAPAU?$_Tree_node@V?$basic_string@DU?$char_traits@D@std@@V?$allocator@D@2@@std@@PAX@1@AAPAU31@@Z 1001b230 f i Hooks.obj
 0001:0001a230       ??$construct@PADABQAD@?$_Default_allocator_traits@V?$allocator@D@std@@@std@@SAXAAV?$allocator@D@1@QAPADABQAD@Z 1001b230 f i Parser.obj
 0001:0001a230       ??$construct@PAV?$ConfigValue@_N@@PAV1@@?$_Default_allocator_traits@V?$allocator@PAV?$ConfigValue@_N@@@std@@@std@@SAXAAV?$allocator@PAV?$ConfigValue@_N@@@1@QAPAV?$ConfigValue@_N@@$$QAPAV3@@Z 1001b230 f i Configuration.obj
 0001:0001a230       ??$construct@PAU?$_List_node@U?$pair@$$CBV?$basic_string@DU?$char_traits@D@std@@V?$allocator@D@2@@std@@UskinInfo@@@std@@PAX@std@@AAPAU12@@?$_Default_allocator_traits@V?$allocator@U?$_List_node@U?$pair@$$CBV?$basic_string@DU?$char_traits@D@std@@V?$allocator@D@2@@std@@UskinInfo@@@std@@PAX@std@@@std@@@std@@SAXAAV?$allocator@U?$_List_node@U?$pair@$$CBV?$basic_string@DU?$char_traits@D@std@@V?$allocator@D@2@@std@@UskinInfo@@@std@@PAX@std@@@1@QAPAU?$_List_node@U?$pair@$$CBV?$basic_string@DU?$char_traits@D@std@@V?$allocator@D@2@@std@@UskinInfo@@@std@@PAX@1@AAPAU31@@Z 1001b230 f i Configuration.obj
 0001:0001a230       ??$construct@HH@?$_Default_allocator_traits@V?$allocator@H@std@@@std@@SAXAAV?$allocator@H@1@QAH$$QAH@Z 1001b230 f i RageBot.obj
 0001:0001a260       ??$construct@U?$pair@$$CBW4ItemDefinitionIndexx@@UDefItem_t@@@std@@ABU12@@?$_Default_allocator_traits@V?$allocator@U?$_Tree_node@U?$pair@$$CBW4ItemDefinitionIndexx@@UDefItem_t@@@std@@PAX@std@@@std@@@std@@SAXAAV?$allocator@U?$_Tree_node@U?$pair@$$CBW4ItemDefinitionIndexx@@UDefItem_t@@@std@@PAX@std@@@1@QAU?$pair@$$CBW4ItemDefinitionIndexx@@UDefItem_t@@@1@ABU31@@Z 1001b260 f i recvproxy.obj
 0001:0001a2b0       ??$emplace_hint@ABU?$pair@$$CBW4ItemDefinitionIndexx@@UDefItem_t@@@std@@@?$_Tree@V?$_Tmap_traits@W4ItemDefinitionIndexx@@UDefItem_t@@U?$less@W4ItemDefinitionIndexx@@@std@@V?$allocator@U?$pair@$$CBW4ItemDefinitionIndexx@@UDefItem_t@@@std@@@4@$0A@@std@@@std@@QAE?AV?$_Tree_iterator@V?$_Tree_val@U?$_Tree_simple_types@U?$pair@$$CBW4ItemDefinitionIndexx@@UDefItem_t@@@std@@@std@@@std@@@1@V?$_Tree_const_iterator@V?$_Tree_val@U?$_Tree_simple_types@U?$pair@$$CBW4ItemDefinitionIndexx@@UDefItem_t@@@std@@@std@@@std@@@1@ABU?$pair@$$CBW4ItemDefinitionIndexx@@UDefItem_t@@@1@@Z 1001b2b0 f i recvproxy.obj
 0001:0001a300       ??$insert@PBU?$pair@$$CBW4ItemDefinitionIndexx@@UDefItem_t@@@std@@@?$_Tree@V?$_Tmap_traits@W4ItemDefinitionIndexx@@UDefItem_t@@U?$less@W4ItemDefinitionIndexx@@@std@@V?$allocator@U?$pair@$$CBW4ItemDefinitionIndexx@@UDefItem_t@@@std@@@4@$0A@@std@@@std@@QAEXPBU?$pair@$$CBW4ItemDefinitionIndexx@@UDefItem_t@@@1@0@Z 1001b300 f i recvproxy.obj
 0001:0001a350       ??$swap@DX@std@@YAXAAD0@Z  1001b350 f i recvproxy.obj
 0001:0001a390       ??0?$_Tree@V?$_Tmap_traits@W4ItemDefinitionIndexx@@UDefItem_t@@U?$less@W4ItemDefinitionIndexx@@@std@@V?$allocator@U?$pair@$$CBW4ItemDefinitionIndexx@@UDefItem_t@@@std@@@4@$0A@@std@@@std@@QAE@ABU?$less@W4ItemDefinitionIndexx@@@1@@Z 1001b390 f i recvproxy.obj
 0001:0001a3b0       ??0?$_Tree_comp_alloc@V?$_Tmap_traits@W4ItemDefinitionIndexx@@UDefItem_t@@U?$less@W4ItemDefinitionIndexx@@@std@@V?$allocator@U?$pair@$$CBW4ItemDefinitionIndexx@@UDefItem_t@@@std@@@4@$0A@@std@@@std@@QAE@ABU?$less@W4ItemDefinitionIndexx@@@1@@Z 1001b3b0 f i recvproxy.obj
 0001:0001a3e0       ??0?$_List_iterator@V?$_List_val@U?$_List_simple_types@U?$pair@$$CBV?$basic_string@DU?$char_traits@D@std@@V?$allocator@D@2@@std@@V12@@std@@@std@@@std@@@std@@QAE@PAU?$_List_node@U?$pair@$$CBV?$basic_string@DU?$char_traits@D@std@@V?$allocator@D@2@@std@@V12@@std@@PAX@1@PBV?$_List_val@U?$_List_simple_types@U?$pair@$$CBV?$basic_string@DU?$char_traits@D@std@@V?$allocator@D@2@@std@@V12@@std@@@std@@@1@@Z 1001b3e0 f i Hooks.obj
 0001:0001a3e0       ??0?$_List_iterator@V?$_List_val@U?$_List_simple_types@U?$pair@$$CBV?$basic_string@DU?$char_traits@D@std@@V?$allocator@D@2@@std@@UskinInfo@@@std@@@std@@@std@@@std@@QAE@PAU?$_List_node@U?$pair@$$CBV?$basic_string@DU?$char_traits@D@std@@V?$allocator@D@2@@std@@UskinInfo@@@std@@PAX@1@PBV?$_List_val@U?$_List_simple_types@U?$pair@$$CBV?$basic_string@DU?$char_traits@D@std@@V?$allocator@D@2@@std@@UskinInfo@@@std@@@std@@@1@@Z 1001b3e0 f i Hooks.obj
 0001:0001a3e0       ??0?$_Tree_iterator@V?$_Tree_val@U?$_Tree_simple_types@U?$pair@$$CBW4ItemDefinitionIndexx@@UDefItem_t@@@std@@@std@@@std@@@std@@QAE@PAU?$_Tree_node@U?$pair@$$CBW4ItemDefinitionIndexx@@UDefItem_t@@@std@@PAX@1@PBV?$_Tree_val@U?$_Tree_simple_types@U?$pair@$$CBW4ItemDefinitionIndexx@@UDefItem_t@@@std@@@std@@@1@@Z 1001b3e0 f i recvproxy.obj
 0001:0001a3e0       ??0?$_List_iterator@V?$_List_val@U?$_List_simple_types@U?$pair@$$CBV?$basic_string@DU?$char_traits@D@std@@V?$allocator@D@2@@std@@V?$set@V?$basic_string@DU?$char_traits@D@std@@V?$allocator@D@2@@std@@U?$less@V?$basic_string@DU?$char_traits@D@std@@V?$allocator@D@2@@std@@@2@V?$allocator@V?$basic_string@DU?$char_traits@D@std@@V?$allocator@D@2@@std@@@2@@2@@std@@@std@@@std@@@std@@QAE@PAU?$_List_node@U?$pair@$$CBV?$basic_string@DU?$char_traits@D@std@@V?$allocator@D@2@@std@@V?$set@V?$basic_string@DU?$char_traits@D@std@@V?$allocator@D@2@@std@@U?$less@V?$basic_string@DU?$char_traits@D@std@@V?$allocator@D@2@@std@@@2@V?$allocator@V?$basic_string@DU?$char_traits@D@std@@V?$allocator@D@2@@std@@@2@@2@@std@@PAX@1@PBV?$_List_val@U?$_List_simple_types@U?$pair@$$CBV?$basic_string@DU?$char_traits@D@std@@V?$allocator@D@2@@std@@V?$set@V?$basic_string@DU?$char_traits@D@std@@V?$allocator@D@2@@std@@U?$less@V?$basic_string@DU?$char_traits@D@std@@V?$allocator@D@2@@std@@@2@V?$allocator@V?$basic_string@DU?$char_traits@D@std@@V?$allocator@D@2@@std@@@2@@2@@std@@@std@@@1@@Z 1001b3e0 f i Hooks.obj
 0001:0001a400       ??0?$map@W4ItemDefinitionIndexx@@UDefItem_t@@U?$less@W4ItemDefinitionIndexx@@@std@@V?$allocator@U?$pair@$$CBW4ItemDefinitionIndexx@@UDefItem_t@@@std@@@4@@std@@QAE@V?$initializer_list@U?$pair@$$CBW4ItemDefinitionIndexx@@UDefItem_t@@@std@@@1@@Z 1001b400 f i recvproxy.obj
 0001:0001a460       ??0DefItem_t@@QAE@PBD000@Z 1001b460 f i recvproxy.obj
 0001:0001a4c0       ??1?$_Tree@V?$_Tmap_traits@W4ItemDefinitionIndexx@@UDefItem_t@@U?$less@W4ItemDefinitionIndexx@@@std@@V?$allocator@U?$pair@$$CBW4ItemDefinitionIndexx@@UDefItem_t@@@std@@@4@$0A@@std@@@std@@QAE@XZ 1001b4c0 f i recvproxy.obj
 0001:0001a500       ??1?$_Tree_comp_alloc@V?$_Tmap_traits@W4ItemDefinitionIndexx@@UDefItem_t@@U?$less@W4ItemDefinitionIndexx@@@std@@V?$allocator@U?$pair@$$CBW4ItemDefinitionIndexx@@UDefItem_t@@@std@@@4@$0A@@std@@@std@@QAE@XZ 1001b500 f i recvproxy.obj
 0001:0001a540       ??1?$map@W4ItemDefinitionIndexx@@UDefItem_t@@U?$less@W4ItemDefinitionIndexx@@@std@@V?$allocator@U?$pair@$$CBW4ItemDefinitionIndexx@@UDefItem_t@@@std@@@4@@std@@QAE@XZ 1001b540 f i recvproxy.obj
 0001:0001a560       ??9?$_List_unchecked_const_iterator@V?$_List_val@U?$_List_simple_types@U?$pair@$$CBV?$basic_string@DU?$char_traits@D@std@@V?$allocator@D@2@@std@@UskinInfo@@@std@@@std@@@std@@U_Iterator_base0@2@@std@@QBE_NABV01@@Z 1001b560 f i Hooks.obj
 0001:0001a560       ??9?$_Tree_const_iterator@V?$_Tree_val@U?$_Tree_simple_types@V?$basic_string@DU?$char_traits@D@std@@V?$allocator@D@2@@std@@@std@@@std@@@std@@QBE_NABV01@@Z 1001b560 f i Configuration.obj
 0001:0001a560       ??9?$_Tree_const_iterator@V?$_Tree_val@U?$_Tree_simple_types@U?$pair@$$CBW4ItemDefinitionIndexx@@UDefItem_t@@@std@@@std@@@std@@@std@@QBE_NABV01@@Z 1001b560 f i recvproxy.obj
 0001:0001a560       ??9?$_List_unchecked_const_iterator@V?$_List_val@U?$_List_simple_types@U?$pair@$$CBV?$basic_string@DU?$char_traits@D@std@@V?$allocator@D@2@@std@@V12@@std@@@std@@@std@@U_Iterator_base0@2@@std@@QBE_NABV01@@Z 1001b560 f i Hooks.obj
 0001:0001a560       ??9?$_List_unchecked_const_iterator@V?$_List_val@U?$_List_simple_types@U?$pair@$$CBV?$basic_string@DU?$char_traits@D@std@@V?$allocator@D@2@@std@@V?$set@V?$basic_string@DU?$char_traits@D@std@@V?$allocator@D@2@@std@@U?$less@V?$basic_string@DU?$char_traits@D@std@@V?$allocator@D@2@@std@@@2@V?$allocator@V?$basic_string@DU?$char_traits@D@std@@V?$allocator@D@2@@std@@@2@@2@@std@@@std@@@std@@U_Iterator_base0@2@@std@@QBE_NABV01@@Z 1001b560 f i Hooks.obj
 0001:0001a5a0       ??E?$_Tree_const_iterator@V?$_Tree_val@U?$_Tree_simple_types@U?$pair@$$CBW4ItemDefinitionIndexx@@UDefItem_t@@@std@@@std@@@std@@@std@@QAE?AV01@H@Z 1001b5a0 f i recvproxy.obj
 0001:0001a5a0       ??E?$_Tree_const_iterator@V?$_Tree_val@U?$_Tree_simple_types@V?$basic_string@DU?$char_traits@D@std@@V?$allocator@D@2@@std@@@std@@@std@@@std@@QAE?AV01@H@Z 1001b5a0 f i Configuration.obj
 0001:0001a5d0       ??F?$_Tree_const_iterator@V?$_Tree_val@U?$_Tree_simple_types@V?$basic_string@DU?$char_traits@D@std@@V?$allocator@D@2@@std@@@std@@@std@@@std@@QAEAAV01@XZ 1001b5d0 f i Hooks.obj
 0001:0001a5d0       ??F?$_Tree_const_iterator@V?$_Tree_val@U?$_Tree_simple_types@U?$pair@$$CBW4ItemDefinitionIndexx@@UDefItem_t@@@std@@@std@@@std@@@std@@QAEAAV01@XZ 1001b5d0 f i recvproxy.obj
 0001:0001a5f0       ??F?$_Tree_iterator@V?$_Tree_val@U?$_Tree_simple_types@U?$pair@$$CBW4ItemDefinitionIndexx@@UDefItem_t@@@std@@@std@@@std@@@std@@QAEAAV01@XZ 1001b5f0 f i recvproxy.obj
 0001:0001a610       ??F?$_Tree_unchecked_const_iterator@V?$_Tree_val@U?$_Tree_simple_types@V?$basic_string@DU?$char_traits@D@std@@V?$allocator@D@2@@std@@@std@@@std@@U_Iterator_base0@2@@std@@QAEAAV01@XZ 1001b610 f i Hooks.obj
 0001:0001a610       ??F?$_Tree_unchecked_const_iterator@V?$_Tree_val@U?$_Tree_simple_types@U?$pair@$$CBW4ItemDefinitionIndexx@@UDefItem_t@@@std@@@std@@@std@@U_Iterator_base0@2@@std@@QAEAAV01@XZ 1001b610 f i recvproxy.obj
 0001:0001a6b0       ??R?$less@W4ItemDefinitionIndexx@@@std@@QBE_NABW4ItemDefinitionIndexx@@0@Z 1001b6b0 f i recvproxy.obj
 0001:0001a6e0       ?GetHealth@C_BaseEntity@@QAEHXZ 1001b6e0 f i recvproxy.obj
 0001:0001a700       ?GetLifeState@C_BaseEntity@@QAEEXZ 1001b700 f i recvproxy.obj
 0001:0001a720       ?GetModel@CModelInfo@@QAEPAXH@Z 1001b720 f i recvproxy.obj
 0001:0001a750       ?GetModelIndex@CBaseViewModel@@QAEHXZ 1001b750 f i recvproxy.obj
 0001:0001a770       ?GetModelIndex@CModelInfo@@QAEHPBD@Z 1001b770 f i recvproxy.obj
 0001:0001a7a0       ?GetModelName@CModelInfo@@QAEPBDPBX@Z 1001b7a0 f i recvproxy.obj
 0001:0001a7d0       ?GetOwner@CBaseViewModel@@QAEKXZ 1001b7d0 f i recvproxy.obj
 0001:0001a7f0       ?IsAlive@C_BaseEntity@@QAE_NXZ 1001b7f0 f i recvproxy.obj
 0001:0001a830       ?_Buyheadnode@?$_Tree_comp_alloc@V?$_Tmap_traits@W4ItemDefinitionIndexx@@UDefItem_t@@U?$less@W4ItemDefinitionIndexx@@@std@@V?$allocator@U?$pair@$$CBW4ItemDefinitionIndexx@@UDefItem_t@@@std@@@4@$0A@@std@@@std@@QAEPAU?$_Tree_node@U?$pair@$$CBW4ItemDefinitionIndexx@@UDefItem_t@@@std@@PAX@2@XZ 1001b830 f i recvproxy.obj
 0001:0001a930       ?_Buynode0@?$_Tree_comp_alloc@V?$_Tmap_traits@W4ItemDefinitionIndexx@@UDefItem_t@@U?$less@W4ItemDefinitionIndexx@@@std@@V?$allocator@U?$pair@$$CBW4ItemDefinitionIndexx@@UDefItem_t@@@std@@@4@$0A@@std@@@std@@QAEPAU?$_Tree_node@U?$pair@$$CBW4ItemDefinitionIndexx@@UDefItem_t@@@std@@PAX@2@XZ 1001b930 f i recvproxy.obj
 0001:0001aa30       ?_Construct@?$_Tree_comp_alloc@V?$_Tmap_traits@W4ItemDefinitionIndexx@@UDefItem_t@@U?$less@W4ItemDefinitionIndexx@@@std@@V?$allocator@U?$pair@$$CBW4ItemDefinitionIndexx@@UDefItem_t@@@std@@@4@$0A@@std@@@std@@QAEXXZ 1001ba30 f i recvproxy.obj
 0001:0001aa60       ?_Destroy_if_not_nil@?$_Tree@V?$_Tmap_traits@W4ItemDefinitionIndexx@@UDefItem_t@@U?$less@W4ItemDefinitionIndexx@@@std@@V?$allocator@U?$pair@$$CBW4ItemDefinitionIndexx@@UDefItem_t@@@std@@@4@$0A@@std@@@std@@IAEXPAU?$_Tree_node@U?$pair@$$CBW4ItemDefinitionIndexx@@UDefItem_t@@@std@@PAX@2@@Z 1001ba60 f i recvproxy.obj
 0001:0001aab0       ?_Equal@?$basic_string@DU?$char_traits@D@std@@V?$allocator@D@2@@std@@QBE_NQBD@Z 1001bab0 f i recvproxy.obj
 0001:0001ab20       ?_Erase@?$_Tree@V?$_Tmap_traits@W4ItemDefinitionIndexx@@UDefItem_t@@U?$less@W4ItemDefinitionIndexx@@@std@@V?$allocator@U?$pair@$$CBW4ItemDefinitionIndexx@@UDefItem_t@@@std@@@4@$0A@@std@@@std@@IAEXPAU?$_Tree_node@U?$pair@$$CBW4ItemDefinitionIndexx@@UDefItem_t@@@std@@PAX@2@@Z 1001bb20 f i recvproxy.obj
 0001:0001aba0       ?_Freenode0@?$_Tree_comp_alloc@V?$_Tmap_traits@W4ItemDefinitionIndexx@@UDefItem_t@@U?$less@W4ItemDefinitionIndexx@@@std@@V?$allocator@U?$pair@$$CBW4ItemDefinitionIndexx@@UDefItem_t@@@std@@@4@$0A@@std@@@std@@QAEXPAU?$_Tree_node@U?$pair@$$CBW4ItemDefinitionIndexx@@UDefItem_t@@@std@@PAX@2@@Z 1001bba0 f i recvproxy.obj
 0001:0001aba0       ?_Freeheadnode@?$_Tree_comp_alloc@V?$_Tmap_traits@W4ItemDefinitionIndexx@@UDefItem_t@@U?$less@W4ItemDefinitionIndexx@@@std@@V?$allocator@U?$pair@$$CBW4ItemDefinitionIndexx@@UDefItem_t@@@std@@@4@$0A@@std@@@std@@QAEXPAU?$_Tree_node@U?$pair@$$CBW4ItemDefinitionIndexx@@UDefItem_t@@@std@@PAX@2@@Z 1001bba0 f i recvproxy.obj
 0001:0001ac20       ?_Lmost@?$_Tree@V?$_Tset_traits@V?$basic_string@DU?$char_traits@D@std@@V?$allocator@D@2@@std@@U?$less@V?$basic_string@DU?$char_traits@D@std@@V?$allocator@D@2@@std@@@2@V?$allocator@V?$basic_string@DU?$char_traits@D@std@@V?$allocator@D@2@@std@@@2@$0A@@std@@@std@@IBEAAPAU?$_Tree_node@V?$basic_string@DU?$char_traits@D@std@@V?$allocator@D@2@@std@@PAX@2@XZ 1001bc20 f i Configuration.obj
 0001:0001ac20       ?_Lmost@?$_Tree@V?$_Tmap_traits@W4ItemDefinitionIndexx@@UDefItem_t@@U?$less@W4ItemDefinitionIndexx@@@std@@V?$allocator@U?$pair@$$CBW4ItemDefinitionIndexx@@UDefItem_t@@@std@@@4@$0A@@std@@@std@@IBEAAPAU?$_Tree_node@U?$pair@$$CBW4ItemDefinitionIndexx@@UDefItem_t@@@std@@PAX@2@XZ 1001bc20 f i recvproxy.obj
 0001:0001ac40       ?_Lrotate@?$_Tree@V?$_Tset_traits@V?$basic_string@DU?$char_traits@D@std@@V?$allocator@D@2@@std@@U?$less@V?$basic_string@DU?$char_traits@D@std@@V?$allocator@D@2@@std@@@2@V?$allocator@V?$basic_string@DU?$char_traits@D@std@@V?$allocator@D@2@@std@@@2@$0A@@std@@@std@@IAEXPAU?$_Tree_node@V?$basic_string@DU?$char_traits@D@std@@V?$allocator@D@2@@std@@PAX@2@@Z 1001bc40 f i Configuration.obj
 0001:0001ac40       ?_Lrotate@?$_Tree@V?$_Tmap_traits@W4ItemDefinitionIndexx@@UDefItem_t@@U?$less@W4ItemDefinitionIndexx@@@std@@V?$allocator@U?$pair@$$CBW4ItemDefinitionIndexx@@UDefItem_t@@@std@@@4@$0A@@std@@@std@@IAEXPAU?$_Tree_node@U?$pair@$$CBW4ItemDefinitionIndexx@@UDefItem_t@@@std@@PAX@2@@Z 1001bc40 f i recvproxy.obj
 0001:0001ace0       ?_Min@?$_Tree_comp_alloc@V?$_Tset_traits@V?$basic_string@DU?$char_traits@D@std@@V?$allocator@D@2@@std@@U?$less@V?$basic_string@DU?$char_traits@D@std@@V?$allocator@D@2@@std@@@2@V?$allocator@V?$basic_string@DU?$char_traits@D@std@@V?$allocator@D@2@@std@@@2@$0A@@std@@@std@@SAPAU?$_Tree_node@V?$basic_string@DU?$char_traits@D@std@@V?$allocator@D@2@@std@@PAX@2@PAU32@@Z 1001bce0 f i Configuration.obj
 0001:0001ace0       ?_Min@?$_Tree_comp_alloc@V?$_Tmap_traits@W4ItemDefinitionIndexx@@UDefItem_t@@U?$less@W4ItemDefinitionIndexx@@@std@@V?$allocator@U?$pair@$$CBW4ItemDefinitionIndexx@@UDefItem_t@@@std@@@4@$0A@@std@@@std@@SAPAU?$_Tree_node@U?$pair@$$CBW4ItemDefinitionIndexx@@UDefItem_t@@@std@@PAX@2@PAU32@@Z 1001bce0 f i recvproxy.obj
 0001:0001ad00       ?_Mysize@?$_Tree_comp_alloc@V?$_Tmap_traits@W4ItemDefinitionIndexx@@UDefItem_t@@U?$less@W4ItemDefinitionIndexx@@@std@@V?$allocator@U?$pair@$$CBW4ItemDefinitionIndexx@@UDefItem_t@@@std@@@4@$0A@@std@@@std@@QBEABIXZ 1001bd00 f i recvproxy.obj
 0001:0001ad00       ?_Mysize@?$_Tree_comp_alloc@V?$_Tmap_traits@W4ItemDefinitionIndexx@@UDefItem_t@@U?$less@W4ItemDefinitionIndexx@@@std@@V?$allocator@U?$pair@$$CBW4ItemDefinitionIndexx@@UDefItem_t@@@std@@@4@$0A@@std@@@std@@QAEAAIXZ 1001bd00 f i recvproxy.obj
 0001:0001ad00       ?_Mysize@?$_Tree_comp_alloc@V?$_Tset_traits@V?$basic_string@DU?$char_traits@D@std@@V?$allocator@D@2@@std@@U?$less@V?$basic_string@DU?$char_traits@D@std@@V?$allocator@D@2@@std@@@2@V?$allocator@V?$basic_string@DU?$char_traits@D@std@@V?$allocator@D@2@@std@@@2@$0A@@std@@@std@@QAEAAIXZ 1001bd00 f i Configuration.obj
 0001:0001ad20       ?_Rmost@?$_Tree@V?$_Tset_traits@V?$basic_string@DU?$char_traits@D@std@@V?$allocator@D@2@@std@@U?$less@V?$basic_string@DU?$char_traits@D@std@@V?$allocator@D@2@@std@@@2@V?$allocator@V?$basic_string@DU?$char_traits@D@std@@V?$allocator@D@2@@std@@@2@$0A@@std@@@std@@IBEAAPAU?$_Tree_node@V?$basic_string@DU?$char_traits@D@std@@V?$allocator@D@2@@std@@PAX@2@XZ 1001bd20 f i Configuration.obj
 0001:0001ad20       ?_Rmost@?$_Tree@V?$_Tmap_traits@W4ItemDefinitionIndexx@@UDefItem_t@@U?$less@W4ItemDefinitionIndexx@@@std@@V?$allocator@U?$pair@$$CBW4ItemDefinitionIndexx@@UDefItem_t@@@std@@@4@$0A@@std@@@std@@IBEAAPAU?$_Tree_node@U?$pair@$$CBW4ItemDefinitionIndexx@@UDefItem_t@@@std@@PAX@2@XZ 1001bd20 f i recvproxy.obj
 0001:0001ad40       ?_Tidy@?$_Tree@V?$_Tmap_traits@W4ItemDefinitionIndexx@@UDefItem_t@@U?$less@W4ItemDefinitionIndexx@@@std@@V?$allocator@U?$pair@$$CBW4ItemDefinitionIndexx@@UDefItem_t@@@std@@@4@$0A@@std@@@std@@IAEXXZ 1001bd40 f i recvproxy.obj
 0001:0001ad90       ?begin@?$_Tree@V?$_Tmap_traits@W4ItemDefinitionIndexx@@UDefItem_t@@U?$less@W4ItemDefinitionIndexx@@@std@@V?$allocator@U?$pair@$$CBW4ItemDefinitionIndexx@@UDefItem_t@@@std@@@4@$0A@@std@@@std@@QAE?AV?$_Tree_iterator@V?$_Tree_val@U?$_Tree_simple_types@U?$pair@$$CBW4ItemDefinitionIndexx@@UDefItem_t@@@std@@@std@@@std@@@2@XZ 1001bd90 f i recvproxy.obj
 0001:0001adf0       ?clear@?$_Tree@V?$_Tmap_traits@W4ItemDefinitionIndexx@@UDefItem_t@@U?$less@W4ItemDefinitionIndexx@@@std@@V?$allocator@U?$pair@$$CBW4ItemDefinitionIndexx@@UDefItem_t@@@std@@@4@$0A@@std@@@std@@QAEXXZ 1001bdf0 f i recvproxy.obj
 0001:0001ae80       ?end@?$_Tree@V?$_Tmap_traits@W4ItemDefinitionIndexx@@UDefItem_t@@U?$less@W4ItemDefinitionIndexx@@@std@@V?$allocator@U?$pair@$$CBW4ItemDefinitionIndexx@@UDefItem_t@@@std@@@4@$0A@@std@@@std@@QAE?AV?$_Tree_iterator@V?$_Tree_val@U?$_Tree_simple_types@U?$pair@$$CBW4ItemDefinitionIndexx@@UDefItem_t@@@std@@@std@@@std@@@2@XZ 1001be80 f i recvproxy.obj
 0001:0001aee0       ?erase@?$_Tree@V?$_Tmap_traits@W4ItemDefinitionIndexx@@UDefItem_t@@U?$less@W4ItemDefinitionIndexx@@@std@@V?$allocator@U?$pair@$$CBW4ItemDefinitionIndexx@@UDefItem_t@@@std@@@4@$0A@@std@@@std@@QAE?AV?$_Tree_iterator@V?$_Tree_val@U?$_Tree_simple_types@U?$pair@$$CBW4ItemDefinitionIndexx@@UDefItem_t@@@std@@@std@@@std@@@2@V?$_Tree_const_iterator@V?$_Tree_val@U?$_Tree_simple_types@U?$pair@$$CBW4ItemDefinitionIndexx@@UDefItem_t@@@std@@@std@@@std@@@2@0@Z 1001bee0 f i recvproxy.obj
 0001:0001afa0       ?erase@?$_Tree@V?$_Tmap_traits@W4ItemDefinitionIndexx@@UDefItem_t@@U?$less@W4ItemDefinitionIndexx@@@std@@V?$allocator@U?$pair@$$CBW4ItemDefinitionIndexx@@UDefItem_t@@@std@@@4@$0A@@std@@@std@@QAE?AV?$_Tree_iterator@V?$_Tree_val@U?$_Tree_simple_types@U?$pair@$$CBW4ItemDefinitionIndexx@@UDefItem_t@@@std@@@std@@@std@@@2@V?$_Tree_const_iterator@V?$_Tree_val@U?$_Tree_simple_types@U?$pair@$$CBW4ItemDefinitionIndexx@@UDefItem_t@@@std@@@std@@@std@@@2@@Z 1001bfa0 f i recvproxy.obj
 0001:0001b450       ?insert@?$_Tree@V?$_Tmap_traits@W4ItemDefinitionIndexx@@UDefItem_t@@U?$less@W4ItemDefinitionIndexx@@@std@@V?$allocator@U?$pair@$$CBW4ItemDefinitionIndexx@@UDefItem_t@@@std@@@4@$0A@@std@@@std@@QAEXV?$initializer_list@U?$pair@$$CBW4ItemDefinitionIndexx@@UDefItem_t@@@std@@@2@@Z 1001c450 f i recvproxy.obj
 0001:0001b480       ?max_size@?$_Tree@V?$_Tmap_traits@W4ItemDefinitionIndexx@@UDefItem_t@@U?$less@W4ItemDefinitionIndexx@@@std@@V?$allocator@U?$pair@$$CBW4ItemDefinitionIndexx@@UDefItem_t@@@std@@@4@$0A@@std@@@std@@QBEIXZ 1001c480 f i recvproxy.obj
 0001:0001b4a0       ?size@?$_Tree@V?$_Tmap_traits@W4ItemDefinitionIndexx@@UDefItem_t@@U?$less@W4ItemDefinitionIndexx@@@std@@V?$allocator@U?$pair@$$CBW4ItemDefinitionIndexx@@UDefItem_t@@@std@@@4@$0A@@std@@@std@@QBEIXZ 1001c4a0 f i recvproxy.obj
 0001:0001b4c0       ?CanHit@@YA_NPAVC_BaseEntity@@ABVVector@@PAM@Z 1001c4c0 f   Autowall.obj
 0001:0001b5f0       ?CanWallbang@@YA_NAAH@Z    1001c5f0 f   Autowall.obj
 0001:0001b850       ?HandleBulletPenetration@@YA_NPAVCSWeaponInfo@@AAUFireBulletData@@@Z 1001c850 f   Autowall.obj
 0001:0001bc10       ?GetHitgroupDamageMult@@YAMH@Z 1001cc10 f   Autowall.obj
 0001:0001bc90       ?IsArmored@@YA_NPAVC_BaseEntity@@HH@Z 1001cc90 f   Autowall.obj
 0001:0001bcf0       ?ScaleDamage@@YAXHPAVC_BaseEntity@@MAAM@Z 1001ccf0 f   Autowall.obj
 0001:0001bec0       ?SimulateFireBullet@@YA_NPAVC_BaseEntity@@0PAVCBaseCombatWeapon@@AAUFireBulletData@@@Z 1001cec0 f   Autowall.obj
 0001:0001c150       ??$pow@MNX@@YANMN@Z        1001d150 f i Autowall.obj
 0001:0001c180       ??0CBaseTrace@@QAE@XZ      1001d180 f i Autowall.obj
 0001:0001c1b0       ??0CGameTrace@@QAE@XZ      1001d1b0 f i Autowall.obj
 0001:0001c1d0       ??0CTraceFilter@@QAE@XZ    1001d1d0 f i Autowall.obj
 0001:0001c1f0       ??0FireBulletData@@QAE@ABVVector@@@Z 1001d1f0 f i Autowall.obj
 0001:0001c240       ??0ITraceFilter@@QAE@XZ    1001d240 f i Autowall.obj
 0001:0001c260       ??4CTraceFilter@@QAEAAV0@$$QAV0@@Z 1001d260 f i Autowall.obj
 0001:0001c290       ??4Vector@@QAEAAV0@ABV0@@Z 1001d290 f i Autowall.obj
 0001:0001c2d0       ??DVector@@QBE?AV0@M@Z     1001d2d0 f i Autowall.obj
 0001:0001c320       ??GVector@@QBE?AV0@ABV0@@Z 1001d320 f i Autowall.obj
 0001:0001c370       ??HVector@@QBE?AV0@ABV0@@Z 1001d370 f i Autowall.obj
 0001:0001c3c0       ??_0Vector@@QAEAAV0@M@Z    1001d3c0 f i Autowall.obj
 0001:0001c430       ?ArmorValue@C_BaseEntity@@QAEHXZ 1001d430 f i Autowall.obj
 0001:0001c450       ?GetActiveWeaponHandle@C_BaseEntity@@QAEPAXXZ 1001d450 f i Autowall.obj
 0001:0001c470       ?GetCSWpnData@CBaseCombatWeapon@@QAEPAVCSWeaponInfo@@XZ 1001d470 f i Autowall.obj
 0001:0001c4a0       ?GetEyePosition@C_BaseEntity@@QAE?AVVector@@XZ 1001d4a0 f i Autowall.obj
 0001:0001c500       ?GetOrigin@C_BaseEntity@@QAE?AVVector@@XZ 1001d500 f i Autowall.obj
 0001:0001c530       ?GetTeamNum@C_BaseEntity@@QAEHXZ 1001d530 f i Autowall.obj
 0001:0001c550       ?GetViewAngles@IVEngineClient@@QAEXAAVVector@@@Z 1001d550 f i Autowall.obj
 0001:0001c580       ?GetViewOffset@C_BaseEntity@@QAE?AVVector@@XZ 1001d580 f i Autowall.obj
 0001:0001c5b0       ?HasHelmet@C_BaseEntity@@QAE_NXZ 1001d5b0 f i Autowall.obj
 0001:0001c5d0       ?Length@Vector@@QBEMXZ     1001d5d0 f i Autowall.obj
 0001:0001c5f0       ?ShouldHitEntity@CTraceFilter@@UAE_NPAVC_BaseEntity@@H@Z 1001d5f0 f i Autowall.obj
 0001:0001c620       ?VectorAdd@@YAXABVVector@@0AAV1@@Z 1001d620 f i Autowall.obj
 0001:0001c670       ?VectorLength@@YAMABVVector@@@Z 1001d670 f i Autowall.obj
 0001:0001c6c0       ?VectorMultiply@@YAXABVVector@@MAAV1@@Z 1001d6c0 f i Autowall.obj
 0001:0001c710       ?VectorNormalize@@YAMAAVVector@@@Z 1001d710 f i Autowall.obj
 0001:0001c780       ?VectorSubtract@@YAXABVVector@@0AAV1@@Z 1001d780 f i Autowall.obj
 0001:0001c7d0       ?m_bHasHeavyArmor@C_BaseEntity@@QAE_NXZ 1001d7d0 f i Autowall.obj
 0001:0001c7f0       ?sqrt@@YAMM@Z              1001d7f0 f i Autowall.obj
 0001:0001c810       _sqrtf                     1001d810 f i Autowall.obj
 0001:0001c840       ?InitKeyValues@@YAXPAVKeyValues@@PBD@Z 1001d840 f   Chams.obj
 0001:0001c8f0       ?LoadFromBuffer@@YAXPAVKeyValues@@PBD1@Z 1001d8f0 f   Chams.obj
 0001:0001c980       ?ForceMaterial@@YAXVColor@@PAVIMaterial@@_N2@Z 1001d980 f   Chams.obj
 0001:0001caa0       ?CreateMaterial@@YAPAVIMaterial@@_N00@Z 1001daa0 f   Chams.obj
 0001:0001cbb0       ?CreateMaterial@CMaterialSystem@@QAEPAVIMaterial@@PBDPAVKeyValues@@@Z 1001dbb0 f i Chams.obj
 0001:0001cbe0       ?ForcedMaterialOverride@IVModelRender@@QAEXPAVIMaterial@@W4OverrideType_t@@H@Z 1001dbe0 f i Chams.obj
 0001:0001cc10       ?IncrementReferenceCount@IMaterial@@QAEXXZ 1001dc10 f i Chams.obj
 0001:0001cc30       ?SetBlend@CVRenderView@@QAEXM@Z 1001dc30 f i Chams.obj
 0001:0001cc60       ?SetColorModulation@CVRenderView@@QAEXPBM@Z 1001dc60 f i Chams.obj
 0001:0001cc90       ?a@Color@@QBEHXZ           1001dc90 f i Chams.obj
 0001:0001ccb0       ?b@Color@@QBEHXZ           1001dcb0 f i Chams.obj
 0001:0001ccd0       ?g@Color@@QBEHXZ           1001dcd0 f i Chams.obj
 0001:0001ccf0       ?r@Color@@QBEHXZ           1001dcf0 f i Chams.obj
 0001:0001cd10       ___local_stdio_printf_options 1001dd10 f i Chams.obj
 0001:0001cd20       __vsprintf_s_l             1001dd20 f i Chams.obj
 0001:0001cd70       _sprintf_s                 1001dd70 f i Chams.obj
 0001:0001cdc0       ?SetupValue@CConfig@@AAEXAAHHV?$basic_string@DU?$char_traits@D@std@@V?$allocator@D@2@@std@@1@Z 1001ddc0 f   Configuration.obj
 0001:0001cea0       ?SetupValue@CConfig@@AAEXAA_N_NV?$basic_string@DU?$char_traits@D@std@@V?$allocator@D@2@@std@@2@Z 1001dea0 f   Configuration.obj
 0001:0001cf80       ?SetupValue@CConfig@@AAEXAAMMV?$basic_string@DU?$char_traits@D@std@@V?$allocator@D@2@@std@@1@Z 1001df80 f   Configuration.obj
 0001:0001d060       ?Setup@CConfig@@QAEXXZ     1001e060 f   Configuration.obj
 0001:000217e0       ?Save@CConfig@@QAEXXZ      100227e0 f   Configuration.obj
 0001:00021fb0       ?Load@CConfig@@QAEXXZ      10022fb0 f   Configuration.obj
 0001:000227c0       ??$?0$$V@?$_Compressed_pair@V?$allocator@PAV?$ConfigValue@H@@@std@@V?$_Vector_val@U?$_Simple_types@PAV?$ConfigValue@H@@@std@@@2@$00@std@@QAE@U_Zero_then_variadic_args_t@1@@Z 100237c0 f i Configuration.obj
 0001:000227c0       ??$?0$$V@?$_Compressed_pair@V?$allocator@PAURecvTable@@@std@@V?$_Vector_val@U?$_Simple_types@PAURecvTable@@@std@@@2@$00@std@@QAE@U_Zero_then_variadic_args_t@1@@Z 100237c0 f i NetVarManager.obj
 0001:000227c0       ??$?0$$V@?$_Compressed_pair@V?$allocator@V?$shared_ptr@VNode@valve_parser@@@std@@@std@@V?$_Vector_val@U?$_Simple_types@V?$shared_ptr@VNode@valve_parser@@@std@@@std@@@2@$00@std@@QAE@U_Zero_then_variadic_args_t@1@@Z 100237c0 f i Parser.obj
 0001:000227c0       ??$?0$$V@?$_Compressed_pair@V?$allocator@H@std@@V?$_Vector_val@U?$_Simple_types@H@std@@@2@$00@std@@QAE@U_Zero_then_variadic_args_t@1@@Z 100237c0 f i Utilities.obj
 0001:000227c0       ??$?0$$V@?$_Compressed_pair@V?$allocator@VVector@@@std@@V?$_Vector_val@U?$_Simple_types@VVector@@@std@@@2@$00@std@@QAE@U_Zero_then_variadic_args_t@1@@Z 100237c0 f i ESP.obj
 0001:000227c0       ??$?0$$V@?$_Compressed_pair@V?$allocator@_S@std@@V?$_Vector_val@U?$_Simple_types@_S@std@@@2@$00@std@@QAE@U_Zero_then_variadic_args_t@1@@Z 100237c0 f i Parser.obj
 0001:000227c0       ??$?0$$V@?$_Compressed_pair@V?$allocator@PAV?$ConfigValue@M@@@std@@V?$_Vector_val@U?$_Simple_types@PAV?$ConfigValue@M@@@std@@@2@$00@std@@QAE@U_Zero_then_variadic_args_t@1@@Z 100237c0 f i Configuration.obj
 0001:000227c0       ??$?0$$V@?$_Compressed_pair@V?$allocator@PAV?$ConfigValue@_N@@@std@@V?$_Vector_val@U?$_Simple_types@PAV?$ConfigValue@_N@@@std@@@2@$00@std@@QAE@U_Zero_then_variadic_args_t@1@@Z 100237c0 f i Configuration.obj
 0001:000227c0       ??$?0$$V@?$_Compressed_pair@V?$allocator@V?$basic_string@DU?$char_traits@D@std@@V?$allocator@D@2@@std@@@std@@V?$_Vector_val@U?$_Simple_types@V?$basic_string@DU?$char_traits@D@std@@V?$allocator@D@2@@std@@@std@@@2@$00@std@@QAE@U_Zero_then_variadic_args_t@1@@Z 100237c0 f i Configuration.obj
 0001:000227e0       ??$?0$S@?$XorString@$0A@$00@XorCompileTime@@QAE@PBDU?$integer_sequence@I$S@std@@@Z 100237e0 f i Configuration.obj
 0001:00022800       ??$?0$S@?$XorString@$0A@$01@XorCompileTime@@QAE@PBDU?$integer_sequence@I$S@std@@@Z 10023800 f i Configuration.obj
 0001:00022820       ??$?0$S@?$XorString@$0A@$02@XorCompileTime@@QAE@PBDU?$integer_sequence@I$S@std@@@Z 10023820 f i Configuration.obj
 0001:00022840       ??$?0$S@?$XorString@$0A@$03@XorCompileTime@@QAE@PBDU?$integer_sequence@I$S@std@@@Z 10023840 f i Configuration.obj
 0001:00022860       ??$?0$S@?$XorString@$0A@$04@XorCompileTime@@QAE@PBDU?$integer_sequence@I$S@std@@@Z 10023860 f i Configuration.obj
 0001:00022880       ??$?0$S@?$XorString@$0A@$05@XorCompileTime@@QAE@PBDU?$integer_sequence@I$S@std@@@Z 10023880 f i Configuration.obj
 0001:000228a0       ??$?0$S@?$XorString@$0A@$06@XorCompileTime@@QAE@PBDU?$integer_sequence@I$S@std@@@Z 100238a0 f i Configuration.obj
 0001:000228c0       ??$?0$S@?$XorString@$0A@$0A@@XorCompileTime@@QAE@PBDU?$integer_sequence@I$S@std@@@Z 100238c0 f i Configuration.obj
 0001:000228e0       ??$?0AAU?$equal_to@PAD@std@@M@?$_Compressed_pair@U?$equal_to@PAD@std@@M$00@std@@QAE@U_One_then_variadic_args_t@1@AAU?$equal_to@PAD@1@$$QAM@Z 100238e0 f i Hooks.obj
 0001:000228e0       ??$?0AAU?$equal_to@V?$basic_string@DU?$char_traits@D@std@@V?$allocator@D@2@@std@@@std@@M@?$_Compressed_pair@U?$equal_to@V?$basic_string@DU?$char_traits@D@std@@V?$allocator@D@2@@std@@@std@@M$00@std@@QAE@U_One_then_variadic_args_t@1@AAU?$equal_to@V?$basic_string@DU?$char_traits@D@std@@V?$allocator@D@2@@std@@@1@$$QAM@Z 100238e0 f i Configuration.obj
 0001:00022910       ??$?0AAU?$hash@PAD@std@@U_One_then_variadic_args_t@1@AAU?$equal_to@PAD@1@M@?$_Compressed_pair@U?$hash@PAD@std@@V?$_Compressed_pair@U?$equal_to@PAD@std@@M$00@2@$00@std@@QAE@U_One_then_variadic_args_t@1@AAU?$hash@PAD@1@$$QAU21@AAU?$equal_to@PAD@1@$$QAM@Z 10023910 f i Hooks.obj
 0001:00022910       ??$?0AAU?$hash@V?$basic_string@DU?$char_traits@D@std@@V?$allocator@D@2@@std@@@std@@U_One_then_variadic_args_t@1@AAU?$equal_to@V?$basic_string@DU?$char_traits@D@std@@V?$allocator@D@2@@std@@@1@M@?$_Compressed_pair@U?$hash@V?$basic_string@DU?$char_traits@D@std@@V?$allocator@D@2@@std@@@std@@V?$_Compressed_pair@U?$equal_to@V?$basic_string@DU?$char_traits@D@std@@V?$allocator@D@2@@std@@@std@@M$00@2@$00@std@@QAE@U_One_then_variadic_args_t@1@AAU?$hash@V?$basic_string@DU?$char_traits@D@std@@V?$allocator@D@2@@std@@@1@$$QAU21@AAU?$equal_to@V?$basic_string@DU?$char_traits@D@std@@V?$allocator@D@2@@std@@@1@$$QAM@Z 10023910 f i Configuration.obj
 0001:00022960       ??$?0ABV?$allocator@U?$pair@$$CBV?$basic_string@DU?$char_traits@D@std@@V?$allocator@D@2@@std@@UskinInfo@@@std@@@std@@$$V@?$_Compressed_pair@V?$allocator@U?$_List_node@U?$pair@$$CBV?$basic_string@DU?$char_traits@D@std@@V?$allocator@D@2@@std@@UskinInfo@@@std@@PAX@std@@@std@@V?$_List_val@U?$_List_simple_types@U?$pair@$$CBV?$basic_string@DU?$char_traits@D@std@@V?$allocator@D@2@@std@@UskinInfo@@@std@@@std@@@2@$00@std@@QAE@U_One_then_variadic_args_t@1@ABV?$allocator@U?$pair@$$CBV?$basic_string@DU?$char_traits@D@std@@V?$allocator@D@2@@std@@UskinInfo@@@std@@@1@@Z 10023960 f i Configuration.obj
 0001:00022960       ??$?0ABV?$allocator@U?$pair@$$CBV?$basic_string@DU?$char_traits@D@std@@V?$allocator@D@2@@std@@V12@@std@@@std@@$$V@?$_Compressed_pair@V?$allocator@U?$_List_node@U?$pair@$$CBV?$basic_string@DU?$char_traits@D@std@@V?$allocator@D@2@@std@@V12@@std@@PAX@std@@@std@@V?$_List_val@U?$_List_simple_types@U?$pair@$$CBV?$basic_string@DU?$char_traits@D@std@@V?$allocator@D@2@@std@@V12@@std@@@std@@@2@$00@std@@QAE@U_One_then_variadic_args_t@1@ABV?$allocator@U?$pair@$$CBV?$basic_string@DU?$char_traits@D@std@@V?$allocator@D@2@@std@@V12@@std@@@1@@Z 10023960 f i Configuration.obj
 0001:00022960       ??$?0ABV?$allocator@U?$pair@QADPAD@std@@@std@@$$V@?$_Compressed_pair@V?$allocator@U?$_List_node@U?$pair@QADPAD@std@@PAX@std@@@std@@V?$_List_val@U?$_List_simple_types@U?$pair@QADPAD@std@@@std@@@2@$00@std@@QAE@U_One_then_variadic_args_t@1@ABV?$allocator@U?$pair@QADPAD@std@@@1@@Z 10023960 f i Hooks.obj
 0001:00022960       ??$?0ABV?$allocator@U?$pair@$$CBV?$basic_string@DU?$char_traits@D@std@@V?$allocator@D@2@@std@@V?$set@V?$basic_string@DU?$char_traits@D@std@@V?$allocator@D@2@@std@@U?$less@V?$basic_string@DU?$char_traits@D@std@@V?$allocator@D@2@@std@@@2@V?$allocator@V?$basic_string@DU?$char_traits@D@std@@V?$allocator@D@2@@std@@@2@@2@@std@@@std@@$$V@?$_Compressed_pair@V?$allocator@U?$_List_node@U?$pair@$$CBV?$basic_string@DU?$char_traits@D@std@@V?$allocator@D@2@@std@@V?$set@V?$basic_string@DU?$char_traits@D@std@@V?$allocator@D@2@@std@@U?$less@V?$basic_string@DU?$char_traits@D@std@@V?$allocator@D@2@@std@@@2@V?$allocator@V?$basic_string@DU?$char_traits@D@std@@V?$allocator@D@2@@std@@@2@@2@@std@@PAX@std@@@std@@V?$_List_val@U?$_List_simple_types@U?$pair@$$CBV?$basic_string@DU?$char_traits@D@std@@V?$allocator@D@2@@std@@V?$set@V?$basic_string@DU?$char_traits@D@std@@V?$allocator@D@2@@std@@U?$less@V?$basic_string@DU?$char_traits@D@std@@V?$allocator@D@2@@std@@@2@V?$allocator@V?$basic_string@DU?$char_traits@D@std@@V?$allocator@D@2@@std@@@2@@2@@std@@@std@@@2@$00@std@@QAE@U_One_then_variadic_args_t@1@ABV?$allocator@U?$pair@$$CBV?$basic_string@DU?$char_traits@D@std@@V?$allocator@D@2@@std@@V?$set@V?$basic_string@DU?$char_traits@D@std@@V?$allocator@D@2@@std@@U?$less@V?$basic_string@DU?$char_traits@D@std@@V?$allocator@D@2@@std@@@2@V?$allocator@V?$basic_string@DU?$char_traits@D@std@@V?$allocator@D@2@@std@@@2@@2@@std@@@1@@Z 10023960 f i Configuration.obj
 0001:00022990       ??$?0ABV?$allocator@U?$pair@$$CBV?$basic_string@DU?$char_traits@D@std@@V?$allocator@D@2@@std@@UskinInfo@@@std@@@std@@X@?$_List_alloc@U?$_List_base_types@U?$pair@$$CBV?$basic_string@DU?$char_traits@D@std@@V?$allocator@D@2@@std@@UskinInfo@@@std@@V?$allocator@U?$pair@$$CBV?$basic_string@DU?$char_traits@D@std@@V?$allocator@D@2@@std@@UskinInfo@@@std@@@2@@std@@@std@@QAE@ABV?$allocator@U?$pair@$$CBV?$basic_string@DU?$char_traits@D@std@@V?$allocator@D@2@@std@@UskinInfo@@@std@@@1@@Z 10023990 f i Configuration.obj
 0001:000229e0       ??$?0ABV?$allocator@U?$pair@$$CBV?$basic_string@DU?$char_traits@D@std@@V?$allocator@D@2@@std@@UskinInfo@@@std@@@std@@X@?$_List_buy@U?$pair@$$CBV?$basic_string@DU?$char_traits@D@std@@V?$allocator@D@2@@std@@UskinInfo@@@std@@V?$allocator@U?$pair@$$CBV?$basic_string@DU?$char_traits@D@std@@V?$allocator@D@2@@std@@UskinInfo@@@std@@@2@@std@@QAE@ABV?$allocator@U?$pair@$$CBV?$basic_string@DU?$char_traits@D@std@@V?$allocator@D@2@@std@@UskinInfo@@@std@@@1@@Z 100239e0 f i Configuration.obj
 0001:00022a10       ??$?0ABV?$allocator@U?$pair@$$CBV?$basic_string@DU?$char_traits@D@std@@V?$allocator@D@2@@std@@V12@@std@@@std@@X@?$_List_alloc@U?$_List_base_types@U?$pair@$$CBV?$basic_string@DU?$char_traits@D@std@@V?$allocator@D@2@@std@@V12@@std@@V?$allocator@U?$pair@$$CBV?$basic_string@DU?$char_traits@D@std@@V?$allocator@D@2@@std@@V12@@std@@@2@@std@@@std@@QAE@ABV?$allocator@U?$pair@$$CBV?$basic_string@DU?$char_traits@D@std@@V?$allocator@D@2@@std@@V12@@std@@@1@@Z 10023a10 f i Configuration.obj
 0001:00022a60       ??$?0ABV?$allocator@U?$pair@$$CBV?$basic_string@DU?$char_traits@D@std@@V?$allocator@D@2@@std@@V12@@std@@@std@@X@?$_List_buy@U?$pair@$$CBV?$basic_string@DU?$char_traits@D@std@@V?$allocator@D@2@@std@@V12@@std@@V?$allocator@U?$pair@$$CBV?$basic_string@DU?$char_traits@D@std@@V?$allocator@D@2@@std@@V12@@std@@@2@@std@@QAE@ABV?$allocator@U?$pair@$$CBV?$basic_string@DU?$char_traits@D@std@@V?$allocator@D@2@@std@@V12@@std@@@1@@Z 10023a60 f i Configuration.obj
 0001:00022a90       ??$?0ABV?$allocator@U?$pair@$$CBV?$basic_string@DU?$char_traits@D@std@@V?$allocator@D@2@@std@@V?$set@V?$basic_string@DU?$char_traits@D@std@@V?$allocator@D@2@@std@@U?$less@V?$basic_string@DU?$char_traits@D@std@@V?$allocator@D@2@@std@@@2@V?$allocator@V?$basic_string@DU?$char_traits@D@std@@V?$allocator@D@2@@std@@@2@@2@@std@@@std@@X@?$_List_alloc@U?$_List_base_types@U?$pair@$$CBV?$basic_string@DU?$char_traits@D@std@@V?$allocator@D@2@@std@@V?$set@V?$basic_string@DU?$char_traits@D@std@@V?$allocator@D@2@@std@@U?$less@V?$basic_string@DU?$char_traits@D@std@@V?$allocator@D@2@@std@@@2@V?$allocator@V?$basic_string@DU?$char_traits@D@std@@V?$allocator@D@2@@std@@@2@@2@@std@@V?$allocator@U?$pair@$$CBV?$basic_string@DU?$char_traits@D@std@@V?$allocator@D@2@@std@@V?$set@V?$basic_string@DU?$char_traits@D@std@@V?$allocator@D@2@@std@@U?$less@V?$basic_string@DU?$char_traits@D@std@@V?$allocator@D@2@@std@@@2@V?$allocator@V?$basic_string@DU?$char_traits@D@std@@V?$allocator@D@2@@std@@@2@@2@@std@@@2@@std@@@std@@QAE@ABV?$allocator@U?$pair@$$CBV?$basic_string@DU?$char_traits@D@std@@V?$allocator@D@2@@std@@V?$set@V?$basic_string@DU?$char_traits@D@std@@V?$allocator@D@2@@std@@U?$less@V?$basic_string@DU?$char_traits@D@std@@V?$allocator@D@2@@std@@@2@V?$allocator@V?$basic_string@DU?$char_traits@D@std@@V?$allocator@D@2@@std@@@2@@2@@std@@@1@@Z 10023a90 f i Configuration.obj
 0001:00022ae0       ??$?0ABV?$allocator@U?$pair@$$CBV?$basic_string@DU?$char_traits@D@std@@V?$allocator@D@2@@std@@V?$set@V?$basic_string@DU?$char_traits@D@std@@V?$allocator@D@2@@std@@U?$less@V?$basic_string@DU?$char_traits@D@std@@V?$allocator@D@2@@std@@@2@V?$allocator@V?$basic_string@DU?$char_traits@D@std@@V?$allocator@D@2@@std@@@2@@2@@std@@@std@@X@?$_List_buy@U?$pair@$$CBV?$basic_string@DU?$char_traits@D@std@@V?$allocator@D@2@@std@@V?$set@V?$basic_string@DU?$char_traits@D@std@@V?$allocator@D@2@@std@@U?$less@V?$basic_string@DU?$char_traits@D@std@@V?$allocator@D@2@@std@@@2@V?$allocator@V?$basic_string@DU?$char_traits@D@std@@V?$allocator@D@2@@std@@@2@@2@@std@@V?$allocator@U?$pair@$$CBV?$basic_string@DU?$char_traits@D@std@@V?$allocator@D@2@@std@@V?$set@V?$basic_string@DU?$char_traits@D@std@@V?$allocator@D@2@@std@@U?$less@V?$basic_string@DU?$char_traits@D@std@@V?$allocator@D@2@@std@@@2@V?$allocator@V?$basic_string@DU?$char_traits@D@std@@V?$allocator@D@2@@std@@@2@@2@@std@@@2@@std@@QAE@ABV?$allocator@U?$pair@$$CBV?$basic_string@DU?$char_traits@D@std@@V?$allocator@D@2@@std@@V?$set@V?$basic_string@DU?$char_traits@D@std@@V?$allocator@D@2@@std@@U?$less@V?$basic_string@DU?$char_traits@D@std@@V?$allocator@D@2@@std@@@2@V?$allocator@V?$basic_string@DU?$char_traits@D@std@@V?$allocator@D@2@@std@@@2@@2@@std@@@1@@Z 10023ae0 f i Configuration.obj
 0001:00022b10       ??$?0ABV?$allocator@V?$basic_string@DU?$char_traits@D@std@@V?$allocator@D@2@@std@@@std@@$$V@?$_Compressed_pair@V?$allocator@V?$basic_string@DU?$char_traits@D@std@@V?$allocator@D@2@@std@@@std@@V?$_Vector_val@U?$_Simple_types@V?$basic_string@DU?$char_traits@D@std@@V?$allocator@D@2@@std@@@std@@@2@$00@std@@QAE@U_One_then_variadic_args_t@1@ABV?$allocator@V?$basic_string@DU?$char_traits@D@std@@V?$allocator@D@2@@std@@@1@@Z 10023b10 f i Hooks.obj
 0001:00022b10       ??$?0ABV?$allocator@V?$_List_unchecked_iterator@V?$_List_val@U?$_List_simple_types@U?$pair@$$CBV?$basic_string@DU?$char_traits@D@std@@V?$allocator@D@2@@std@@V?$set@V?$basic_string@DU?$char_traits@D@std@@V?$allocator@D@2@@std@@U?$less@V?$basic_string@DU?$char_traits@D@std@@V?$allocator@D@2@@std@@@2@V?$allocator@V?$basic_string@DU?$char_traits@D@std@@V?$allocator@D@2@@std@@@2@@2@@std@@@std@@@std@@@std@@@std@@$$V@?$_Compressed_pair@V?$allocator@V?$_List_unchecked_iterator@V?$_List_val@U?$_List_simple_types@U?$pair@$$CBV?$basic_string@DU?$char_traits@D@std@@V?$allocator@D@2@@std@@V?$set@V?$basic_string@DU?$char_traits@D@std@@V?$allocator@D@2@@std@@U?$less@V?$basic_string@DU?$char_traits@D@std@@V?$allocator@D@2@@std@@@2@V?$allocator@V?$basic_string@DU?$char_traits@D@std@@V?$allocator@D@2@@std@@@2@@2@@std@@@std@@@std@@@std@@@std@@V?$_Vector_val@U?$_Simple_types@V?$_List_unchecked_iterator@V?$_List_val@U?$_List_simple_types@U?$pair@$$CBV?$basic_string@DU?$char_traits@D@std@@V?$allocator@D@2@@std@@V?$set@V?$basic_string@DU?$char_traits@D@std@@V?$allocator@D@2@@std@@U?$less@V?$basic_string@DU?$char_traits@D@std@@V?$allocator@D@2@@std@@@2@V?$allocator@V?$basic_string@DU?$char_traits@D@std@@V?$allocator@D@2@@std@@@2@@2@@std@@@std@@@std@@@std@@@std@@@2@$00@std@@QAE@U_One_then_variadic_args_t@1@ABV?$allocator@V?$_List_unchecked_iterator@V?$_List_val@U?$_List_simple_types@U?$pair@$$CBV?$basic_string@DU?$char_traits@D@std@@V?$allocator@D@2@@std@@V?$set@V?$basic_string@DU?$char_traits@D@std@@V?$allocator@D@2@@std@@U?$less@V?$basic_string@DU?$char_traits@D@std@@V?$allocator@D@2@@std@@@2@V?$allocator@V?$basic_string@DU?$char_traits@D@std@@V?$allocator@D@2@@std@@@2@@2@@std@@@std@@@std@@@std@@@1@@Z 10023b10 f i Configuration.obj
 0001:00022b10       ??$?0ABV?$allocator@V?$_List_unchecked_iterator@V?$_List_val@U?$_List_simple_types@U?$pair@$$CBV?$basic_string@DU?$char_traits@D@std@@V?$allocator@D@2@@std@@UskinInfo@@@std@@@std@@@std@@@std@@@std@@$$V@?$_Compressed_pair@V?$allocator@V?$_List_unchecked_iterator@V?$_List_val@U?$_List_simple_types@U?$pair@$$CBV?$basic_string@DU?$char_traits@D@std@@V?$allocator@D@2@@std@@UskinInfo@@@std@@@std@@@std@@@std@@@std@@V?$_Vector_val@U?$_Simple_types@V?$_List_unchecked_iterator@V?$_List_val@U?$_List_simple_types@U?$pair@$$CBV?$basic_string@DU?$char_traits@D@std@@V?$allocator@D@2@@std@@UskinInfo@@@std@@@std@@@std@@@std@@@std@@@2@$00@std@@QAE@U_One_then_variadic_args_t@1@ABV?$allocator@V?$_List_unchecked_iterator@V?$_List_val@U?$_List_simple_types@U?$pair@$$CBV?$basic_string@DU?$char_traits@D@std@@V?$allocator@D@2@@std@@UskinInfo@@@std@@@std@@@std@@@std@@@1@@Z 10023b10 f i Configuration.obj
 0001:00022b10       ??$?0ABV?$allocator@V?$_List_unchecked_iterator@V?$_List_val@U?$_List_simple_types@U?$pair@$$CBV?$basic_string@DU?$char_traits@D@std@@V?$allocator@D@2@@std@@V12@@std@@@std@@@std@@@std@@@std@@$$V@?$_Compressed_pair@V?$allocator@V?$_List_unchecked_iterator@V?$_List_val@U?$_List_simple_types@U?$pair@$$CBV?$basic_string@DU?$char_traits@D@std@@V?$allocator@D@2@@std@@V12@@std@@@std@@@std@@@std@@@std@@V?$_Vector_val@U?$_Simple_types@V?$_List_unchecked_iterator@V?$_List_val@U?$_List_simple_types@U?$pair@$$CBV?$basic_string@DU?$char_traits@D@std@@V?$allocator@D@2@@std@@V12@@std@@@std@@@std@@@std@@@std@@@2@$00@std@@QAE@U_One_then_variadic_args_t@1@ABV?$allocator@V?$_List_unchecked_iterator@V?$_List_val@U?$_List_simple_types@U?$pair@$$CBV?$basic_string@DU?$char_traits@D@std@@V?$allocator@D@2@@std@@V12@@std@@@std@@@std@@@std@@@1@@Z 10023b10 f i Configuration.obj
 0001:00022b10       ??$?0V?$allocator@V?$shared_ptr@VNode@valve_parser@@@std@@@std@@$$V@?$_Compressed_pair@V?$allocator@V?$shared_ptr@VNode@valve_parser@@@std@@@std@@V?$_Vector_val@U?$_Simple_types@V?$shared_ptr@VNode@valve_parser@@@std@@@std@@@2@$00@std@@QAE@U_One_then_variadic_args_t@1@$$QAV?$allocator@V?$shared_ptr@VNode@valve_parser@@@std@@@1@@Z 10023b10 f i Hooks.obj
 0001:00022b10       ??$?0V?$allocator@H@std@@$$V@?$_Compressed_pair@V?$allocator@H@std@@V?$_Vector_val@U?$_Simple_types@H@std@@@2@$00@std@@QAE@U_One_then_variadic_args_t@1@$$QAV?$allocator@H@1@@Z 10023b10 f i Utilities.obj
 0001:00022b10       ??$?0ABV?$allocator@H@std@@$$V@?$_Compressed_pair@V?$allocator@H@std@@V?$_Vector_val@U?$_Simple_types@H@std@@@2@$00@std@@QAE@U_One_then_variadic_args_t@1@ABV?$allocator@H@1@@Z 10023b10 f i LegitBot.obj
 0001:00022b10       ??$?0ABV?$allocator@V?$_List_unchecked_iterator@V?$_List_val@U?$_List_simple_types@U?$pair@QADPAD@std@@@std@@@std@@@std@@@std@@$$V@?$_Compressed_pair@V?$allocator@V?$_List_unchecked_iterator@V?$_List_val@U?$_List_simple_types@U?$pair@QADPAD@std@@@std@@@std@@@std@@@std@@V?$_Vector_val@U?$_Simple_types@V?$_List_unchecked_iterator@V?$_List_val@U?$_List_simple_types@U?$pair@QADPAD@std@@@std@@@std@@@std@@@std@@@2@$00@std@@QAE@U_One_then_variadic_args_t@1@ABV?$allocator@V?$_List_unchecked_iterator@V?$_List_val@U?$_List_simple_types@U?$pair@QADPAD@std@@@std@@@std@@@std@@@1@@Z 10023b10 f i Hooks.obj
 0001:00022b40       ??$?0PADX@?$basic_string@DU?$char_traits@D@std@@V?$allocator@D@2@@std@@QAE@PAD0ABV?$allocator@D@1@@Z 10023b40 f i Configuration.obj
 0001:00022bc0       ??$?0V?$allocator@D@std@@X@?$_String_alloc@U?$_String_base_types@DV?$allocator@D@std@@@std@@@std@@QAE@$$QAV?$allocator@D@1@@Z 10023bc0 f i Configuration.obj
 0001:00022bc0       ??$?0ABV?$allocator@D@std@@X@?$_String_alloc@U?$_String_base_types@DV?$allocator@D@std@@@std@@@std@@QAE@ABV?$allocator@D@1@@Z 10023bc0 f i Parser.obj
 0001:00022bf0       ??$?HDU?$char_traits@D@std@@V?$allocator@D@1@@std@@YA?AV?$basic_string@DU?$char_traits@D@std@@V?$allocator@D@2@@0@$$QAV10@0@Z 10023bf0 f i Configuration.obj
 0001:00022ca0       ??$?HDU?$char_traits@D@std@@V?$allocator@D@1@@std@@YA?AV?$basic_string@DU?$char_traits@D@std@@V?$allocator@D@2@@0@$$QAV10@QBD@Z 10023ca0 f i Configuration.obj
 0001:00022ce0       ??$_Destroy_range1@V?$allocator@V?$basic_string@DU?$char_traits@D@std@@V?$allocator@D@2@@std@@@std@@@std@@YAXPAV?$basic_string@DU?$char_traits@D@std@@V?$allocator@D@2@@0@0AAV?$allocator@V?$basic_string@DU?$char_traits@D@std@@V?$allocator@D@2@@std@@@0@U?$integral_constant@_N$0A@@0@@Z 10023ce0 f i Configuration.obj
 0001:00022d20       ??$_Destroy_range@V?$allocator@PAV?$ConfigValue@H@@@std@@@std@@YAXPAPAV?$ConfigValue@H@@0AAV?$allocator@PAV?$ConfigValue@H@@@0@@Z 10023d20 f i Configuration.obj
 0001:00022d20       ??$_Destroy_range@V?$allocator@PAV?$ConfigValue@_N@@@std@@@std@@YAXPAPAV?$ConfigValue@_N@@0AAV?$allocator@PAV?$ConfigValue@_N@@@0@@Z 10023d20 f i Configuration.obj
 0001:00022d20       ??$_Destroy_range@V?$allocator@PAV?$shared_ptr@VNode@valve_parser@@@std@@@std@@@std@@YAXPAPAV?$shared_ptr@VNode@valve_parser@@@0@0AAV?$allocator@PAV?$shared_ptr@VNode@valve_parser@@@std@@@0@@Z 10023d20 f i Hooks.obj
 0001:00022d20       ??$_Destroy_range@V?$allocator@_S@std@@@std@@YAXPA_S0AAV?$allocator@_S@0@@Z 10023d20 f i Parser.obj
 0001:00022d20       ??$_Destroy_range@V?$allocator@VVector@@@std@@@std@@YAXPAVVector@@0AAV?$allocator@VVector@@@0@@Z 10023d20 f i ESP.obj
 0001:00022d20       ??$_Destroy_range@V?$allocator@V?$_List_unchecked_iterator@V?$_List_val@U?$_List_simple_types@U?$pair@QADPAD@std@@@std@@@std@@@std@@@std@@@std@@YAXPAV?$_List_unchecked_iterator@V?$_List_val@U?$_List_simple_types@U?$pair@QADPAD@std@@@std@@@std@@@0@0AAV?$allocator@V?$_List_unchecked_iterator@V?$_List_val@U?$_List_simple_types@U?$pair@QADPAD@std@@@std@@@std@@@std@@@0@@Z 10023d20 f i Hooks.obj
 0001:00022d20       ??$_Destroy_range@V?$allocator@V?$_List_unchecked_iterator@V?$_List_val@U?$_List_simple_types@U?$pair@$$CBV?$basic_string@DU?$char_traits@D@std@@V?$allocator@D@2@@std@@V12@@std@@@std@@@std@@@std@@@std@@@std@@YAXPAV?$_List_unchecked_iterator@V?$_List_val@U?$_List_simple_types@U?$pair@$$CBV?$basic_string@DU?$char_traits@D@std@@V?$allocator@D@2@@std@@V12@@std@@@std@@@std@@@0@0AAV?$allocator@V?$_List_unchecked_iterator@V?$_List_val@U?$_List_simple_types@U?$pair@$$CBV?$basic_string@DU?$char_traits@D@std@@V?$allocator@D@2@@std@@V12@@std@@@std@@@std@@@std@@@0@@Z 10023d20 f i Configuration.obj
 0001:00022d20       ??$_Destroy_range@V?$allocator@V?$_List_unchecked_iterator@V?$_List_val@U?$_List_simple_types@U?$pair@$$CBV?$basic_string@DU?$char_traits@D@std@@V?$allocator@D@2@@std@@V?$set@V?$basic_string@DU?$char_traits@D@std@@V?$allocator@D@2@@std@@U?$less@V?$basic_string@DU?$char_traits@D@std@@V?$allocator@D@2@@std@@@2@V?$allocator@V?$basic_string@DU?$char_traits@D@std@@V?$allocator@D@2@@std@@@2@@2@@std@@@std@@@std@@@std@@@std@@@std@@YAXPAV?$_List_unchecked_iterator@V?$_List_val@U?$_List_simple_types@U?$pair@$$CBV?$basic_string@DU?$char_traits@D@std@@V?$allocator@D@2@@std@@V?$set@V?$basic_string@DU?$char_traits@D@std@@V?$allocator@D@2@@std@@U?$less@V?$basic_string@DU?$char_traits@D@std@@V?$allocator@D@2@@std@@@2@V?$allocator@V?$basic_string@DU?$char_traits@D@std@@V?$allocator@D@2@@std@@@2@@2@@std@@@std@@@std@@@0@0AAV?$allocator@V?$_List_unchecked_iterator@V?$_List_val@U?$_List_simple_types@U?$pair@$$CBV?$basic_string@DU?$char_traits@D@std@@V?$allocator@D@2@@std@@V?$set@V?$basic_string@DU?$char_traits@D@std@@V?$allocator@D@2@@std@@U?$less@V?$basic_string@DU?$char_traits@D@std@@V?$allocator@D@2@@std@@@2@V?$allocator@V?$basic_string@DU?$char_traits@D@std@@V?$allocator@D@2@@std@@@2@@2@@std@@@std@@@std@@@std@@@0@@Z 10023d20 f i Configuration.obj
 0001:00022d20       ??$_Destroy_range@V?$allocator@PAV?$ConfigValue@M@@@std@@@std@@YAXPAPAV?$ConfigValue@M@@0AAV?$allocator@PAV?$ConfigValue@M@@@0@@Z 10023d20 f i Configuration.obj
 0001:00022d20       ??$_Destroy_range@V?$allocator@H@std@@@std@@YAXPAH0AAV?$allocator@H@0@@Z 10023d20 f i LegitBot.obj
 0001:00022d20       ??$_Destroy_range@V?$allocator@PAURecvTable@@@std@@@std@@YAXPAPAURecvTable@@0AAV?$allocator@PAURecvTable@@@0@@Z 10023d20 f i NetVarManager.obj
 0001:00022d20       ??$_Destroy_range@V?$allocator@V?$_List_unchecked_iterator@V?$_List_val@U?$_List_simple_types@U?$pair@$$CBV?$basic_string@DU?$char_traits@D@std@@V?$allocator@D@2@@std@@UskinInfo@@@std@@@std@@@std@@@std@@@std@@@std@@YAXPAV?$_List_unchecked_iterator@V?$_List_val@U?$_List_simple_types@U?$pair@$$CBV?$basic_string@DU?$char_traits@D@std@@V?$allocator@D@2@@std@@UskinInfo@@@std@@@std@@@std@@@0@0AAV?$allocator@V?$_List_unchecked_iterator@V?$_List_val@U?$_List_simple_types@U?$pair@$$CBV?$basic_string@DU?$char_traits@D@std@@V?$allocator@D@2@@std@@UskinInfo@@@std@@@std@@@std@@@std@@@0@@Z 10023d20 f i Configuration.obj
 0001:00022d50       ??$_Destroy_range@V?$allocator@V?$basic_string@DU?$char_traits@D@std@@V?$allocator@D@2@@std@@@std@@@std@@YAXPAV?$basic_string@DU?$char_traits@D@std@@V?$allocator@D@2@@0@0AAV?$allocator@V?$basic_string@DU?$char_traits@D@std@@V?$allocator@D@2@@std@@@0@@Z 10023d50 f i Configuration.obj
 0001:00022d80       ??$_Emplace_back_with_unused_capacity@PAV?$ConfigValue@M@@@?$vector@PAV?$ConfigValue@M@@V?$allocator@PAV?$ConfigValue@M@@@std@@@std@@AAEX$$QAPAV?$ConfigValue@M@@@Z 10023d80 f i Configuration.obj
 0001:00022d80       ??$_Emplace_back_with_unused_capacity@PAV?$ConfigValue@H@@@?$vector@PAV?$ConfigValue@H@@V?$allocator@PAV?$ConfigValue@H@@@std@@@std@@AAEX$$QAPAV?$ConfigValue@H@@@Z 10023d80 f i Configuration.obj
 0001:00022d80       ??$_Emplace_back_with_unused_capacity@PAV?$ConfigValue@_N@@@?$vector@PAV?$ConfigValue@_N@@V?$allocator@PAV?$ConfigValue@_N@@@std@@@std@@AAEX$$QAPAV?$ConfigValue@_N@@@Z 10023d80 f i Configuration.obj
 0001:00022d80       ??$_Emplace_back_with_unused_capacity@H@?$vector@HV?$allocator@H@std@@@std@@AAEX$$QAH@Z 10023d80 f i RageBot.obj
 0001:00022d80       ??$_Emplace_back_with_unused_capacity@ABQAURecvTable@@@?$vector@PAURecvTable@@V?$allocator@PAURecvTable@@@std@@@std@@AAEXABQAURecvTable@@@Z 10023d80 f i NetVarManager.obj
 0001:00022e00       ??$_Fill_unchecked1@PAV?$_List_unchecked_iterator@V?$_List_val@U?$_List_simple_types@U?$pair@QADPAD@std@@@std@@@std@@@std@@V12@@std@@YAXPAV?$_List_unchecked_iterator@V?$_List_val@U?$_List_simple_types@U?$pair@QADPAD@std@@@std@@@std@@@0@0ABV10@U?$integral_constant@_N$0A@@0@@Z 10023e00 f i Hooks.obj
 0001:00022e00       ??$_Fill_unchecked1@PAV?$_List_unchecked_iterator@V?$_List_val@U?$_List_simple_types@U?$pair@$$CBV?$basic_string@DU?$char_traits@D@std@@V?$allocator@D@2@@std@@V?$set@V?$basic_string@DU?$char_traits@D@std@@V?$allocator@D@2@@std@@U?$less@V?$basic_string@DU?$char_traits@D@std@@V?$allocator@D@2@@std@@@2@V?$allocator@V?$basic_string@DU?$char_traits@D@std@@V?$allocator@D@2@@std@@@2@@2@@std@@@std@@@std@@@std@@V12@@std@@YAXPAV?$_List_unchecked_iterator@V?$_List_val@U?$_List_simple_types@U?$pair@$$CBV?$basic_string@DU?$char_traits@D@std@@V?$allocator@D@2@@std@@V?$set@V?$basic_string@DU?$char_traits@D@std@@V?$allocator@D@2@@std@@U?$less@V?$basic_string@DU?$char_traits@D@std@@V?$allocator@D@2@@std@@@2@V?$allocator@V?$basic_string@DU?$char_traits@D@std@@V?$allocator@D@2@@std@@@2@@2@@std@@@std@@@std@@@0@0ABV10@U?$integral_constant@_N$0A@@0@@Z 10023e00 f i Configuration.obj
 0001:00022e00       ??$_Fill_unchecked1@PAV?$_List_unchecked_iterator@V?$_List_val@U?$_List_simple_types@U?$pair@$$CBV?$basic_string@DU?$char_traits@D@std@@V?$allocator@D@2@@std@@V12@@std@@@std@@@std@@@std@@V12@@std@@YAXPAV?$_List_unchecked_iterator@V?$_List_val@U?$_List_simple_types@U?$pair@$$CBV?$basic_string@DU?$char_traits@D@std@@V?$allocator@D@2@@std@@V12@@std@@@std@@@std@@@0@0ABV10@U?$integral_constant@_N$0A@@0@@Z 10023e00 f i Configuration.obj
 0001:00022e00       ??$_Fill_unchecked1@PAV?$_List_unchecked_iterator@V?$_List_val@U?$_List_simple_types@U?$pair@$$CBV?$basic_string@DU?$char_traits@D@std@@V?$allocator@D@2@@std@@UskinInfo@@@std@@@std@@@std@@@std@@V12@@std@@YAXPAV?$_List_unchecked_iterator@V?$_List_val@U?$_List_simple_types@U?$pair@$$CBV?$basic_string@DU?$char_traits@D@std@@V?$allocator@D@2@@std@@UskinInfo@@@std@@@std@@@std@@@0@0ABV10@U?$integral_constant@_N$0A@@0@@Z 10023e00 f i Configuration.obj
 0001:00022e30       ??$_Fill_unchecked@PAV?$_List_unchecked_iterator@V?$_List_val@U?$_List_simple_types@U?$pair@QADPAD@std@@@std@@@std@@@std@@V12@@std@@YAXPAV?$_List_unchecked_iterator@V?$_List_val@U?$_List_simple_types@U?$pair@QADPAD@std@@@std@@@std@@@0@0ABV10@@Z 10023e30 f i Hooks.obj
 0001:00022e30       ??$_Fill_unchecked@PAV?$_List_unchecked_iterator@V?$_List_val@U?$_List_simple_types@U?$pair@$$CBV?$basic_string@DU?$char_traits@D@std@@V?$allocator@D@2@@std@@V12@@std@@@std@@@std@@@std@@V12@@std@@YAXPAV?$_List_unchecked_iterator@V?$_List_val@U?$_List_simple_types@U?$pair@$$CBV?$basic_string@DU?$char_traits@D@std@@V?$allocator@D@2@@std@@V12@@std@@@std@@@std@@@0@0ABV10@@Z 10023e30 f i Configuration.obj
 0001:00022e30       ??$_Fill_unchecked@PAV?$_List_unchecked_iterator@V?$_List_val@U?$_List_simple_types@U?$pair@$$CBV?$basic_string@DU?$char_traits@D@std@@V?$allocator@D@2@@std@@UskinInfo@@@std@@@std@@@std@@@std@@V12@@std@@YAXPAV?$_List_unchecked_iterator@V?$_List_val@U?$_List_simple_types@U?$pair@$$CBV?$basic_string@DU?$char_traits@D@std@@V?$allocator@D@2@@std@@UskinInfo@@@std@@@std@@@std@@@0@0ABV10@@Z 10023e30 f i Configuration.obj
 0001:00022e30       ??$_Fill_unchecked@PAV?$_List_unchecked_iterator@V?$_List_val@U?$_List_simple_types@U?$pair@$$CBV?$basic_string@DU?$char_traits@D@std@@V?$allocator@D@2@@std@@V?$set@V?$basic_string@DU?$char_traits@D@std@@V?$allocator@D@2@@std@@U?$less@V?$basic_string@DU?$char_traits@D@std@@V?$allocator@D@2@@std@@@2@V?$allocator@V?$basic_string@DU?$char_traits@D@std@@V?$allocator@D@2@@std@@@2@@2@@std@@@std@@@std@@@std@@V12@@std@@YAXPAV?$_List_unchecked_iterator@V?$_List_val@U?$_List_simple_types@U?$pair@$$CBV?$basic_string@DU?$char_traits@D@std@@V?$allocator@D@2@@std@@V?$set@V?$basic_string@DU?$char_traits@D@std@@V?$allocator@D@2@@std@@U?$less@V?$basic_string@DU?$char_traits@D@std@@V?$allocator@D@2@@std@@@2@V?$allocator@V?$basic_string@DU?$char_traits@D@std@@V?$allocator@D@2@@std@@@2@@2@@std@@@std@@@std@@@0@0ABV10@@Z 10023e30 f i Configuration.obj
 0001:00022e70       ??$_Floating_to_string@M@std@@YA?AV?$basic_string@DU?$char_traits@D@std@@V?$allocator@D@2@@0@PBDM@Z 10023e70 f i Configuration.obj
 0001:00022f40       ??$_Integral_to_string@DH@std@@YA?AV?$basic_string@DU?$char_traits@D@std@@V?$allocator@D@2@@0@H@Z 10023f40 f i Configuration.obj
 0001:00022fd0       ??$_Pocca@V?$allocator@D@std@@@std@@YAXAAV?$allocator@D@0@ABV10@@Z 10023fd0 f i Configuration.obj
 0001:00022ff0       ??$_Pocma@V?$allocator@D@std@@@std@@YAXAAV?$allocator@D@0@0@Z 10023ff0 f i Configuration.obj
 0001:00023010       ??$_Pocma@V?$allocator@D@std@@@std@@YAXAAV?$allocator@D@0@0U?$integral_constant@_N$00@0@@Z 10024010 f i Configuration.obj
 0001:000234b0       ??$_Rechecked@PAV?$basic_string@DU?$char_traits@D@std@@V?$allocator@D@2@@std@@PAV12@@std@@YAAAPAV?$basic_string@DU?$char_traits@D@std@@V?$allocator@D@2@@0@AAPAV10@PAV10@@Z 100244b0 f i Hooks.obj
 0001:000234b0       ??$_Rechecked@PAHPAH@std@@YAAAPAHAAPAHPAH@Z 100244b0 f i LegitBot.obj
 0001:000234b0       ??$_Rechecked@PAV?$_List_unchecked_iterator@V?$_List_val@U?$_List_simple_types@U?$pair@$$CBV?$basic_string@DU?$char_traits@D@std@@V?$allocator@D@2@@std@@V?$set@V?$basic_string@DU?$char_traits@D@std@@V?$allocator@D@2@@std@@U?$less@V?$basic_string@DU?$char_traits@D@std@@V?$allocator@D@2@@std@@@2@V?$allocator@V?$basic_string@DU?$char_traits@D@std@@V?$allocator@D@2@@std@@@2@@2@@std@@@std@@@std@@@std@@PAV12@@std@@YAAAPAV?$_List_unchecked_iterator@V?$_List_val@U?$_List_simple_types@U?$pair@$$CBV?$basic_string@DU?$char_traits@D@std@@V?$allocator@D@2@@std@@V?$set@V?$basic_string@DU?$char_traits@D@std@@V?$allocator@D@2@@std@@U?$less@V?$basic_string@DU?$char_traits@D@std@@V?$allocator@D@2@@std@@@2@V?$allocator@V?$basic_string@DU?$char_traits@D@std@@V?$allocator@D@2@@std@@@2@@2@@std@@@std@@@std@@@0@AAPAV10@PAV10@@Z 100244b0 f i Configuration.obj
 0001:000234b0       ??$_Rechecked@PA_SPA_S@std@@YAAAPA_SAAPA_SPA_S@Z 100244b0 f i Parser.obj
 0001:000234b0       ??$_Rechecked@PAPAURecvTable@@PAPAU1@@std@@YAAAPAPAURecvTable@@AAPAPAU1@PAPAU1@@Z 100244b0 f i NetVarManager.obj
 0001:000234b0       ??$_Rechecked@PAVVector@@PAV1@@std@@YAAAPAVVector@@AAPAV1@PAV1@@Z 100244b0 f i GrenadePrediction.obj
 0001:000234b0       ??$_Rechecked@PAPAV?$ConfigValue@_N@@PAPAV1@@std@@YAAAPAPAV?$ConfigValue@_N@@AAPAPAV1@PAPAV1@@Z 100244b0 f i Configuration.obj
 0001:000234b0       ??$_Rechecked@PAPAV?$ConfigValue@M@@PAPAV1@@std@@YAAAPAPAV?$ConfigValue@M@@AAPAPAV1@PAPAV1@@Z 100244b0 f i Configuration.obj
 0001:000234b0       ??$_Rechecked@PAPAV?$ConfigValue@H@@PAPAV1@@std@@YAAAPAPAV?$ConfigValue@H@@AAPAPAV1@PAPAV1@@Z 100244b0 f i Configuration.obj
 0001:000234b0       ??$_Rechecked@PAPAV?$shared_ptr@VNode@valve_parser@@@std@@PAPAV12@@std@@YAAAPAPAV?$shared_ptr@VNode@valve_parser@@@0@AAPAPAV10@PAPAV10@@Z 100244b0 f i Hooks.obj
 0001:000234b0       ??$_Rechecked@PAV?$_List_unchecked_iterator@V?$_List_val@U?$_List_simple_types@U?$pair@QADPAD@std@@@std@@@std@@@std@@PAV12@@std@@YAAAPAV?$_List_unchecked_iterator@V?$_List_val@U?$_List_simple_types@U?$pair@QADPAD@std@@@std@@@std@@@0@AAPAV10@PAV10@@Z 100244b0 f i Hooks.obj
 0001:000234b0       ??$_Rechecked@PAV?$_List_unchecked_iterator@V?$_List_val@U?$_List_simple_types@U?$pair@$$CBV?$basic_string@DU?$char_traits@D@std@@V?$allocator@D@2@@std@@UskinInfo@@@std@@@std@@@std@@@std@@PAV12@@std@@YAAAPAV?$_List_unchecked_iterator@V?$_List_val@U?$_List_simple_types@U?$pair@$$CBV?$basic_string@DU?$char_traits@D@std@@V?$allocator@D@2@@std@@UskinInfo@@@std@@@std@@@std@@@0@AAPAV10@PAV10@@Z 100244b0 f i Configuration.obj
 0001:000234b0       ??$_Rechecked@V?$_String_val@U?$_Simple_types@D@std@@@std@@@std@@YAAAV?$_String_iterator@V?$_String_val@U?$_Simple_types@D@std@@@std@@@0@AAV10@QAD@Z 100244b0 f i Hooks.obj
 0001:000234b0       ??$_Rechecked@PAV?$shared_ptr@VNode@valve_parser@@@std@@PAV12@@std@@YAAAPAV?$shared_ptr@VNode@valve_parser@@@0@AAPAV10@PAV10@@Z 100244b0 f i Parser.obj
 0001:000234b0       ??$_Rechecked@PAV?$_List_unchecked_iterator@V?$_List_val@U?$_List_simple_types@U?$pair@$$CBV?$basic_string@DU?$char_traits@D@std@@V?$allocator@D@2@@std@@V12@@std@@@std@@@std@@@std@@PAV12@@std@@YAAAPAV?$_List_unchecked_iterator@V?$_List_val@U?$_List_simple_types@U?$pair@$$CBV?$basic_string@DU?$char_traits@D@std@@V?$allocator@D@2@@std@@V12@@std@@@std@@@std@@@0@AAPAV10@PAV10@@Z 100244b0 f i Configuration.obj
 0001:000234c0       ??$_UIntegral_to_buff@DI@std@@YAPADPADI@Z 100244c0 f i Configuration.obj
 0001:00023580       ??$_Uninit_alloc_fill_n1@PAV?$_List_unchecked_iterator@V?$_List_val@U?$_List_simple_types@U?$pair@QADPAD@std@@@std@@@std@@@std@@IV?$allocator@V?$_List_unchecked_iterator@V?$_List_val@U?$_List_simple_types@U?$pair@QADPAD@std@@@std@@@std@@@std@@@2@@std@@YAPAV?$_List_unchecked_iterator@V?$_List_val@U?$_List_simple_types@U?$pair@QADPAD@std@@@std@@@std@@@0@PAV10@IABV10@AAV?$allocator@V?$_List_unchecked_iterator@V?$_List_val@U?$_List_simple_types@U?$pair@QADPAD@std@@@std@@@std@@@std@@@0@U?$integral_constant@_N$0A@@0@@Z 10024580 f i Hooks.obj
 0001:00023580       ??$_Uninit_alloc_fill_n1@PAV?$_List_unchecked_iterator@V?$_List_val@U?$_List_simple_types@U?$pair@$$CBV?$basic_string@DU?$char_traits@D@std@@V?$allocator@D@2@@std@@UskinInfo@@@std@@@std@@@std@@@std@@IV?$allocator@V?$_List_unchecked_iterator@V?$_List_val@U?$_List_simple_types@U?$pair@$$CBV?$basic_string@DU?$char_traits@D@std@@V?$allocator@D@2@@std@@UskinInfo@@@std@@@std@@@std@@@std@@@2@@std@@YAPAV?$_List_unchecked_iterator@V?$_List_val@U?$_List_simple_types@U?$pair@$$CBV?$basic_string@DU?$char_traits@D@std@@V?$allocator@D@2@@std@@UskinInfo@@@std@@@std@@@std@@@0@PAV10@IABV10@AAV?$allocator@V?$_List_unchecked_iterator@V?$_List_val@U?$_List_simple_types@U?$pair@$$CBV?$basic_string@DU?$char_traits@D@std@@V?$allocator@D@2@@std@@UskinInfo@@@std@@@std@@@std@@@std@@@0@U?$integral_constant@_N$0A@@0@@Z 10024580 f i Configuration.obj
 0001:00023580       ??$_Uninit_alloc_fill_n1@PAV?$_List_unchecked_iterator@V?$_List_val@U?$_List_simple_types@U?$pair@$$CBV?$basic_string@DU?$char_traits@D@std@@V?$allocator@D@2@@std@@V?$set@V?$basic_string@DU?$char_traits@D@std@@V?$allocator@D@2@@std@@U?$less@V?$basic_string@DU?$char_traits@D@std@@V?$allocator@D@2@@std@@@2@V?$allocator@V?$basic_string@DU?$char_traits@D@std@@V?$allocator@D@2@@std@@@2@@2@@std@@@std@@@std@@@std@@IV?$allocator@V?$_List_unchecked_iterator@V?$_List_val@U?$_List_simple_types@U?$pair@$$CBV?$basic_string@DU?$char_traits@D@std@@V?$allocator@D@2@@std@@V?$set@V?$basic_string@DU?$char_traits@D@std@@V?$allocator@D@2@@std@@U?$less@V?$basic_string@DU?$char_traits@D@std@@V?$allocator@D@2@@std@@@2@V?$allocator@V?$basic_string@DU?$char_traits@D@std@@V?$allocator@D@2@@std@@@2@@2@@std@@@std@@@std@@@std@@@2@@std@@YAPAV?$_List_unchecked_iterator@V?$_List_val@U?$_List_simple_types@U?$pair@$$CBV?$basic_string@DU?$char_traits@D@std@@V?$allocator@D@2@@std@@V?$set@V?$basic_string@DU?$char_traits@D@std@@V?$allocator@D@2@@std@@U?$less@V?$basic_string@DU?$char_traits@D@std@@V?$allocator@D@2@@std@@@2@V?$allocator@V?$basic_string@DU?$char_traits@D@std@@V?$allocator@D@2@@std@@@2@@2@@std@@@std@@@std@@@0@PAV10@IABV10@AAV?$allocator@V?$_List_unchecked_iterator@V?$_List_val@U?$_List_simple_types@U?$pair@$$CBV?$basic_string@DU?$char_traits@D@std@@V?$allocator@D@2@@std@@V?$set@V?$basic_string@DU?$char_traits@D@std@@V?$allocator@D@2@@std@@U?$less@V?$basic_string@DU?$char_traits@D@std@@V?$allocator@D@2@@std@@@2@V?$allocator@V?$basic_string@DU?$char_traits@D@std@@V?$allocator@D@2@@std@@@2@@2@@std@@@std@@@std@@@std@@@0@U?$integral_constant@_N$0A@@0@@Z 10024580 f i Configuration.obj
 0001:00023580       ??$_Uninit_alloc_fill_n1@PAV?$_List_unchecked_iterator@V?$_List_val@U?$_List_simple_types@U?$pair@$$CBV?$basic_string@DU?$char_traits@D@std@@V?$allocator@D@2@@std@@V12@@std@@@std@@@std@@@std@@IV?$allocator@V?$_List_unchecked_iterator@V?$_List_val@U?$_List_simple_types@U?$pair@$$CBV?$basic_string@DU?$char_traits@D@std@@V?$allocator@D@2@@std@@V12@@std@@@std@@@std@@@std@@@2@@std@@YAPAV?$_List_unchecked_iterator@V?$_List_val@U?$_List_simple_types@U?$pair@$$CBV?$basic_string@DU?$char_traits@D@std@@V?$allocator@D@2@@std@@V12@@std@@@std@@@std@@@0@PAV10@IABV10@AAV?$allocator@V?$_List_unchecked_iterator@V?$_List_val@U?$_List_simple_types@U?$pair@$$CBV?$basic_string@DU?$char_traits@D@std@@V?$allocator@D@2@@std@@V12@@std@@@std@@@std@@@std@@@0@U?$integral_constant@_N$0A@@0@@Z 10024580 f i Configuration.obj
 0001:00023640       ??$_Uninitialized_fill_n@PAV?$_List_unchecked_iterator@V?$_List_val@U?$_List_simple_types@U?$pair@$$CBV?$basic_string@DU?$char_traits@D@std@@V?$allocator@D@2@@std@@V?$set@V?$basic_string@DU?$char_traits@D@std@@V?$allocator@D@2@@std@@U?$less@V?$basic_string@DU?$char_traits@D@std@@V?$allocator@D@2@@std@@@2@V?$allocator@V?$basic_string@DU?$char_traits@D@std@@V?$allocator@D@2@@std@@@2@@2@@std@@@std@@@std@@@std@@IV?$allocator@V?$_List_unchecked_iterator@V?$_List_val@U?$_List_simple_types@U?$pair@$$CBV?$basic_string@DU?$char_traits@D@std@@V?$allocator@D@2@@std@@V?$set@V?$basic_string@DU?$char_traits@D@std@@V?$allocator@D@2@@std@@U?$less@V?$basic_string@DU?$char_traits@D@std@@V?$allocator@D@2@@std@@@2@V?$allocator@V?$basic_string@DU?$char_traits@D@std@@V?$allocator@D@2@@std@@@2@@2@@std@@@std@@@std@@@std@@@2@@std@@YAPAV?$_List_unchecked_iterator@V?$_List_val@U?$_List_simple_types@U?$pair@$$CBV?$basic_string@DU?$char_traits@D@std@@V?$allocator@D@2@@std@@V?$set@V?$basic_string@DU?$char_traits@D@std@@V?$allocator@D@2@@std@@U?$less@V?$basic_string@DU?$char_traits@D@std@@V?$allocator@D@2@@std@@@2@V?$allocator@V?$basic_string@DU?$char_traits@D@std@@V?$allocator@D@2@@std@@@2@@2@@std@@@std@@@std@@@0@PAV10@IABV10@AAV?$allocator@V?$_List_unchecked_iterator@V?$_List_val@U?$_List_simple_types@U?$pair@$$CBV?$basic_string@DU?$char_traits@D@std@@V?$allocator@D@2@@std@@V?$set@V?$basic_string@DU?$char_traits@D@std@@V?$allocator@D@2@@std@@U?$less@V?$basic_string@DU?$char_traits@D@std@@V?$allocator@D@2@@std@@@2@V?$allocator@V?$basic_string@DU?$char_traits@D@std@@V?$allocator@D@2@@std@@@2@@2@@std@@@std@@@std@@@std@@@0@@Z 10024640 f i Configuration.obj
 0001:00023640       ??$_Uninitialized_fill_n@PAV?$_List_unchecked_iterator@V?$_List_val@U?$_List_simple_types@U?$pair@$$CBV?$basic_string@DU?$char_traits@D@std@@V?$allocator@D@2@@std@@V12@@std@@@std@@@std@@@std@@IV?$allocator@V?$_List_unchecked_iterator@V?$_List_val@U?$_List_simple_types@U?$pair@$$CBV?$basic_string@DU?$char_traits@D@std@@V?$allocator@D@2@@std@@V12@@std@@@std@@@std@@@std@@@2@@std@@YAPAV?$_List_unchecked_iterator@V?$_List_val@U?$_List_simple_types@U?$pair@$$CBV?$basic_string@DU?$char_traits@D@std@@V?$allocator@D@2@@std@@V12@@std@@@std@@@std@@@0@PAV10@IABV10@AAV?$allocator@V?$_List_unchecked_iterator@V?$_List_val@U?$_List_simple_types@U?$pair@$$CBV?$basic_string@DU?$char_traits@D@std@@V?$allocator@D@2@@std@@V12@@std@@@std@@@std@@@std@@@0@@Z 10024640 f i Configuration.obj
 0001:00023640       ??$_Uninitialized_fill_n@PAV?$_List_unchecked_iterator@V?$_List_val@U?$_List_simple_types@U?$pair@$$CBV?$basic_string@DU?$char_traits@D@std@@V?$allocator@D@2@@std@@UskinInfo@@@std@@@std@@@std@@@std@@IV?$allocator@V?$_List_unchecked_iterator@V?$_List_val@U?$_List_simple_types@U?$pair@$$CBV?$basic_string@DU?$char_traits@D@std@@V?$allocator@D@2@@std@@UskinInfo@@@std@@@std@@@std@@@std@@@2@@std@@YAPAV?$_List_unchecked_iterator@V?$_List_val@U?$_List_simple_types@U?$pair@$$CBV?$basic_string@DU?$char_traits@D@std@@V?$allocator@D@2@@std@@UskinInfo@@@std@@@std@@@std@@@0@PAV10@IABV10@AAV?$allocator@V?$_List_unchecked_iterator@V?$_List_val@U?$_List_simple_types@U?$pair@$$CBV?$basic_string@DU?$char_traits@D@std@@V?$allocator@D@2@@std@@UskinInfo@@@std@@@std@@@std@@@std@@@0@@Z 10024640 f i Configuration.obj
 0001:00023640       ??$_Uninitialized_fill_n@PAV?$_List_unchecked_iterator@V?$_List_val@U?$_List_simple_types@U?$pair@QADPAD@std@@@std@@@std@@@std@@IV?$allocator@V?$_List_unchecked_iterator@V?$_List_val@U?$_List_simple_types@U?$pair@QADPAD@std@@@std@@@std@@@std@@@2@@std@@YAPAV?$_List_unchecked_iterator@V?$_List_val@U?$_List_simple_types@U?$pair@QADPAD@std@@@std@@@std@@@0@PAV10@IABV10@AAV?$allocator@V?$_List_unchecked_iterator@V?$_List_val@U?$_List_simple_types@U?$pair@QADPAD@std@@@std@@@std@@@std@@@0@@Z 10024640 f i Hooks.obj
 0001:00023670       ??$_Uninitialized_move@PAHPAHV?$allocator@H@std@@@std@@YAPAHPAH00AAV?$allocator@H@0@@Z 10024670 f i RageBot.obj
 0001:00023670       ??$_Uninitialized_move@PAPAV?$ConfigValue@H@@PAPAV1@V?$allocator@PAV?$ConfigValue@H@@@std@@@std@@YAPAPAV?$ConfigValue@H@@PAPAV1@00AAV?$allocator@PAV?$ConfigValue@H@@@0@@Z 10024670 f i Configuration.obj
 0001:00023670       ??$_Uninitialized_move@PAPAV?$ConfigValue@M@@PAPAV1@V?$allocator@PAV?$ConfigValue@M@@@std@@@std@@YAPAPAV?$ConfigValue@M@@PAPAV1@00AAV?$allocator@PAV?$ConfigValue@M@@@0@@Z 10024670 f i Configuration.obj
 0001:00023670       ??$_Uninitialized_move@PA_SPA_SV?$allocator@_S@std@@@std@@YAPA_SPA_S00AAV?$allocator@_S@0@@Z 10024670 f i Parser.obj
 0001:00023670       ??$_Uninitialized_move@PAPAV?$ConfigValue@_N@@PAPAV1@V?$allocator@PAV?$ConfigValue@_N@@@std@@@std@@YAPAPAV?$ConfigValue@_N@@PAPAV1@00AAV?$allocator@PAV?$ConfigValue@_N@@@0@@Z 10024670 f i Configuration.obj
 0001:00023670       ??$_Uninitialized_move@PAPAURecvTable@@PAPAU1@V?$allocator@PAURecvTable@@@std@@@std@@YAPAPAURecvTable@@PAPAU1@00AAV?$allocator@PAURecvTable@@@0@@Z 10024670 f i NetVarManager.obj
 0001:00023670       ??$_Uninitialized_copy@PAPAV?$shared_ptr@VNode@valve_parser@@@std@@PAPAV12@V?$allocator@PAV?$shared_ptr@VNode@valve_parser@@@std@@@2@@std@@YAPAPAV?$shared_ptr@VNode@valve_parser@@@0@PAPAV10@00AAV?$allocator@PAV?$shared_ptr@VNode@valve_parser@@@std@@@0@@Z 10024670 f i Hooks.obj
 0001:00023670       ??$_Uninitialized_copy@PBHPAHV?$allocator@H@std@@@std@@YAPAHPBH0PAHAAV?$allocator@H@0@@Z 10024670 f i LegitBot.obj
 0001:000236f0       ??$_Uninitialized_move@PAV?$_List_unchecked_iterator@V?$_List_val@U?$_List_simple_types@U?$pair@QADPAD@std@@@std@@@std@@@std@@PAV12@V?$allocator@V?$_List_unchecked_iterator@V?$_List_val@U?$_List_simple_types@U?$pair@QADPAD@std@@@std@@@std@@@std@@@2@@std@@YAPAV?$_List_unchecked_iterator@V?$_List_val@U?$_List_simple_types@U?$pair@QADPAD@std@@@std@@@std@@@0@PAV10@00AAV?$allocator@V?$_List_unchecked_iterator@V?$_List_val@U?$_List_simple_types@U?$pair@QADPAD@std@@@std@@@std@@@std@@@0@@Z 100246f0 f i Hooks.obj
 0001:000236f0       ??$_Uninitialized_move@PAV?$_List_unchecked_iterator@V?$_List_val@U?$_List_simple_types@U?$pair@$$CBV?$basic_string@DU?$char_traits@D@std@@V?$allocator@D@2@@std@@UskinInfo@@@std@@@std@@@std@@@std@@PAV12@V?$allocator@V?$_List_unchecked_iterator@V?$_List_val@U?$_List_simple_types@U?$pair@$$CBV?$basic_string@DU?$char_traits@D@std@@V?$allocator@D@2@@std@@UskinInfo@@@std@@@std@@@std@@@std@@@2@@std@@YAPAV?$_List_unchecked_iterator@V?$_List_val@U?$_List_simple_types@U?$pair@$$CBV?$basic_string@DU?$char_traits@D@std@@V?$allocator@D@2@@std@@UskinInfo@@@std@@@std@@@std@@@0@PAV10@00AAV?$allocator@V?$_List_unchecked_iterator@V?$_List_val@U?$_List_simple_types@U?$pair@$$CBV?$basic_string@DU?$char_traits@D@std@@V?$allocator@D@2@@std@@UskinInfo@@@std@@@std@@@std@@@std@@@0@@Z 100246f0 f i Configuration.obj
 0001:000236f0       ??$_Uninitialized_move@PAV?$_List_unchecked_iterator@V?$_List_val@U?$_List_simple_types@U?$pair@$$CBV?$basic_string@DU?$char_traits@D@std@@V?$allocator@D@2@@std@@V12@@std@@@std@@@std@@@std@@PAV12@V?$allocator@V?$_List_unchecked_iterator@V?$_List_val@U?$_List_simple_types@U?$pair@$$CBV?$basic_string@DU?$char_traits@D@std@@V?$allocator@D@2@@std@@V12@@std@@@std@@@std@@@std@@@2@@std@@YAPAV?$_List_unchecked_iterator@V?$_List_val@U?$_List_simple_types@U?$pair@$$CBV?$basic_string@DU?$char_traits@D@std@@V?$allocator@D@2@@std@@V12@@std@@@std@@@std@@@0@PAV10@00AAV?$allocator@V?$_List_unchecked_iterator@V?$_List_val@U?$_List_simple_types@U?$pair@$$CBV?$basic_string@DU?$char_traits@D@std@@V?$allocator@D@2@@std@@V12@@std@@@std@@@std@@@std@@@0@@Z 100246f0 f i Configuration.obj
 0001:000236f0       ??$_Uninitialized_move@PAV?$_List_unchecked_iterator@V?$_List_val@U?$_List_simple_types@U?$pair@$$CBV?$basic_string@DU?$char_traits@D@std@@V?$allocator@D@2@@std@@V?$set@V?$basic_string@DU?$char_traits@D@std@@V?$allocator@D@2@@std@@U?$less@V?$basic_string@DU?$char_traits@D@std@@V?$allocator@D@2@@std@@@2@V?$allocator@V?$basic_string@DU?$char_traits@D@std@@V?$allocator@D@2@@std@@@2@@2@@std@@@std@@@std@@@std@@PAV12@V?$allocator@V?$_List_unchecked_iterator@V?$_List_val@U?$_List_simple_types@U?$pair@$$CBV?$basic_string@DU?$char_traits@D@std@@V?$allocator@D@2@@std@@V?$set@V?$basic_string@DU?$char_traits@D@std@@V?$allocator@D@2@@std@@U?$less@V?$basic_string@DU?$char_traits@D@std@@V?$allocator@D@2@@std@@@2@V?$allocator@V?$basic_string@DU?$char_traits@D@std@@V?$allocator@D@2@@std@@@2@@2@@std@@@std@@@std@@@std@@@2@@std@@YAPAV?$_List_unchecked_iterator@V?$_List_val@U?$_List_simple_types@U?$pair@$$CBV?$basic_string@DU?$char_traits@D@std@@V?$allocator@D@2@@std@@V?$set@V?$basic_string@DU?$char_traits@D@std@@V?$allocator@D@2@@std@@U?$less@V?$basic_string@DU?$char_traits@D@std@@V?$allocator@D@2@@std@@@2@V?$allocator@V?$basic_string@DU?$char_traits@D@std@@V?$allocator@D@2@@std@@@2@@2@@std@@@std@@@std@@@0@PAV10@00AAV?$allocator@V?$_List_unchecked_iterator@V?$_List_val@U?$_List_simple_types@U?$pair@$$CBV?$basic_string@DU?$char_traits@D@std@@V?$allocator@D@2@@std@@V?$set@V?$basic_string@DU?$char_traits@D@std@@V?$allocator@D@2@@std@@U?$less@V?$basic_string@DU?$char_traits@D@std@@V?$allocator@D@2@@std@@@2@V?$allocator@V?$basic_string@DU?$char_traits@D@std@@V?$allocator@D@2@@std@@@2@@2@@std@@@std@@@std@@@std@@@0@@Z 100246f0 f i Configuration.obj
 0001:00023780       ??$_Uninitialized_move_al_unchecked@PAV?$_List_unchecked_iterator@V?$_List_val@U?$_List_simple_types@U?$pair@$$CBV?$basic_string@DU?$char_traits@D@std@@V?$allocator@D@2@@std@@UskinInfo@@@std@@@std@@@std@@@std@@PAV12@V?$allocator@V?$_List_unchecked_iterator@V?$_List_val@U?$_List_simple_types@U?$pair@$$CBV?$basic_string@DU?$char_traits@D@std@@V?$allocator@D@2@@std@@UskinInfo@@@std@@@std@@@std@@@std@@@2@@std@@YAPAV?$_List_unchecked_iterator@V?$_List_val@U?$_List_simple_types@U?$pair@$$CBV?$basic_string@DU?$char_traits@D@std@@V?$allocator@D@2@@std@@UskinInfo@@@std@@@std@@@std@@@0@PAV10@00AAV?$allocator@V?$_List_unchecked_iterator@V?$_List_val@U?$_List_simple_types@U?$pair@$$CBV?$basic_string@DU?$char_traits@D@std@@V?$allocator@D@2@@std@@UskinInfo@@@std@@@std@@@std@@@std@@@0@U_General_ptr_iterator_tag@0@U_Unused_parameter@0@@Z 10024780 f i Configuration.obj
 0001:00023780       ??$_Uninitialized_move_al_unchecked@PAV?$_List_unchecked_iterator@V?$_List_val@U?$_List_simple_types@U?$pair@$$CBV?$basic_string@DU?$char_traits@D@std@@V?$allocator@D@2@@std@@V?$set@V?$basic_string@DU?$char_traits@D@std@@V?$allocator@D@2@@std@@U?$less@V?$basic_string@DU?$char_traits@D@std@@V?$allocator@D@2@@std@@@2@V?$allocator@V?$basic_string@DU?$char_traits@D@std@@V?$allocator@D@2@@std@@@2@@2@@std@@@std@@@std@@@std@@PAV12@V?$allocator@V?$_List_unchecked_iterator@V?$_List_val@U?$_List_simple_types@U?$pair@$$CBV?$basic_string@DU?$char_traits@D@std@@V?$allocator@D@2@@std@@V?$set@V?$basic_string@DU?$char_traits@D@std@@V?$allocator@D@2@@std@@U?$less@V?$basic_string@DU?$char_traits@D@std@@V?$allocator@D@2@@std@@@2@V?$allocator@V?$basic_string@DU?$char_traits@D@std@@V?$allocator@D@2@@std@@@2@@2@@std@@@std@@@std@@@std@@@2@@std@@YAPAV?$_List_unchecked_iterator@V?$_List_val@U?$_List_simple_types@U?$pair@$$CBV?$basic_string@DU?$char_traits@D@std@@V?$allocator@D@2@@std@@V?$set@V?$basic_string@DU?$char_traits@D@std@@V?$allocator@D@2@@std@@U?$less@V?$basic_string@DU?$char_traits@D@std@@V?$allocator@D@2@@std@@@2@V?$allocator@V?$basic_string@DU?$char_traits@D@std@@V?$allocator@D@2@@std@@@2@@2@@std@@@std@@@std@@@0@PAV10@00AAV?$allocator@V?$_List_unchecked_iterator@V?$_List_val@U?$_List_simple_types@U?$pair@$$CBV?$basic_string@DU?$char_traits@D@std@@V?$allocator@D@2@@std@@V?$set@V?$basic_string@DU?$char_traits@D@std@@V?$allocator@D@2@@std@@U?$less@V?$basic_string@DU?$char_traits@D@std@@V?$allocator@D@2@@std@@@2@V?$allocator@V?$basic_string@DU?$char_traits@D@std@@V?$allocator@D@2@@std@@@2@@2@@std@@@std@@@std@@@std@@@0@U_General_ptr_iterator_tag@0@U_Unused_parameter@0@@Z 10024780 f i Configuration.obj
 0001:00023780       ??$_Uninitialized_move_al_unchecked@PAV?$_List_unchecked_iterator@V?$_List_val@U?$_List_simple_types@U?$pair@QADPAD@std@@@std@@@std@@@std@@PAV12@V?$allocator@V?$_List_unchecked_iterator@V?$_List_val@U?$_List_simple_types@U?$pair@QADPAD@std@@@std@@@std@@@std@@@2@@std@@YAPAV?$_List_unchecked_iterator@V?$_List_val@U?$_List_simple_types@U?$pair@QADPAD@std@@@std@@@std@@@0@PAV10@00AAV?$allocator@V?$_List_unchecked_iterator@V?$_List_val@U?$_List_simple_types@U?$pair@QADPAD@std@@@std@@@std@@@std@@@0@U_General_ptr_iterator_tag@0@U_Unused_parameter@0@@Z 10024780 f i Hooks.obj
 0001:00023780       ??$_Uninitialized_move_al_unchecked@PAV?$_List_unchecked_iterator@V?$_List_val@U?$_List_simple_types@U?$pair@$$CBV?$basic_string@DU?$char_traits@D@std@@V?$allocator@D@2@@std@@V12@@std@@@std@@@std@@@std@@PAV12@V?$allocator@V?$_List_unchecked_iterator@V?$_List_val@U?$_List_simple_types@U?$pair@$$CBV?$basic_string@DU?$char_traits@D@std@@V?$allocator@D@2@@std@@V12@@std@@@std@@@std@@@std@@@2@@std@@YAPAV?$_List_unchecked_iterator@V?$_List_val@U?$_List_simple_types@U?$pair@$$CBV?$basic_string@DU?$char_traits@D@std@@V?$allocator@D@2@@std@@V12@@std@@@std@@@std@@@0@PAV10@00AAV?$allocator@V?$_List_unchecked_iterator@V?$_List_val@U?$_List_simple_types@U?$pair@$$CBV?$basic_string@DU?$char_traits@D@std@@V?$allocator@D@2@@std@@V12@@std@@@std@@@std@@@std@@@0@U_General_ptr_iterator_tag@0@U_Unused_parameter@0@@Z 10024780 f i Configuration.obj
 0001:00023850       ??$construct@V?$_List_unchecked_iterator@V?$_List_val@U?$_List_simple_types@U?$pair@$$CBV?$basic_string@DU?$char_traits@D@std@@V?$allocator@D@2@@std@@UskinInfo@@@std@@@std@@@std@@@std@@ABV12@@?$_Default_allocator_traits@V?$allocator@V?$_List_unchecked_iterator@V?$_List_val@U?$_List_simple_types@U?$pair@$$CBV?$basic_string@DU?$char_traits@D@std@@V?$allocator@D@2@@std@@UskinInfo@@@std@@@std@@@std@@@std@@@std@@@std@@SAXAAV?$allocator@V?$_List_unchecked_iterator@V?$_List_val@U?$_List_simple_types@U?$pair@$$CBV?$basic_string@DU?$char_traits@D@std@@V?$allocator@D@2@@std@@UskinInfo@@@std@@@std@@@std@@@std@@@1@QAV?$_List_unchecked_iterator@V?$_List_val@U?$_List_simple_types@U?$pair@$$CBV?$basic_string@DU?$char_traits@D@std@@V?$allocator@D@2@@std@@UskinInfo@@@std@@@std@@@std@@@1@ABV31@@Z 10024850 f i Configuration.obj
 0001:00023850       ??$construct@V?$_List_unchecked_iterator@V?$_List_val@U?$_List_simple_types@U?$pair@$$CBV?$basic_string@DU?$char_traits@D@std@@V?$allocator@D@2@@std@@V12@@std@@@std@@@std@@@std@@ABV12@@?$_Default_allocator_traits@V?$allocator@V?$_List_unchecked_iterator@V?$_List_val@U?$_List_simple_types@U?$pair@$$CBV?$basic_string@DU?$char_traits@D@std@@V?$allocator@D@2@@std@@V12@@std@@@std@@@std@@@std@@@std@@@std@@SAXAAV?$allocator@V?$_List_unchecked_iterator@V?$_List_val@U?$_List_simple_types@U?$pair@$$CBV?$basic_string@DU?$char_traits@D@std@@V?$allocator@D@2@@std@@V12@@std@@@std@@@std@@@std@@@1@QAV?$_List_unchecked_iterator@V?$_List_val@U?$_List_simple_types@U?$pair@$$CBV?$basic_string@DU?$char_traits@D@std@@V?$allocator@D@2@@std@@V12@@std@@@std@@@std@@@1@ABV31@@Z 10024850 f i Configuration.obj
 0001:00023850       ??$construct@V?$_List_unchecked_iterator@V?$_List_val@U?$_List_simple_types@U?$pair@$$CBV?$basic_string@DU?$char_traits@D@std@@V?$allocator@D@2@@std@@UskinInfo@@@std@@@std@@@std@@@std@@V12@@?$_Default_allocator_traits@V?$allocator@V?$_List_unchecked_iterator@V?$_List_val@U?$_List_simple_types@U?$pair@$$CBV?$basic_string@DU?$char_traits@D@std@@V?$allocator@D@2@@std@@UskinInfo@@@std@@@std@@@std@@@std@@@std@@@std@@SAXAAV?$allocator@V?$_List_unchecked_iterator@V?$_List_val@U?$_List_simple_types@U?$pair@$$CBV?$basic_string@DU?$char_traits@D@std@@V?$allocator@D@2@@std@@UskinInfo@@@std@@@std@@@std@@@std@@@1@QAV?$_List_unchecked_iterator@V?$_List_val@U?$_List_simple_types@U?$pair@$$CBV?$basic_string@DU?$char_traits@D@std@@V?$allocator@D@2@@std@@UskinInfo@@@std@@@std@@@std@@@1@$$QAV31@@Z 10024850 f i Configuration.obj
 0001:00023850       ??$construct@V?$_List_unchecked_iterator@V?$_List_val@U?$_List_simple_types@U?$pair@$$CBV?$basic_string@DU?$char_traits@D@std@@V?$allocator@D@2@@std@@V?$set@V?$basic_string@DU?$char_traits@D@std@@V?$allocator@D@2@@std@@U?$less@V?$basic_string@DU?$char_traits@D@std@@V?$allocator@D@2@@std@@@2@V?$allocator@V?$basic_string@DU?$char_traits@D@std@@V?$allocator@D@2@@std@@@2@@2@@std@@@std@@@std@@@std@@ABV12@@?$_Default_allocator_traits@V?$allocator@V?$_List_unchecked_iterator@V?$_List_val@U?$_List_simple_types@U?$pair@$$CBV?$basic_string@DU?$char_traits@D@std@@V?$allocator@D@2@@std@@V?$set@V?$basic_string@DU?$char_traits@D@std@@V?$allocator@D@2@@std@@U?$less@V?$basic_string@DU?$char_traits@D@std@@V?$allocator@D@2@@std@@@2@V?$allocator@V?$basic_string@DU?$char_traits@D@std@@V?$allocator@D@2@@std@@@2@@2@@std@@@std@@@std@@@std@@@std@@@std@@SAXAAV?$allocator@V?$_List_unchecked_iterator@V?$_List_val@U?$_List_simple_types@U?$pair@$$CBV?$basic_string@DU?$char_traits@D@std@@V?$allocator@D@2@@std@@V?$set@V?$basic_string@DU?$char_traits@D@std@@V?$allocator@D@2@@std@@U?$less@V?$basic_string@DU?$char_traits@D@std@@V?$allocator@D@2@@std@@@2@V?$allocator@V?$basic_string@DU?$char_traits@D@std@@V?$allocator@D@2@@std@@@2@@2@@std@@@std@@@std@@@std@@@1@QAV?$_List_unchecked_iterator@V?$_List_val@U?$_List_simple_types@U?$pair@$$CBV?$basic_string@DU?$char_traits@D@std@@V?$allocator@D@2@@std@@V?$set@V?$basic_string@DU?$char_traits@D@std@@V?$allocator@D@2@@std@@U?$less@V?$basic_string@DU?$char_traits@D@std@@V?$allocator@D@2@@std@@@2@V?$allocator@V?$basic_string@DU?$char_traits@D@std@@V?$allocator@D@2@@std@@@2@@2@@std@@@std@@@std@@@1@ABV31@@Z 10024850 f i Configuration.obj
 0001:00023850       ??$construct@V?$_List_unchecked_iterator@V?$_List_val@U?$_List_simple_types@U?$pair@$$CBV?$basic_string@DU?$char_traits@D@std@@V?$allocator@D@2@@std@@V?$set@V?$basic_string@DU?$char_traits@D@std@@V?$allocator@D@2@@std@@U?$less@V?$basic_string@DU?$char_traits@D@std@@V?$allocator@D@2@@std@@@2@V?$allocator@V?$basic_string@DU?$char_traits@D@std@@V?$allocator@D@2@@std@@@2@@2@@std@@@std@@@std@@@std@@V12@@?$_Default_allocator_traits@V?$allocator@V?$_List_unchecked_iterator@V?$_List_val@U?$_List_simple_types@U?$pair@$$CBV?$basic_string@DU?$char_traits@D@std@@V?$allocator@D@2@@std@@V?$set@V?$basic_string@DU?$char_traits@D@std@@V?$allocator@D@2@@std@@U?$less@V?$basic_string@DU?$char_traits@D@std@@V?$allocator@D@2@@std@@@2@V?$allocator@V?$basic_string@DU?$char_traits@D@std@@V?$allocator@D@2@@std@@@2@@2@@std@@@std@@@std@@@std@@@std@@@std@@SAXAAV?$allocator@V?$_List_unchecked_iterator@V?$_List_val@U?$_List_simple_types@U?$pair@$$CBV?$basic_string@DU?$char_traits@D@std@@V?$allocator@D@2@@std@@V?$set@V?$basic_string@DU?$char_traits@D@std@@V?$allocator@D@2@@std@@U?$less@V?$basic_string@DU?$char_traits@D@std@@V?$allocator@D@2@@std@@@2@V?$allocator@V?$basic_string@DU?$char_traits@D@std@@V?$allocator@D@2@@std@@@2@@2@@std@@@std@@@std@@@std@@@1@QAV?$_List_unchecked_iterator@V?$_List_val@U?$_List_simple_types@U?$pair@$$CBV?$basic_string@DU?$char_traits@D@std@@V?$allocator@D@2@@std@@V?$set@V?$basic_string@DU?$char_traits@D@std@@V?$allocator@D@2@@std@@U?$less@V?$basic_string@DU?$char_traits@D@std@@V?$allocator@D@2@@std@@@2@V?$allocator@V?$basic_string@DU?$char_traits@D@std@@V?$allocator@D@2@@std@@@2@@2@@std@@@std@@@std@@@1@$$QAV31@@Z 10024850 f i Configuration.obj
 0001:00023850       ??$construct@V?$_List_unchecked_iterator@V?$_List_val@U?$_List_simple_types@U?$pair@QADPAD@std@@@std@@@std@@@std@@ABV12@@?$_Default_allocator_traits@V?$allocator@V?$_List_unchecked_iterator@V?$_List_val@U?$_List_simple_types@U?$pair@QADPAD@std@@@std@@@std@@@std@@@std@@@std@@SAXAAV?$allocator@V?$_List_unchecked_iterator@V?$_List_val@U?$_List_simple_types@U?$pair@QADPAD@std@@@std@@@std@@@std@@@1@QAV?$_List_unchecked_iterator@V?$_List_val@U?$_List_simple_types@U?$pair@QADPAD@std@@@std@@@std@@@1@ABV31@@Z 10024850 f i Hooks.obj
 0001:00023850       ??$construct@V?$_List_unchecked_iterator@V?$_List_val@U?$_List_simple_types@U?$pair@$$CBV?$basic_string@DU?$char_traits@D@std@@V?$allocator@D@2@@std@@V12@@std@@@std@@@std@@@std@@V12@@?$_Default_allocator_traits@V?$allocator@V?$_List_unchecked_iterator@V?$_List_val@U?$_List_simple_types@U?$pair@$$CBV?$basic_string@DU?$char_traits@D@std@@V?$allocator@D@2@@std@@V12@@std@@@std@@@std@@@std@@@std@@@std@@SAXAAV?$allocator@V?$_List_unchecked_iterator@V?$_List_val@U?$_List_simple_types@U?$pair@$$CBV?$basic_string@DU?$char_traits@D@std@@V?$allocator@D@2@@std@@V12@@std@@@std@@@std@@@std@@@1@QAV?$_List_unchecked_iterator@V?$_List_val@U?$_List_simple_types@U?$pair@$$CBV?$basic_string@DU?$char_traits@D@std@@V?$allocator@D@2@@std@@V12@@std@@@std@@@std@@@1@$$QAV31@@Z 10024850 f i Configuration.obj
 0001:00023850       ??$construct@V?$_List_unchecked_iterator@V?$_List_val@U?$_List_simple_types@U?$pair@QADPAD@std@@@std@@@std@@@std@@V12@@?$_Default_allocator_traits@V?$allocator@V?$_List_unchecked_iterator@V?$_List_val@U?$_List_simple_types@U?$pair@QADPAD@std@@@std@@@std@@@std@@@std@@@std@@SAXAAV?$allocator@V?$_List_unchecked_iterator@V?$_List_val@U?$_List_simple_types@U?$pair@QADPAD@std@@@std@@@std@@@std@@@1@QAV?$_List_unchecked_iterator@V?$_List_val@U?$_List_simple_types@U?$pair@QADPAD@std@@@std@@@std@@@1@$$QAV31@@Z 10024850 f i Hooks.obj
 0001:00023880       ??$destroy@PAU?$_List_node@U?$pair@$$CBV?$basic_string@DU?$char_traits@D@std@@V?$allocator@D@2@@std@@V?$set@V?$basic_string@DU?$char_traits@D@std@@V?$allocator@D@2@@std@@U?$less@V?$basic_string@DU?$char_traits@D@std@@V?$allocator@D@2@@std@@@2@V?$allocator@V?$basic_string@DU?$char_traits@D@std@@V?$allocator@D@2@@std@@@2@@2@@std@@PAX@std@@@?$_Default_allocator_traits@V?$allocator@U?$_List_node@U?$pair@$$CBV?$basic_string@DU?$char_traits@D@std@@V?$allocator@D@2@@std@@V?$set@V?$basic_string@DU?$char_traits@D@std@@V?$allocator@D@2@@std@@U?$less@V?$basic_string@DU?$char_traits@D@std@@V?$allocator@D@2@@std@@@2@V?$allocator@V?$basic_string@DU?$char_traits@D@std@@V?$allocator@D@2@@std@@@2@@2@@std@@PAX@std@@@std@@@std@@SAXAAV?$allocator@U?$_List_node@U?$pair@$$CBV?$basic_string@DU?$char_traits@D@std@@V?$allocator@D@2@@std@@V?$set@V?$basic_string@DU?$char_traits@D@std@@V?$allocator@D@2@@std@@U?$less@V?$basic_string@DU?$char_traits@D@std@@V?$allocator@D@2@@std@@@2@V?$allocator@V?$basic_string@DU?$char_traits@D@std@@V?$allocator@D@2@@std@@@2@@2@@std@@PAX@std@@@1@QAPAU?$_List_node@U?$pair@$$CBV?$basic_string@DU?$char_traits@D@std@@V?$allocator@D@2@@std@@V?$set@V?$basic_string@DU?$char_traits@D@std@@V?$allocator@D@2@@std@@U?$less@V?$basic_string@DU?$char_traits@D@std@@V?$allocator@D@2@@std@@@2@V?$allocator@V?$basic_string@DU?$char_traits@D@std@@V?$allocator@D@2@@std@@@2@@2@@std@@PAX@1@@Z 10024880 f i Configuration.obj
 0001:00023880       ??$_Destroy_range1@V?$allocator@V?$_List_unchecked_iterator@V?$_List_val@U?$_List_simple_types@U?$pair@$$CBV?$basic_string@DU?$char_traits@D@std@@V?$allocator@D@2@@std@@V12@@std@@@std@@@std@@@std@@@std@@@std@@YAXPAV?$_List_unchecked_iterator@V?$_List_val@U?$_List_simple_types@U?$pair@$$CBV?$basic_string@DU?$char_traits@D@std@@V?$allocator@D@2@@std@@V12@@std@@@std@@@std@@@0@0AAV?$allocator@V?$_List_unchecked_iterator@V?$_List_val@U?$_List_simple_types@U?$pair@$$CBV?$basic_string@DU?$char_traits@D@std@@V?$allocator@D@2@@std@@V12@@std@@@std@@@std@@@std@@@0@U?$integral_constant@_N$00@0@@Z 10024880 f i Configuration.obj
 0001:00023880       ??$destroy@U?$pair@$$CBW4ItemDefinitionIndexx@@UDefItem_t@@@std@@@?$_Default_allocator_traits@V?$allocator@U?$_Tree_node@U?$pair@$$CBW4ItemDefinitionIndexx@@UDefItem_t@@@std@@PAX@std@@@std@@@std@@SAXAAV?$allocator@U?$_Tree_node@U?$pair@$$CBW4ItemDefinitionIndexx@@UDefItem_t@@@std@@PAX@std@@@1@QAU?$pair@$$CBW4ItemDefinitionIndexx@@UDefItem_t@@@1@@Z 10024880 f i recvproxy.obj
 0001:00023880       ??$destroy@PAV?$ConfigValue@H@@@?$_Default_allocator_traits@V?$allocator@PAV?$ConfigValue@H@@@std@@@std@@SAXAAV?$allocator@PAV?$ConfigValue@H@@@1@QAPAV?$ConfigValue@H@@@Z 10024880 f i Configuration.obj
 0001:00023880       ??$destroy@H@?$_Default_allocator_traits@V?$allocator@H@std@@@std@@SAXAAV?$allocator@H@1@QAH@Z 10024880 f i RageBot.obj
 0001:00023880       ??$__vcrt_va_start_verify_argument_type@QBD@@YAXXZ 10024880 f i imguicolorpicker.obj
 0001:00023880       ??$destroy@U?$pair@QADPAD@std@@@?$_Default_allocator_traits@V?$allocator@U?$_List_node@U?$pair@QADPAD@std@@PAX@std@@@std@@@std@@SAXAAV?$allocator@U?$_List_node@U?$pair@QADPAD@std@@PAX@std@@@1@QAU?$pair@QADPAD@1@@Z 10024880 f i Hooks.obj
 0001:00023880       ??$_Destroy_range1@V?$allocator@PAV?$shared_ptr@VNode@valve_parser@@@std@@@std@@@std@@YAXPAPAV?$shared_ptr@VNode@valve_parser@@@0@0AAV?$allocator@PAV?$shared_ptr@VNode@valve_parser@@@std@@@0@U?$integral_constant@_N$00@0@@Z 10024880 f i Hooks.obj
 0001:00023880       ??$destroy@PAURecvTable@@@?$_Default_allocator_traits@V?$allocator@PAURecvTable@@@std@@@std@@SAXAAV?$allocator@PAURecvTable@@@1@QAPAURecvTable@@@Z 10024880 f i NetVarManager.obj
 0001:00023880       ??$__vcrt_va_start_verify_argument_type@PBD@@YAXXZ 10024880 f i ESP.obj
 0001:00023880       ??$_Destroy_range1@V?$allocator@_S@std@@@std@@YAXPA_S0AAV?$allocator@_S@0@U?$integral_constant@_N$00@0@@Z 10024880 f i Parser.obj
 0001:00023880       ??$_Destroy_range1@V?$allocator@PAURecvTable@@@std@@@std@@YAXPAPAURecvTable@@0AAV?$allocator@PAURecvTable@@@0@U?$integral_constant@_N$00@0@@Z 10024880 f i NetVarManager.obj
 0001:00023880       ?_Enable_shared@std@@YAXPDX0@Z 10024880 f i Parser.obj
 0001:00023880       ??$destroy@_S@?$_Default_allocator_traits@V?$allocator@_S@std@@@std@@SAXAAV?$allocator@_S@1@QA_S@Z 10024880 f i Parser.obj
 0001:00023880       ??$destroy@PAU?$_List_node@U?$pair@$$CBV?$basic_string@DU?$char_traits@D@std@@V?$allocator@D@2@@std@@UskinInfo@@@std@@PAX@std@@@?$_Default_allocator_traits@V?$allocator@U?$_List_node@U?$pair@$$CBV?$basic_string@DU?$char_traits@D@std@@V?$allocator@D@2@@std@@UskinInfo@@@std@@PAX@std@@@std@@@std@@SAXAAV?$allocator@U?$_List_node@U?$pair@$$CBV?$basic_string@DU?$char_traits@D@std@@V?$allocator@D@2@@std@@UskinInfo@@@std@@PAX@std@@@1@QAPAU?$_List_node@U?$pair@$$CBV?$basic_string@DU?$char_traits@D@std@@V?$allocator@D@2@@std@@UskinInfo@@@std@@PAX@1@@Z 10024880 f i Configuration.obj
 0001:00023880       ??3@YAXPAX0@Z              10024880 f i Parser.obj
 0001:00023880       ??$_Destroy_range1@V?$allocator@H@std@@@std@@YAXPAH0AAV?$allocator@H@0@U?$integral_constant@_N$00@0@@Z 10024880 f i LegitBot.obj
 0001:00023880       ??$_Destroy_range1@V?$allocator@PAV?$ConfigValue@H@@@std@@@std@@YAXPAPAV?$ConfigValue@H@@0AAV?$allocator@PAV?$ConfigValue@H@@@0@U?$integral_constant@_N$00@0@@Z 10024880 f i Configuration.obj
 0001:00023880       ??$_Destroy_range1@V?$allocator@V?$_List_unchecked_iterator@V?$_List_val@U?$_List_simple_types@U?$pair@$$CBV?$basic_string@DU?$char_traits@D@std@@V?$allocator@D@2@@std@@V?$set@V?$basic_string@DU?$char_traits@D@std@@V?$allocator@D@2@@std@@U?$less@V?$basic_string@DU?$char_traits@D@std@@V?$allocator@D@2@@std@@@2@V?$allocator@V?$basic_string@DU?$char_traits@D@std@@V?$allocator@D@2@@std@@@2@@2@@std@@@std@@@std@@@std@@@std@@@std@@YAXPAV?$_List_unchecked_iterator@V?$_List_val@U?$_List_simple_types@U?$pair@$$CBV?$basic_string@DU?$char_traits@D@std@@V?$allocator@D@2@@std@@V?$set@V?$basic_string@DU?$char_traits@D@std@@V?$allocator@D@2@@std@@U?$less@V?$basic_string@DU?$char_traits@D@std@@V?$allocator@D@2@@std@@@2@V?$allocator@V?$basic_string@DU?$char_traits@D@std@@V?$allocator@D@2@@std@@@2@@2@@std@@@std@@@std@@@0@0AAV?$allocator@V?$_List_unchecked_iterator@V?$_List_val@U?$_List_simple_types@U?$pair@$$CBV?$basic_string@DU?$char_traits@D@std@@V?$allocator@D@2@@std@@V?$set@V?$basic_string@DU?$char_traits@D@std@@V?$allocator@D@2@@std@@U?$less@V?$basic_string@DU?$char_traits@D@std@@V?$allocator@D@2@@std@@@2@V?$allocator@V?$basic_string@DU?$char_traits@D@std@@V?$allocator@D@2@@std@@@2@@2@@std@@@std@@@std@@@std@@@0@U?$integral_constant@_N$00@0@@Z 10024880 f i Configuration.obj
 0001:00023880       ??$destroy@PAD@?$_Default_allocator_traits@V?$allocator@D@std@@@std@@SAXAAV?$allocator@D@1@QAPAD@Z 10024880 f i Parser.obj
 0001:00023880       ??$destroy@PAU?$_List_node@U?$pair@QADPAD@std@@PAX@std@@@?$_Default_allocator_traits@V?$allocator@U?$_List_node@U?$pair@QADPAD@std@@PAX@std@@@std@@@std@@SAXAAV?$allocator@U?$_List_node@U?$pair@QADPAD@std@@PAX@std@@@1@QAPAU?$_List_node@U?$pair@QADPAD@std@@PAX@1@@Z 10024880 f i Hooks.obj
 0001:00023880       ??$destroy@PAU?$_Tree_node@V?$basic_string@DU?$char_traits@D@std@@V?$allocator@D@2@@std@@PAX@std@@@?$_Default_allocator_traits@V?$allocator@U?$_Tree_node@V?$basic_string@DU?$char_traits@D@std@@V?$allocator@D@2@@std@@PAX@std@@@std@@@std@@SAXAAV?$allocator@U?$_Tree_node@V?$basic_string@DU?$char_traits@D@std@@V?$allocator@D@2@@std@@PAX@std@@@1@QAPAU?$_Tree_node@V?$basic_string@DU?$char_traits@D@std@@V?$allocator@D@2@@std@@PAX@1@@Z 10024880 f i Configuration.obj
 0001:00023880       ??$destroy@PAV?$shared_ptr@VNode@valve_parser@@@std@@@?$_Default_allocator_traits@V?$allocator@PAV?$shared_ptr@VNode@valve_parser@@@std@@@std@@@std@@SAXAAV?$allocator@PAV?$shared_ptr@VNode@valve_parser@@@std@@@1@QAPAV?$shared_ptr@VNode@valve_parser@@@1@@Z 10024880 f i Hooks.obj
 0001:00023880       ??$_Destroy_range1@V?$allocator@PAV?$ConfigValue@M@@@std@@@std@@YAXPAPAV?$ConfigValue@M@@0AAV?$allocator@PAV?$ConfigValue@M@@@0@U?$integral_constant@_N$00@0@@Z 10024880 f i Configuration.obj
 0001:00023880       ??3@YAXPAXUImPlacementNewDummy@@0@Z 10024880 f i imgui.obj
 0001:00023880       ??$destroy@U_Container_proxy@std@@@?$_Default_allocator_traits@V?$allocator@U_Container_proxy@std@@@std@@@std@@SAXAAV?$allocator@U_Container_proxy@std@@@1@QAU_Container_proxy@1@@Z 10024880 f i Hooks.obj
 0001:00023880       ??$destroy@PAU?$_Tree_node@U?$pair@$$CBW4ItemDefinitionIndexx@@UDefItem_t@@@std@@PAX@std@@@?$_Default_allocator_traits@V?$allocator@U?$_Tree_node@U?$pair@$$CBW4ItemDefinitionIndexx@@UDefItem_t@@@std@@PAX@std@@@std@@@std@@SAXAAV?$allocator@U?$_Tree_node@U?$pair@$$CBW4ItemDefinitionIndexx@@UDefItem_t@@@std@@PAX@std@@@1@QAPAU?$_Tree_node@U?$pair@$$CBW4ItemDefinitionIndexx@@UDefItem_t@@@std@@PAX@1@@Z 10024880 f i recvproxy.obj
 0001:00023880       ??$destroy@VVector@@@?$_Default_allocator_traits@V?$allocator@VVector@@@std@@@std@@SAXAAV?$allocator@VVector@@@1@QAVVector@@@Z 10024880 f i GrenadePrediction.obj
 0001:00023880       ??$destroy@PAU?$_List_node@U?$pair@$$CBV?$basic_string@DU?$char_traits@D@std@@V?$allocator@D@2@@std@@V12@@std@@PAX@std@@@?$_Default_allocator_traits@V?$allocator@U?$_List_node@U?$pair@$$CBV?$basic_string@DU?$char_traits@D@std@@V?$allocator@D@2@@std@@V12@@std@@PAX@std@@@std@@@std@@SAXAAV?$allocator@U?$_List_node@U?$pair@$$CBV?$basic_string@DU?$char_traits@D@std@@V?$allocator@D@2@@std@@V12@@std@@PAX@std@@@1@QAPAU?$_List_node@U?$pair@$$CBV?$basic_string@DU?$char_traits@D@std@@V?$allocator@D@2@@std@@V12@@std@@PAX@1@@Z 10024880 f i Configuration.obj
 0001:00023880       ??$_Destroy_range1@V?$allocator@V?$_List_unchecked_iterator@V?$_List_val@U?$_List_simple_types@U?$pair@$$CBV?$basic_string@DU?$char_traits@D@std@@V?$allocator@D@2@@std@@UskinInfo@@@std@@@std@@@std@@@std@@@std@@@std@@YAXPAV?$_List_unchecked_iterator@V?$_List_val@U?$_List_simple_types@U?$pair@$$CBV?$basic_string@DU?$char_traits@D@std@@V?$allocator@D@2@@std@@UskinInfo@@@std@@@std@@@std@@@0@0AAV?$allocator@V?$_List_unchecked_iterator@V?$_List_val@U?$_List_simple_types@U?$pair@$$CBV?$basic_string@DU?$char_traits@D@std@@V?$allocator@D@2@@std@@UskinInfo@@@std@@@std@@@std@@@std@@@0@U?$integral_constant@_N$00@0@@Z 10024880 f i Configuration.obj
 0001:00023880       ??$_Destroy_range1@V?$allocator@VVector@@@std@@@std@@YAXPAVVector@@0AAV?$allocator@VVector@@@0@U?$integral_constant@_N$00@0@@Z 10024880 f i ESP.obj
 0001:00023880       ??$_Destroy_range1@V?$allocator@PAV?$ConfigValue@_N@@@std@@@std@@YAXPAPAV?$ConfigValue@_N@@0AAV?$allocator@PAV?$ConfigValue@_N@@@0@U?$integral_constant@_N$00@0@@Z 10024880 f i Configuration.obj
 0001:00023880       ??$_Pocca@V?$allocator@D@std@@@std@@YAXAAV?$allocator@D@0@ABV10@U?$integral_constant@_N$0A@@0@@Z 10024880 f i Configuration.obj
 0001:00023880       ??$_Destroy_range1@V?$allocator@V?$_List_unchecked_iterator@V?$_List_val@U?$_List_simple_types@U?$pair@QADPAD@std@@@std@@@std@@@std@@@std@@@std@@YAXPAV?$_List_unchecked_iterator@V?$_List_val@U?$_List_simple_types@U?$pair@QADPAD@std@@@std@@@std@@@0@0AAV?$allocator@V?$_List_unchecked_iterator@V?$_List_val@U?$_List_simple_types@U?$pair@QADPAD@std@@@std@@@std@@@std@@@0@U?$integral_constant@_N$00@0@@Z 10024880 f i Hooks.obj
 0001:00023880       ??$destroy@PAV?$ConfigValue@M@@@?$_Default_allocator_traits@V?$allocator@PAV?$ConfigValue@M@@@std@@@std@@SAXAAV?$allocator@PAV?$ConfigValue@M@@@1@QAPAV?$ConfigValue@M@@@Z 10024880 f i Configuration.obj
 0001:00023880       ??$destroy@PAV?$ConfigValue@_N@@@?$_Default_allocator_traits@V?$allocator@PAV?$ConfigValue@_N@@@std@@@std@@SAXAAV?$allocator@PAV?$ConfigValue@_N@@@1@QAPAV?$ConfigValue@_N@@@Z 10024880 f i Configuration.obj
 0001:00023890       ??$destroy@U?$pair@$$CBV?$basic_string@DU?$char_traits@D@std@@V?$allocator@D@2@@std@@UskinInfo@@@std@@@?$_Default_allocator_traits@V?$allocator@U?$_List_node@U?$pair@$$CBV?$basic_string@DU?$char_traits@D@std@@V?$allocator@D@2@@std@@UskinInfo@@@std@@PAX@std@@@std@@@std@@SAXAAV?$allocator@U?$_List_node@U?$pair@$$CBV?$basic_string@DU?$char_traits@D@std@@V?$allocator@D@2@@std@@UskinInfo@@@std@@PAX@std@@@1@QAU?$pair@$$CBV?$basic_string@DU?$char_traits@D@std@@V?$allocator@D@2@@std@@UskinInfo@@@1@@Z 10024890 f i Configuration.obj
 0001:000238a0       ??$destroy@U?$pair@$$CBV?$basic_string@DU?$char_traits@D@std@@V?$allocator@D@2@@std@@V12@@std@@@?$_Default_allocator_traits@V?$allocator@U?$_List_node@U?$pair@$$CBV?$basic_string@DU?$char_traits@D@std@@V?$allocator@D@2@@std@@V12@@std@@PAX@std@@@std@@@std@@SAXAAV?$allocator@U?$_List_node@U?$pair@$$CBV?$basic_string@DU?$char_traits@D@std@@V?$allocator@D@2@@std@@V12@@std@@PAX@std@@@1@QAU?$pair@$$CBV?$basic_string@DU?$char_traits@D@std@@V?$allocator@D@2@@std@@V12@@1@@Z 100248a0 f i Configuration.obj
 0001:000238b0       ??$destroy@U?$pair@$$CBV?$basic_string@DU?$char_traits@D@std@@V?$allocator@D@2@@std@@V?$set@V?$basic_string@DU?$char_traits@D@std@@V?$allocator@D@2@@std@@U?$less@V?$basic_string@DU?$char_traits@D@std@@V?$allocator@D@2@@std@@@2@V?$allocator@V?$basic_string@DU?$char_traits@D@std@@V?$allocator@D@2@@std@@@2@@2@@std@@@?$_Default_allocator_traits@V?$allocator@U?$_List_node@U?$pair@$$CBV?$basic_string@DU?$char_traits@D@std@@V?$allocator@D@2@@std@@V?$set@V?$basic_string@DU?$char_traits@D@std@@V?$allocator@D@2@@std@@U?$less@V?$basic_string@DU?$char_traits@D@std@@V?$allocator@D@2@@std@@@2@V?$allocator@V?$basic_string@DU?$char_traits@D@std@@V?$allocator@D@2@@std@@@2@@2@@std@@PAX@std@@@std@@@std@@SAXAAV?$allocator@U?$_List_node@U?$pair@$$CBV?$basic_string@DU?$char_traits@D@std@@V?$allocator@D@2@@std@@V?$set@V?$basic_string@DU?$char_traits@D@std@@V?$allocator@D@2@@std@@U?$less@V?$basic_string@DU?$char_traits@D@std@@V?$allocator@D@2@@std@@@2@V?$allocator@V?$basic_string@DU?$char_traits@D@std@@V?$allocator@D@2@@std@@@2@@2@@std@@PAX@std@@@1@QAU?$pair@$$CBV?$basic_string@DU?$char_traits@D@std@@V?$allocator@D@2@@std@@V?$set@V?$basic_string@DU?$char_traits@D@std@@V?$allocator@D@2@@std@@U?$less@V?$basic_string@DU?$char_traits@D@std@@V?$allocator@D@2@@std@@@2@V?$allocator@V?$basic_string@DU?$char_traits@D@std@@V?$allocator@D@2@@std@@@2@@2@@1@@Z 100248b0 f i Configuration.obj
 0001:000238c0       ??$destroy@V?$basic_string@DU?$char_traits@D@std@@V?$allocator@D@2@@std@@@?$_Default_allocator_traits@V?$allocator@V?$basic_string@DU?$char_traits@D@std@@V?$allocator@D@2@@std@@@std@@@std@@SAXAAV?$allocator@V?$basic_string@DU?$char_traits@D@std@@V?$allocator@D@2@@std@@@1@QAV?$basic_string@DU?$char_traits@D@std@@V?$allocator@D@2@@1@@Z 100248c0 f i Configuration.obj
 0001:000238c0       ??$destroy@V?$basic_string@DU?$char_traits@D@std@@V?$allocator@D@2@@std@@@?$_Default_allocator_traits@V?$allocator@U?$_Tree_node@V?$basic_string@DU?$char_traits@D@std@@V?$allocator@D@2@@std@@PAX@std@@@std@@@std@@SAXAAV?$allocator@U?$_Tree_node@V?$basic_string@DU?$char_traits@D@std@@V?$allocator@D@2@@std@@PAX@std@@@1@QAV?$basic_string@DU?$char_traits@D@std@@V?$allocator@D@2@@1@@Z 100248c0 f i Configuration.obj
 0001:000238d0       ??$emplace_back@ABQAURecvTable@@@?$vector@PAURecvTable@@V?$allocator@PAURecvTable@@@std@@@std@@QAEXABQAURecvTable@@@Z 100248d0 f i NetVarManager.obj
 0001:000238d0       ??$emplace_back@PAV?$ConfigValue@H@@@?$vector@PAV?$ConfigValue@H@@V?$allocator@PAV?$ConfigValue@H@@@std@@@std@@QAEX$$QAPAV?$ConfigValue@H@@@Z 100248d0 f i Configuration.obj
 0001:000238d0       ??$emplace_back@PAV?$ConfigValue@M@@@?$vector@PAV?$ConfigValue@M@@V?$allocator@PAV?$ConfigValue@M@@@std@@@std@@QAEX$$QAPAV?$ConfigValue@M@@@Z 100248d0 f i Configuration.obj
 0001:000238d0       ??$emplace_back@H@?$vector@HV?$allocator@H@std@@@std@@QAEX$$QAH@Z 100248d0 f i RageBot.obj
 0001:000238d0       ??$emplace_back@PAV?$ConfigValue@_N@@@?$vector@PAV?$ConfigValue@_N@@V?$allocator@PAV?$ConfigValue@_N@@@std@@@std@@QAEX$$QAPAV?$ConfigValue@_N@@@Z 100248d0 f i Configuration.obj
 0001:00023a60       ??$end@D$0BF@@std@@YAPADAAY0BF@D@Z 10024a60 f i Configuration.obj
 0001:00023a70       ??0<unnamed-type-Colors>@Variables@@QAE@XZ 10024a70 f i Configuration.obj
 0001:00023ce0       ??0<unnamed-type-Legitbot>@Variables@@QAE@XZ 10024ce0 f i Configuration.obj
 0001:00023d20       ??0<unnamed-type-Menu>@Variables@@QAE@XZ 10024d20 f i Configuration.obj
 0001:00023d50       ??0<unnamed-type-Misc>@Variables@@QAE@XZ 10024d50 f i Configuration.obj
 0001:00023db0       ??0<unnamed-type-Skinchanger>@Variables@@QAE@XZ 10024db0 f i Configuration.obj
 0001:00023e60       ??0<unnamed-type-Triggerbot>@<unnamed-type-Legitbot>@Variables@@QAE@XZ 10024e60 f i Configuration.obj
 0001:00023e80       ??0<unnamed-type-Visuals>@Variables@@QAE@XZ 10024e80 f i Configuration.obj
 0001:00023ee0       ??0?$ConfigValue@H@@QAE@V?$basic_string@DU?$char_traits@D@std@@V?$allocator@D@2@@std@@0PAH@Z 10024ee0 f i Configuration.obj
 0001:00023ee0       ??0?$ConfigValue@M@@QAE@V?$basic_string@DU?$char_traits@D@std@@V?$allocator@D@2@@std@@0PAM@Z 10024ee0 f i Configuration.obj
 0001:00023ee0       ??0?$ConfigValue@_N@@QAE@V?$basic_string@DU?$char_traits@D@std@@V?$allocator@D@2@@std@@0PA_N@Z 10024ee0 f i Configuration.obj
 0001:00023f70       ??0?$_Hash@V?$_Umap_traits@V?$basic_string@DU?$char_traits@D@std@@V?$allocator@D@2@@std@@UskinInfo@@V?$_Uhash_compare@V?$basic_string@DU?$char_traits@D@std@@V?$allocator@D@2@@std@@U?$hash@V?$basic_string@DU?$char_traits@D@std@@V?$allocator@D@2@@std@@@2@U?$equal_to@V?$basic_string@DU?$char_traits@D@std@@V?$allocator@D@2@@std@@@2@@2@V?$allocator@U?$pair@$$CBV?$basic_string@DU?$char_traits@D@std@@V?$allocator@D@2@@std@@UskinInfo@@@std@@@2@$0A@@std@@@std@@QAE@ABV?$_Uhash_compare@V?$basic_string@DU?$char_traits@D@std@@V?$allocator@D@2@@std@@U?$hash@V?$basic_string@DU?$char_traits@D@std@@V?$allocator@D@2@@std@@@2@U?$equal_to@V?$basic_string@DU?$char_traits@D@std@@V?$allocator@D@2@@std@@@2@@1@ABV?$allocator@U?$pair@$$CBV?$basic_string@DU?$char_traits@D@std@@V?$allocator@D@2@@std@@UskinInfo@@@std@@@1@@Z 10024f70 f i Configuration.obj
 0001:00024010       ??0?$_Hash@V?$_Umap_traits@V?$basic_string@DU?$char_traits@D@std@@V?$allocator@D@2@@std@@V12@V?$_Uhash_compare@V?$basic_string@DU?$char_traits@D@std@@V?$allocator@D@2@@std@@U?$hash@V?$basic_string@DU?$char_traits@D@std@@V?$allocator@D@2@@std@@@2@U?$equal_to@V?$basic_string@DU?$char_traits@D@std@@V?$allocator@D@2@@std@@@2@@2@V?$allocator@U?$pair@$$CBV?$basic_string@DU?$char_traits@D@std@@V?$allocator@D@2@@std@@V12@@std@@@2@$0A@@std@@@std@@QAE@ABV?$_Uhash_compare@V?$basic_string@DU?$char_traits@D@std@@V?$allocator@D@2@@std@@U?$hash@V?$basic_string@DU?$char_traits@D@std@@V?$allocator@D@2@@std@@@2@U?$equal_to@V?$basic_string@DU?$char_traits@D@std@@V?$allocator@D@2@@std@@@2@@1@ABV?$allocator@U?$pair@$$CBV?$basic_string@DU?$char_traits@D@std@@V?$allocator@D@2@@std@@V12@@std@@@1@@Z 10025010 f i Configuration.obj
 0001:000240b0       ??0?$_Hash@V?$_Umap_traits@V?$basic_string@DU?$char_traits@D@std@@V?$allocator@D@2@@std@@V?$set@V?$basic_string@DU?$char_traits@D@std@@V?$allocator@D@2@@std@@U?$less@V?$basic_string@DU?$char_traits@D@std@@V?$allocator@D@2@@std@@@2@V?$allocator@V?$basic_string@DU?$char_traits@D@std@@V?$allocator@D@2@@std@@@2@@2@V?$_Uhash_compare@V?$basic_string@DU?$char_traits@D@std@@V?$allocator@D@2@@std@@U?$hash@V?$basic_string@DU?$char_traits@D@std@@V?$allocator@D@2@@std@@@2@U?$equal_to@V?$basic_string@DU?$char_traits@D@std@@V?$allocator@D@2@@std@@@2@@2@V?$allocator@U?$pair@$$CBV?$basic_string@DU?$char_traits@D@std@@V?$allocator@D@2@@std@@V?$set@V?$basic_string@DU?$char_traits@D@std@@V?$allocator@D@2@@std@@U?$less@V?$basic_string@DU?$char_traits@D@std@@V?$allocator@D@2@@std@@@2@V?$allocator@V?$basic_string@DU?$char_traits@D@std@@V?$allocator@D@2@@std@@@2@@2@@std@@@2@$0A@@std@@@std@@QAE@ABV?$_Uhash_compare@V?$basic_string@DU?$char_traits@D@std@@V?$allocator@D@2@@std@@U?$hash@V?$basic_string@DU?$char_traits@D@std@@V?$allocator@D@2@@std@@@2@U?$equal_to@V?$basic_string@DU?$char_traits@D@std@@V?$allocator@D@2@@std@@@2@@1@ABV?$allocator@U?$pair@$$CBV?$basic_string@DU?$char_traits@D@std@@V?$allocator@D@2@@std@@V?$set@V?$basic_string@DU?$char_traits@D@std@@V?$allocator@D@2@@std@@U?$less@V?$basic_string@DU?$char_traits@D@std@@V?$allocator@D@2@@std@@@2@V?$allocator@V?$basic_string@DU?$char_traits@D@std@@V?$allocator@D@2@@std@@@2@@2@@std@@@1@@Z 100250b0 f i Configuration.obj
 0001:00024150       ??0?$_Uhash_compare@V?$basic_string@DU?$char_traits@D@std@@V?$allocator@D@2@@std@@U?$hash@V?$basic_string@DU?$char_traits@D@std@@V?$allocator@D@2@@std@@@2@U?$equal_to@V?$basic_string@DU?$char_traits@D@std@@V?$allocator@D@2@@std@@@2@@std@@QAE@U?$hash@V?$basic_string@DU?$char_traits@D@std@@V?$allocator@D@2@@std@@@1@U?$equal_to@V?$basic_string@DU?$char_traits@D@std@@V?$allocator@D@2@@std@@@1@@Z 10025150 f i Configuration.obj
 0001:00024150       ??0?$_Uhash_compare@PADU?$hash@PAD@std@@U?$equal_to@PAD@2@@std@@QAE@U?$hash@PAD@1@U?$equal_to@PAD@1@@Z 10025150 f i Hooks.obj
 0001:00024190       ??0?$_Vector_alloc@U?$_Vec_base_types@PAV?$ConfigValue@_N@@V?$allocator@PAV?$ConfigValue@_N@@@std@@@std@@@std@@QAE@XZ 10025190 f i Configuration.obj
 0001:00024190       ??0?$_Vector_alloc@U?$_Vec_base_types@HV?$allocator@H@std@@@std@@@std@@QAE@XZ 10025190 f i Utilities.obj
 0001:00024190       ??0?$_Vector_alloc@U?$_Vec_base_types@VVector@@V?$allocator@VVector@@@std@@@std@@@std@@QAE@XZ 10025190 f i ESP.obj
 0001:00024190       ??0?$_Vector_alloc@U?$_Vec_base_types@PAURecvTable@@V?$allocator@PAURecvTable@@@std@@@std@@@std@@QAE@XZ 10025190 f i NetVarManager.obj
 0001:00024190       ??0?$_Vector_alloc@U?$_Vec_base_types@V?$basic_string@DU?$char_traits@D@std@@V?$allocator@D@2@@std@@V?$allocator@V?$basic_string@DU?$char_traits@D@std@@V?$allocator@D@2@@std@@@2@@std@@@std@@QAE@XZ 10025190 f i Configuration.obj
 0001:00024190       ??0?$_Vector_alloc@U?$_Vec_base_types@PAV?$ConfigValue@H@@V?$allocator@PAV?$ConfigValue@H@@@std@@@std@@@std@@QAE@XZ 10025190 f i Configuration.obj
 0001:00024190       ??0?$_Vector_alloc@U?$_Vec_base_types@_SV?$allocator@_S@std@@@std@@@std@@QAE@XZ 10025190 f i Parser.obj
 0001:00024190       ??0?$_Vector_alloc@U?$_Vec_base_types@PAV?$ConfigValue@M@@V?$allocator@PAV?$ConfigValue@M@@@std@@@std@@@std@@QAE@XZ 10025190 f i Configuration.obj
 0001:00024190       ??0?$_Vector_alloc@U?$_Vec_base_types@V?$shared_ptr@VNode@valve_parser@@@std@@V?$allocator@V?$shared_ptr@VNode@valve_parser@@@std@@@2@@std@@@std@@QAE@XZ 10025190 f i Parser.obj
 0001:000241b0       ??0?$_Vector_val@U?$_Simple_types@_S@std@@@std@@QAE@XZ 100251b0 f i Parser.obj
 0001:000241b0       ??0?$_Vector_val@U?$_Simple_types@V?$_List_unchecked_iterator@V?$_List_val@U?$_List_simple_types@U?$pair@$$CBV?$basic_string@DU?$char_traits@D@std@@V?$allocator@D@2@@std@@UskinInfo@@@std@@@std@@@std@@@std@@@std@@@std@@QAE@XZ 100251b0 f i Configuration.obj
 0001:000241b0       ??0?$_Vector_val@U?$_Simple_types@V?$shared_ptr@VNode@valve_parser@@@std@@@std@@@std@@QAE@XZ 100251b0 f i Parser.obj
 0001:000241b0       ??0?$_Vector_val@U?$_Simple_types@V?$_List_unchecked_iterator@V?$_List_val@U?$_List_simple_types@U?$pair@QADPAD@std@@@std@@@std@@@std@@@std@@@std@@QAE@XZ 100251b0 f i Hooks.obj
 0001:000241b0       ??0?$_Vector_val@U?$_Simple_types@VVector@@@std@@@std@@QAE@XZ 100251b0 f i ESP.obj
 0001:000241b0       ??0?$_Vector_val@U?$_Simple_types@PAV?$ConfigValue@M@@@std@@@std@@QAE@XZ 100251b0 f i Configuration.obj
 0001:000241b0       ??0?$_Vector_val@U?$_Simple_types@V?$_List_unchecked_iterator@V?$_List_val@U?$_List_simple_types@U?$pair@$$CBV?$basic_string@DU?$char_traits@D@std@@V?$allocator@D@2@@std@@V?$set@V?$basic_string@DU?$char_traits@D@std@@V?$allocator@D@2@@std@@U?$less@V?$basic_string@DU?$char_traits@D@std@@V?$allocator@D@2@@std@@@2@V?$allocator@V?$basic_string@DU?$char_traits@D@std@@V?$allocator@D@2@@std@@@2@@2@@std@@@std@@@std@@@std@@@std@@@std@@QAE@XZ 100251b0 f i Configuration.obj
 0001:000241b0       ??0?$_Vector_val@U?$_Simple_types@PAV?$ConfigValue@_N@@@std@@@std@@QAE@XZ 100251b0 f i Configuration.obj
 0001:000241b0       ??0?$_Vector_val@U?$_Simple_types@H@std@@@std@@QAE@XZ 100251b0 f i LegitBot.obj
 0001:000241b0       ??0?$_Vector_val@U?$_Simple_types@V?$_List_unchecked_iterator@V?$_List_val@U?$_List_simple_types@U?$pair@$$CBV?$basic_string@DU?$char_traits@D@std@@V?$allocator@D@2@@std@@V12@@std@@@std@@@std@@@std@@@std@@@std@@QAE@XZ 100251b0 f i Configuration.obj
 0001:000241b0       ??0?$_Vector_val@U?$_Simple_types@V?$basic_string@DU?$char_traits@D@std@@V?$allocator@D@2@@std@@@std@@@std@@QAE@XZ 100251b0 f i Configuration.obj
 0001:000241b0       ??0?$_Vector_val@U?$_Simple_types@PAV?$ConfigValue@H@@@std@@@std@@QAE@XZ 100251b0 f i Configuration.obj
 0001:000241b0       ??0?$_Vector_val@U?$_Simple_types@PAURecvTable@@@std@@@std@@QAE@XZ 100251b0 f i NetVarManager.obj
 0001:000241e0       ??0?$basic_string@DU?$char_traits@D@std@@V?$allocator@D@2@@std@@QAE@$$QAV01@@Z 100251e0 f i Configuration.obj
 0001:00024250       ??0?$basic_string@DU?$char_traits@D@std@@V?$allocator@D@2@@std@@QAE@ABV01@@Z 10025250 f i Configuration.obj
 0001:000242c0       ??0?$basic_string@DU?$char_traits@D@std@@V?$allocator@D@2@@std@@QAE@ID@Z 100252c0 f i Configuration.obj
 0001:00024320       ??0?$basic_string@DU?$char_traits@D@std@@V?$allocator@D@2@@std@@QAE@XZ 10025320 f i Configuration.obj
 0001:00024360       ??0?$list@U?$pair@$$CBV?$basic_string@DU?$char_traits@D@std@@V?$allocator@D@2@@std@@UskinInfo@@@std@@V?$allocator@U?$pair@$$CBV?$basic_string@DU?$char_traits@D@std@@V?$allocator@D@2@@std@@UskinInfo@@@std@@@2@@std@@QAE@ABV?$allocator@U?$pair@$$CBV?$basic_string@DU?$char_traits@D@std@@V?$allocator@D@2@@std@@UskinInfo@@@std@@@1@@Z 10025360 f i Configuration.obj
 0001:00024380       ??0?$list@U?$pair@$$CBV?$basic_string@DU?$char_traits@D@std@@V?$allocator@D@2@@std@@V12@@std@@V?$allocator@U?$pair@$$CBV?$basic_string@DU?$char_traits@D@std@@V?$allocator@D@2@@std@@V12@@std@@@2@@std@@QAE@ABV?$allocator@U?$pair@$$CBV?$basic_string@DU?$char_traits@D@std@@V?$allocator@D@2@@std@@V12@@std@@@1@@Z 10025380 f i Configuration.obj
 0001:000243a0       ??0?$list@U?$pair@$$CBV?$basic_string@DU?$char_traits@D@std@@V?$allocator@D@2@@std@@V?$set@V?$basic_string@DU?$char_traits@D@std@@V?$allocator@D@2@@std@@U?$less@V?$basic_string@DU?$char_traits@D@std@@V?$allocator@D@2@@std@@@2@V?$allocator@V?$basic_string@DU?$char_traits@D@std@@V?$allocator@D@2@@std@@@2@@2@@std@@V?$allocator@U?$pair@$$CBV?$basic_string@DU?$char_traits@D@std@@V?$allocator@D@2@@std@@V?$set@V?$basic_string@DU?$char_traits@D@std@@V?$allocator@D@2@@std@@U?$less@V?$basic_string@DU?$char_traits@D@std@@V?$allocator@D@2@@std@@@2@V?$allocator@V?$basic_string@DU?$char_traits@D@std@@V?$allocator@D@2@@std@@@2@@2@@std@@@2@@std@@QAE@ABV?$allocator@U?$pair@$$CBV?$basic_string@DU?$char_traits@D@std@@V?$allocator@D@2@@std@@V?$set@V?$basic_string@DU?$char_traits@D@std@@V?$allocator@D@2@@std@@U?$less@V?$basic_string@DU?$char_traits@D@std@@V?$allocator@D@2@@std@@@2@V?$allocator@V?$basic_string@DU?$char_traits@D@std@@V?$allocator@D@2@@std@@@2@@2@@std@@@1@@Z 100253a0 f i Configuration.obj
 0001:000243c0       ??0?$unordered_map@V?$basic_string@DU?$char_traits@D@std@@V?$allocator@D@2@@std@@UskinInfo@@U?$hash@V?$basic_string@DU?$char_traits@D@std@@V?$allocator@D@2@@std@@@2@U?$equal_to@V?$basic_string@DU?$char_traits@D@std@@V?$allocator@D@2@@std@@@2@V?$allocator@U?$pair@$$CBV?$basic_string@DU?$char_traits@D@std@@V?$allocator@D@2@@std@@UskinInfo@@@std@@@2@@std@@QAE@XZ 100253c0 f i Configuration.obj
 0001:00024400       ??0?$unordered_map@V?$basic_string@DU?$char_traits@D@std@@V?$allocator@D@2@@std@@V12@U?$hash@V?$basic_string@DU?$char_traits@D@std@@V?$allocator@D@2@@std@@@2@U?$equal_to@V?$basic_string@DU?$char_traits@D@std@@V?$allocator@D@2@@std@@@2@V?$allocator@U?$pair@$$CBV?$basic_string@DU?$char_traits@D@std@@V?$allocator@D@2@@std@@V12@@std@@@2@@std@@QAE@XZ 10025400 f i Configuration.obj
 0001:00024440       ??0?$unordered_map@V?$basic_string@DU?$char_traits@D@std@@V?$allocator@D@2@@std@@V?$set@V?$basic_string@DU?$char_traits@D@std@@V?$allocator@D@2@@std@@U?$less@V?$basic_string@DU?$char_traits@D@std@@V?$allocator@D@2@@std@@@2@V?$allocator@V?$basic_string@DU?$char_traits@D@std@@V?$allocator@D@2@@std@@@2@@2@U?$hash@V?$basic_string@DU?$char_traits@D@std@@V?$allocator@D@2@@std@@@2@U?$equal_to@V?$basic_string@DU?$char_traits@D@std@@V?$allocator@D@2@@std@@@2@V?$allocator@U?$pair@$$CBV?$basic_string@DU?$char_traits@D@std@@V?$allocator@D@2@@std@@V?$set@V?$basic_string@DU?$char_traits@D@std@@V?$allocator@D@2@@std@@U?$less@V?$basic_string@DU?$char_traits@D@std@@V?$allocator@D@2@@std@@@2@V?$allocator@V?$basic_string@DU?$char_traits@D@std@@V?$allocator@D@2@@std@@@2@@2@@std@@@2@@std@@QAE@XZ 10025440 f i Configuration.obj
 0001:00024480       ??0?$vector@V?$_List_unchecked_iterator@V?$_List_val@U?$_List_simple_types@U?$pair@$$CBV?$basic_string@DU?$char_traits@D@std@@V?$allocator@D@2@@std@@V12@@std@@@std@@@std@@@std@@V?$allocator@V?$_List_unchecked_iterator@V?$_List_val@U?$_List_simple_types@U?$pair@$$CBV?$basic_string@DU?$char_traits@D@std@@V?$allocator@D@2@@std@@V12@@std@@@std@@@std@@@std@@@2@@std@@QAE@ABV?$allocator@V?$_List_unchecked_iterator@V?$_List_val@U?$_List_simple_types@U?$pair@$$CBV?$basic_string@DU?$char_traits@D@std@@V?$allocator@D@2@@std@@V12@@std@@@std@@@std@@@std@@@1@@Z 10025480 f i Configuration.obj
 0001:00024480       ??0?$vector@V?$_List_unchecked_iterator@V?$_List_val@U?$_List_simple_types@U?$pair@$$CBV?$basic_string@DU?$char_traits@D@std@@V?$allocator@D@2@@std@@V?$set@V?$basic_string@DU?$char_traits@D@std@@V?$allocator@D@2@@std@@U?$less@V?$basic_string@DU?$char_traits@D@std@@V?$allocator@D@2@@std@@@2@V?$allocator@V?$basic_string@DU?$char_traits@D@std@@V?$allocator@D@2@@std@@@2@@2@@std@@@std@@@std@@@std@@V?$allocator@V?$_List_unchecked_iterator@V?$_List_val@U?$_List_simple_types@U?$pair@$$CBV?$basic_string@DU?$char_traits@D@std@@V?$allocator@D@2@@std@@V?$set@V?$basic_string@DU?$char_traits@D@std@@V?$allocator@D@2@@std@@U?$less@V?$basic_string@DU?$char_traits@D@std@@V?$allocator@D@2@@std@@@2@V?$allocator@V?$basic_string@DU?$char_traits@D@std@@V?$allocator@D@2@@std@@@2@@2@@std@@@std@@@std@@@std@@@2@@std@@QAE@ABV?$allocator@V?$_List_unchecked_iterator@V?$_List_val@U?$_List_simple_types@U?$pair@$$CBV?$basic_string@DU?$char_traits@D@std@@V?$allocator@D@2@@std@@V?$set@V?$basic_string@DU?$char_traits@D@std@@V?$allocator@D@2@@std@@U?$less@V?$basic_string@DU?$char_traits@D@std@@V?$allocator@D@2@@std@@@2@V?$allocator@V?$basic_string@DU?$char_traits@D@std@@V?$allocator@D@2@@std@@@2@@2@@std@@@std@@@std@@@std@@@1@@Z 10025480 f i Configuration.obj
 0001:00024480       ??0?$vector@V?$_List_unchecked_iterator@V?$_List_val@U?$_List_simple_types@U?$pair@QADPAD@std@@@std@@@std@@@std@@V?$allocator@V?$_List_unchecked_iterator@V?$_List_val@U?$_List_simple_types@U?$pair@QADPAD@std@@@std@@@std@@@std@@@2@@std@@QAE@ABV?$allocator@V?$_List_unchecked_iterator@V?$_List_val@U?$_List_simple_types@U?$pair@QADPAD@std@@@std@@@std@@@std@@@1@@Z 10025480 f i Hooks.obj
 0001:00024480       ??0?$vector@V?$_List_unchecked_iterator@V?$_List_val@U?$_List_simple_types@U?$pair@$$CBV?$basic_string@DU?$char_traits@D@std@@V?$allocator@D@2@@std@@UskinInfo@@@std@@@std@@@std@@@std@@V?$allocator@V?$_List_unchecked_iterator@V?$_List_val@U?$_List_simple_types@U?$pair@$$CBV?$basic_string@DU?$char_traits@D@std@@V?$allocator@D@2@@std@@UskinInfo@@@std@@@std@@@std@@@std@@@2@@std@@QAE@ABV?$allocator@V?$_List_unchecked_iterator@V?$_List_val@U?$_List_simple_types@U?$pair@$$CBV?$basic_string@DU?$char_traits@D@std@@V?$allocator@D@2@@std@@UskinInfo@@@std@@@std@@@std@@@std@@@1@@Z 10025480 f i Configuration.obj
 0001:000244c0       ??0CConfig@@QAE@XZ         100254c0 f i Configuration.obj
 0001:00024530       ??0Ragebot_s@Variables@@QAE@XZ 10025530 f i Configuration.obj
 0001:00024550       ??0Variables@@QAE@XZ       10025550 f i Configuration.obj
 0001:000245c0       ??0WeaponCFG@<unnamed-type-Skinchanger>@Variables@@QAE@XZ 100255c0 f i Configuration.obj
 0001:00024630       ??1<unnamed-type-Skinchanger>@Variables@@QAE@XZ 10025630 f i Configuration.obj
 0001:00024670       ??1?$_Hash@V?$_Umap_traits@V?$basic_string@DU?$char_traits@D@std@@V?$allocator@D@2@@std@@UskinInfo@@V?$_Uhash_compare@V?$basic_string@DU?$char_traits@D@std@@V?$allocator@D@2@@std@@U?$hash@V?$basic_string@DU?$char_traits@D@std@@V?$allocator@D@2@@std@@@2@U?$equal_to@V?$basic_string@DU?$char_traits@D@std@@V?$allocator@D@2@@std@@@2@@2@V?$allocator@U?$pair@$$CBV?$basic_string@DU?$char_traits@D@std@@V?$allocator@D@2@@std@@UskinInfo@@@std@@@2@$0A@@std@@@std@@QAE@XZ 10025670 f i Configuration.obj
 0001:000246a0       ??1?$_Hash@V?$_Umap_traits@V?$basic_string@DU?$char_traits@D@std@@V?$allocator@D@2@@std@@V12@V?$_Uhash_compare@V?$basic_string@DU?$char_traits@D@std@@V?$allocator@D@2@@std@@U?$hash@V?$basic_string@DU?$char_traits@D@std@@V?$allocator@D@2@@std@@@2@U?$equal_to@V?$basic_string@DU?$char_traits@D@std@@V?$allocator@D@2@@std@@@2@@2@V?$allocator@U?$pair@$$CBV?$basic_string@DU?$char_traits@D@std@@V?$allocator@D@2@@std@@V12@@std@@@2@$0A@@std@@@std@@QAE@XZ 100256a0 f i Configuration.obj
 0001:000246d0       ??1?$_Hash@V?$_Umap_traits@V?$basic_string@DU?$char_traits@D@std@@V?$allocator@D@2@@std@@V?$set@V?$basic_string@DU?$char_traits@D@std@@V?$allocator@D@2@@std@@U?$less@V?$basic_string@DU?$char_traits@D@std@@V?$allocator@D@2@@std@@@2@V?$allocator@V?$basic_string@DU?$char_traits@D@std@@V?$allocator@D@2@@std@@@2@@2@V?$_Uhash_compare@V?$basic_string@DU?$char_traits@D@std@@V?$allocator@D@2@@std@@U?$hash@V?$basic_string@DU?$char_traits@D@std@@V?$allocator@D@2@@std@@@2@U?$equal_to@V?$basic_string@DU?$char_traits@D@std@@V?$allocator@D@2@@std@@@2@@2@V?$allocator@U?$pair@$$CBV?$basic_string@DU?$char_traits@D@std@@V?$allocator@D@2@@std@@V?$set@V?$basic_string@DU?$char_traits@D@std@@V?$allocator@D@2@@std@@U?$less@V?$basic_string@DU?$char_traits@D@std@@V?$allocator@D@2@@std@@@2@V?$allocator@V?$basic_string@DU?$char_traits@D@std@@V?$allocator@D@2@@std@@@2@@2@@std@@@2@$0A@@std@@@std@@QAE@XZ 100256d0 f i Configuration.obj
 0001:00024700       ??1?$_List_alloc@U?$_List_base_types@U?$pair@$$CBV?$basic_string@DU?$char_traits@D@std@@V?$allocator@D@2@@std@@UskinInfo@@@std@@V?$allocator@U?$pair@$$CBV?$basic_string@DU?$char_traits@D@std@@V?$allocator@D@2@@std@@UskinInfo@@@std@@@2@@std@@@std@@QAE@XZ 10025700 f i Configuration.obj
 0001:00024740       ??1?$_List_alloc@U?$_List_base_types@U?$pair@$$CBV?$basic_string@DU?$char_traits@D@std@@V?$allocator@D@2@@std@@V12@@std@@V?$allocator@U?$pair@$$CBV?$basic_string@DU?$char_traits@D@std@@V?$allocator@D@2@@std@@V12@@std@@@2@@std@@@std@@QAE@XZ 10025740 f i Configuration.obj
 0001:00024780       ??1?$_List_alloc@U?$_List_base_types@U?$pair@$$CBV?$basic_string@DU?$char_traits@D@std@@V?$allocator@D@2@@std@@V?$set@V?$basic_string@DU?$char_traits@D@std@@V?$allocator@D@2@@std@@U?$less@V?$basic_string@DU?$char_traits@D@std@@V?$allocator@D@2@@std@@@2@V?$allocator@V?$basic_string@DU?$char_traits@D@std@@V?$allocator@D@2@@std@@@2@@2@@std@@V?$allocator@U?$pair@$$CBV?$basic_string@DU?$char_traits@D@std@@V?$allocator@D@2@@std@@V?$set@V?$basic_string@DU?$char_traits@D@std@@V?$allocator@D@2@@std@@U?$less@V?$basic_string@DU?$char_traits@D@std@@V?$allocator@D@2@@std@@@2@V?$allocator@V?$basic_string@DU?$char_traits@D@std@@V?$allocator@D@2@@std@@@2@@2@@std@@@2@@std@@@std@@QAE@XZ 10025780 f i Configuration.obj
 0001:000247c0       ??1?$_List_buy@U?$pair@$$CBV?$basic_string@DU?$char_traits@D@std@@V?$allocator@D@2@@std@@UskinInfo@@@std@@V?$allocator@U?$pair@$$CBV?$basic_string@DU?$char_traits@D@std@@V?$allocator@D@2@@std@@UskinInfo@@@std@@@2@@std@@QAE@XZ 100257c0 f i Configuration.obj
 0001:000247e0       ??1?$_List_buy@U?$pair@$$CBV?$basic_string@DU?$char_traits@D@std@@V?$allocator@D@2@@std@@V12@@std@@V?$allocator@U?$pair@$$CBV?$basic_string@DU?$char_traits@D@std@@V?$allocator@D@2@@std@@V12@@std@@@2@@std@@QAE@XZ 100257e0 f i Configuration.obj
 0001:00024800       ??1?$_List_buy@U?$pair@$$CBV?$basic_string@DU?$char_traits@D@std@@V?$allocator@D@2@@std@@V?$set@V?$basic_string@DU?$char_traits@D@std@@V?$allocator@D@2@@std@@U?$less@V?$basic_string@DU?$char_traits@D@std@@V?$allocator@D@2@@std@@@2@V?$allocator@V?$basic_string@DU?$char_traits@D@std@@V?$allocator@D@2@@std@@@2@@2@@std@@V?$allocator@U?$pair@$$CBV?$basic_string@DU?$char_traits@D@std@@V?$allocator@D@2@@std@@V?$set@V?$basic_string@DU?$char_traits@D@std@@V?$allocator@D@2@@std@@U?$less@V?$basic_string@DU?$char_traits@D@std@@V?$allocator@D@2@@std@@@2@V?$allocator@V?$basic_string@DU?$char_traits@D@std@@V?$allocator@D@2@@std@@@2@@2@@std@@@2@@std@@QAE@XZ 10025800 f i Configuration.obj
 0001:00024820       ??1?$_Tree@V?$_Tset_traits@V?$basic_string@DU?$char_traits@D@std@@V?$allocator@D@2@@std@@U?$less@V?$basic_string@DU?$char_traits@D@std@@V?$allocator@D@2@@std@@@2@V?$allocator@V?$basic_string@DU?$char_traits@D@std@@V?$allocator@D@2@@std@@@2@$0A@@std@@@std@@QAE@XZ 10025820 f i Configuration.obj
 0001:00024860       ??1?$_Tree_comp_alloc@V?$_Tset_traits@V?$basic_string@DU?$char_traits@D@std@@V?$allocator@D@2@@std@@U?$less@V?$basic_string@DU?$char_traits@D@std@@V?$allocator@D@2@@std@@@2@V?$allocator@V?$basic_string@DU?$char_traits@D@std@@V?$allocator@D@2@@std@@@2@$0A@@std@@@std@@QAE@XZ 10025860 f i Configuration.obj
 0001:000248a0       ??1?$list@U?$pair@$$CBV?$basic_string@DU?$char_traits@D@std@@V?$allocator@D@2@@std@@UskinInfo@@@std@@V?$allocator@U?$pair@$$CBV?$basic_string@DU?$char_traits@D@std@@V?$allocator@D@2@@std@@UskinInfo@@@std@@@2@@std@@QAE@XZ 100258a0 f i Configuration.obj
 0001:000248e0       ??1?$list@U?$pair@$$CBV?$basic_string@DU?$char_traits@D@std@@V?$allocator@D@2@@std@@V12@@std@@V?$allocator@U?$pair@$$CBV?$basic_string@DU?$char_traits@D@std@@V?$allocator@D@2@@std@@V12@@std@@@2@@std@@QAE@XZ 100258e0 f i Configuration.obj
 0001:00024920       ??1?$list@U?$pair@$$CBV?$basic_string@DU?$char_traits@D@std@@V?$allocator@D@2@@std@@V?$set@V?$basic_string@DU?$char_traits@D@std@@V?$allocator@D@2@@std@@U?$less@V?$basic_string@DU?$char_traits@D@std@@V?$allocator@D@2@@std@@@2@V?$allocator@V?$basic_string@DU?$char_traits@D@std@@V?$allocator@D@2@@std@@@2@@2@@std@@V?$allocator@U?$pair@$$CBV?$basic_string@DU?$char_traits@D@std@@V?$allocator@D@2@@std@@V?$set@V?$basic_string@DU?$char_traits@D@std@@V?$allocator@D@2@@std@@U?$less@V?$basic_string@DU?$char_traits@D@std@@V?$allocator@D@2@@std@@@2@V?$allocator@V?$basic_string@DU?$char_traits@D@std@@V?$allocator@D@2@@std@@@2@@2@@std@@@2@@std@@QAE@XZ 10025920 f i Configuration.obj
 0001:00024960       ??1?$pair@$$CBV?$basic_string@DU?$char_traits@D@std@@V?$allocator@D@2@@std@@UskinInfo@@@std@@QAE@XZ 10025960 f i Configuration.obj
 0001:00024980       ??1?$pair@$$CBV?$basic_string@DU?$char_traits@D@std@@V?$allocator@D@2@@std@@V12@@std@@QAE@XZ 10025980 f i Configuration.obj
 0001:000249a0       ??1?$pair@$$CBV?$basic_string@DU?$char_traits@D@std@@V?$allocator@D@2@@std@@V?$set@V?$basic_string@DU?$char_traits@D@std@@V?$allocator@D@2@@std@@U?$less@V?$basic_string@DU?$char_traits@D@std@@V?$allocator@D@2@@std@@@2@V?$allocator@V?$basic_string@DU?$char_traits@D@std@@V?$allocator@D@2@@std@@@2@@2@@std@@QAE@XZ 100259a0 f i Configuration.obj
 0001:000249c0       ??1?$set@V?$basic_string@DU?$char_traits@D@std@@V?$allocator@D@2@@std@@U?$less@V?$basic_string@DU?$char_traits@D@std@@V?$allocator@D@2@@std@@@2@V?$allocator@V?$basic_string@DU?$char_traits@D@std@@V?$allocator@D@2@@std@@@2@@std@@QAE@XZ 100259c0 f i Configuration.obj
 0001:000249e0       ??1?$unordered_map@V?$basic_string@DU?$char_traits@D@std@@V?$allocator@D@2@@std@@UskinInfo@@U?$hash@V?$basic_string@DU?$char_traits@D@std@@V?$allocator@D@2@@std@@@2@U?$equal_to@V?$basic_string@DU?$char_traits@D@std@@V?$allocator@D@2@@std@@@2@V?$allocator@U?$pair@$$CBV?$basic_string@DU?$char_traits@D@std@@V?$allocator@D@2@@std@@UskinInfo@@@std@@@2@@std@@QAE@XZ 100259e0 f i Configuration.obj
 0001:00024a00       ??1?$unordered_map@V?$basic_string@DU?$char_traits@D@std@@V?$allocator@D@2@@std@@V12@U?$hash@V?$basic_string@DU?$char_traits@D@std@@V?$allocator@D@2@@std@@@2@U?$equal_to@V?$basic_string@DU?$char_traits@D@std@@V?$allocator@D@2@@std@@@2@V?$allocator@U?$pair@$$CBV?$basic_string@DU?$char_traits@D@std@@V?$allocator@D@2@@std@@V12@@std@@@2@@std@@QAE@XZ 10025a00 f i Configuration.obj
 0001:00024a20       ??1?$unordered_map@V?$basic_string@DU?$char_traits@D@std@@V?$allocator@D@2@@std@@V?$set@V?$basic_string@DU?$char_traits@D@std@@V?$allocator@D@2@@std@@U?$less@V?$basic_string@DU?$char_traits@D@std@@V?$allocator@D@2@@std@@@2@V?$allocator@V?$basic_string@DU?$char_traits@D@std@@V?$allocator@D@2@@std@@@2@@2@U?$hash@V?$basic_string@DU?$char_traits@D@std@@V?$allocator@D@2@@std@@@2@U?$equal_to@V?$basic_string@DU?$char_traits@D@std@@V?$allocator@D@2@@std@@@2@V?$allocator@U?$pair@$$CBV?$basic_string@DU?$char_traits@D@std@@V?$allocator@D@2@@std@@V?$set@V?$basic_string@DU?$char_traits@D@std@@V?$allocator@D@2@@std@@U?$less@V?$basic_string@DU?$char_traits@D@std@@V?$allocator@D@2@@std@@@2@V?$allocator@V?$basic_string@DU?$char_traits@D@std@@V?$allocator@D@2@@std@@@2@@2@@std@@@2@@std@@QAE@XZ 10025a20 f i Configuration.obj
 0001:00024a40       ??1?$vector@PAV?$ConfigValue@H@@V?$allocator@PAV?$ConfigValue@H@@@std@@@std@@QAE@XZ 10025a40 f i Configuration.obj
 0001:00024a40       ??1?$vector@V?$_List_unchecked_iterator@V?$_List_val@U?$_List_simple_types@U?$pair@$$CBV?$basic_string@DU?$char_traits@D@std@@V?$allocator@D@2@@std@@UskinInfo@@@std@@@std@@@std@@@std@@V?$allocator@V?$_List_unchecked_iterator@V?$_List_val@U?$_List_simple_types@U?$pair@$$CBV?$basic_string@DU?$char_traits@D@std@@V?$allocator@D@2@@std@@UskinInfo@@@std@@@std@@@std@@@std@@@2@@std@@QAE@XZ 10025a40 f i Configuration.obj
 0001:00024a40       ??1?$vector@PAV?$ConfigValue@_N@@V?$allocator@PAV?$ConfigValue@_N@@@std@@@std@@QAE@XZ 10025a40 f i Configuration.obj
 0001:00024a40       ??1?$vector@HV?$allocator@H@std@@@std@@QAE@XZ 10025a40 f i LegitBot.obj
 0001:00024a40       ??1?$vector@V?$_List_unchecked_iterator@V?$_List_val@U?$_List_simple_types@U?$pair@$$CBV?$basic_string@DU?$char_traits@D@std@@V?$allocator@D@2@@std@@V?$set@V?$basic_string@DU?$char_traits@D@std@@V?$allocator@D@2@@std@@U?$less@V?$basic_string@DU?$char_traits@D@std@@V?$allocator@D@2@@std@@@2@V?$allocator@V?$basic_string@DU?$char_traits@D@std@@V?$allocator@D@2@@std@@@2@@2@@std@@@std@@@std@@@std@@V?$allocator@V?$_List_unchecked_iterator@V?$_List_val@U?$_List_simple_types@U?$pair@$$CBV?$basic_string@DU?$char_traits@D@std@@V?$allocator@D@2@@std@@V?$set@V?$basic_string@DU?$char_traits@D@std@@V?$allocator@D@2@@std@@U?$less@V?$basic_string@DU?$char_traits@D@std@@V?$allocator@D@2@@std@@@2@V?$allocator@V?$basic_string@DU?$char_traits@D@std@@V?$allocator@D@2@@std@@@2@@2@@std@@@std@@@std@@@std@@@2@@std@@QAE@XZ 10025a40 f i Configuration.obj
 0001:00024a40       ??1?$vector@PAV?$ConfigValue@M@@V?$allocator@PAV?$ConfigValue@M@@@std@@@std@@QAE@XZ 10025a40 f i Configuration.obj
 0001:00024a40       ??1?$vector@V?$_List_unchecked_iterator@V?$_List_val@U?$_List_simple_types@U?$pair@QADPAD@std@@@std@@@std@@@std@@V?$allocator@V?$_List_unchecked_iterator@V?$_List_val@U?$_List_simple_types@U?$pair@QADPAD@std@@@std@@@std@@@std@@@2@@std@@QAE@XZ 10025a40 f i Hooks.obj
 0001:00024a40       ??1?$vector@V?$_List_unchecked_iterator@V?$_List_val@U?$_List_simple_types@U?$pair@$$CBV?$basic_string@DU?$char_traits@D@std@@V?$allocator@D@2@@std@@V12@@std@@@std@@@std@@@std@@V?$allocator@V?$_List_unchecked_iterator@V?$_List_val@U?$_List_simple_types@U?$pair@$$CBV?$basic_string@DU?$char_traits@D@std@@V?$allocator@D@2@@std@@V12@@std@@@std@@@std@@@std@@@2@@std@@QAE@XZ 10025a40 f i Configuration.obj
 0001:00024a80       ??1?$vector@V?$basic_string@DU?$char_traits@D@std@@V?$allocator@D@2@@std@@V?$allocator@V?$basic_string@DU?$char_traits@D@std@@V?$allocator@D@2@@std@@@2@@std@@QAE@XZ 10025a80 f i Configuration.obj
 0001:00024ac0       ??1Variables@@QAE@XZ       10025ac0 f i Configuration.obj
 0001:00024ae0       ??1skinInfo@@QAE@XZ        10025ae0 f i Configuration.obj
 0001:00024b00       ??4?$basic_string@DU?$char_traits@D@std@@V?$allocator@D@2@@std@@QAEAAV01@$$QAV01@@Z 10025b00 f i Configuration.obj
 0001:00024b80       ??4?$basic_string@DU?$char_traits@D@std@@V?$allocator@D@2@@std@@QAEAAV01@ABV01@@Z 10025b80 f i Configuration.obj
 0001:00024bf0       ??8?$_List_const_iterator@V?$_List_val@U?$_List_simple_types@U?$pair@$$CBV?$basic_string@DU?$char_traits@D@std@@V?$allocator@D@2@@std@@UskinInfo@@@std@@@std@@@std@@@std@@QBE_NABV01@@Z 10025bf0 f i Hooks.obj
 0001:00024bf0       ??8?$_List_const_iterator@V?$_List_val@U?$_List_simple_types@U?$pair@$$CBV?$basic_string@DU?$char_traits@D@std@@V?$allocator@D@2@@std@@V12@@std@@@std@@@std@@@std@@QBE_NABV01@@Z 10025bf0 f i Hooks.obj
 0001:00024bf0       ??8?$_List_const_iterator@V?$_List_val@U?$_List_simple_types@U?$pair@$$CBV?$basic_string@DU?$char_traits@D@std@@V?$allocator@D@2@@std@@V?$set@V?$basic_string@DU?$char_traits@D@std@@V?$allocator@D@2@@std@@U?$less@V?$basic_string@DU?$char_traits@D@std@@V?$allocator@D@2@@std@@@2@V?$allocator@V?$basic_string@DU?$char_traits@D@std@@V?$allocator@D@2@@std@@@2@@2@@std@@@std@@@std@@@std@@QBE_NABV01@@Z 10025bf0 f i Hooks.obj
 0001:00024bf0       ??8?$_List_unchecked_const_iterator@V?$_List_val@U?$_List_simple_types@U?$pair@$$CBV?$basic_string@DU?$char_traits@D@std@@V?$allocator@D@2@@std@@UskinInfo@@@std@@@std@@@std@@U_Iterator_base0@2@@std@@QBE_NABV01@@Z 10025bf0 f i Hooks.obj
 0001:00024bf0       ??8?$_Tree_const_iterator@V?$_Tree_val@U?$_Tree_simple_types@V?$basic_string@DU?$char_traits@D@std@@V?$allocator@D@2@@std@@@std@@@std@@@std@@QBE_NABV01@@Z 10025bf0 f i Configuration.obj
 0001:00024bf0       ??8?$_List_unchecked_const_iterator@V?$_List_val@U?$_List_simple_types@U?$pair@$$CBV?$basic_string@DU?$char_traits@D@std@@V?$allocator@D@2@@std@@V?$set@V?$basic_string@DU?$char_traits@D@std@@V?$allocator@D@2@@std@@U?$less@V?$basic_string@DU?$char_traits@D@std@@V?$allocator@D@2@@std@@@2@V?$allocator@V?$basic_string@DU?$char_traits@D@std@@V?$allocator@D@2@@std@@@2@@2@@std@@@std@@@std@@U_Iterator_base0@2@@std@@QBE_NABV01@@Z 10025bf0 f i Hooks.obj
 0001:00024bf0       ??8?$_List_unchecked_const_iterator@V?$_List_val@U?$_List_simple_types@U?$pair@$$CBV?$basic_string@DU?$char_traits@D@std@@V?$allocator@D@2@@std@@V12@@std@@@std@@@std@@U_Iterator_base0@2@@std@@QBE_NABV01@@Z 10025bf0 f i Hooks.obj
 0001:00024bf0       ??8?$_Tree_const_iterator@V?$_Tree_val@U?$_Tree_simple_types@U?$pair@$$CBW4ItemDefinitionIndexx@@UDefItem_t@@@std@@@std@@@std@@@std@@QBE_NABV01@@Z 10025bf0 f i recvproxy.obj
 0001:00024c20       ??A?$basic_string@DU?$char_traits@D@std@@V?$allocator@D@2@@std@@QAEAADI@Z 10025c20 f i Configuration.obj
 0001:00024c50       ??E?$_Tree_const_iterator@V?$_Tree_val@U?$_Tree_simple_types@U?$pair@$$CBW4ItemDefinitionIndexx@@UDefItem_t@@@std@@@std@@@std@@@std@@QAEAAV01@XZ 10025c50 f i recvproxy.obj
 0001:00024c50       ??E?$_Tree_const_iterator@V?$_Tree_val@U?$_Tree_simple_types@V?$basic_string@DU?$char_traits@D@std@@V?$allocator@D@2@@std@@@std@@@std@@@std@@QAEAAV01@XZ 10025c50 f i Configuration.obj
 0001:00024c70       ??E?$_Tree_unchecked_const_iterator@V?$_Tree_val@U?$_Tree_simple_types@V?$basic_string@DU?$char_traits@D@std@@V?$allocator@D@2@@std@@@std@@@std@@U_Iterator_base0@2@@std@@QAEAAV01@XZ 10025c70 f i Configuration.obj
 0001:00024c70       ??E?$_Tree_unchecked_const_iterator@V?$_Tree_val@U?$_Tree_simple_types@U?$pair@$$CBW4ItemDefinitionIndexx@@UDefItem_t@@@std@@@std@@@std@@U_Iterator_base0@2@@std@@QAEAAV01@XZ 10025c70 f i recvproxy.obj
 0001:00024e50       ??_G?$basic_string@DU?$char_traits@D@std@@V?$allocator@D@2@@std@@QAEPAXI@Z 10025e50 f i Configuration.obj
 0001:00024e80       ??_G?$pair@$$CBV?$basic_string@DU?$char_traits@D@std@@V?$allocator@D@2@@std@@UskinInfo@@@std@@QAEPAXI@Z 10025e80 f i Configuration.obj
 0001:00024eb0       ??_G?$pair@$$CBV?$basic_string@DU?$char_traits@D@std@@V?$allocator@D@2@@std@@V12@@std@@QAEPAXI@Z 10025eb0 f i Configuration.obj
 0001:00024ee0       ??_G?$pair@$$CBV?$basic_string@DU?$char_traits@D@std@@V?$allocator@D@2@@std@@V?$set@V?$basic_string@DU?$char_traits@D@std@@V?$allocator@D@2@@std@@U?$less@V?$basic_string@DU?$char_traits@D@std@@V?$allocator@D@2@@std@@@2@V?$allocator@V?$basic_string@DU?$char_traits@D@std@@V?$allocator@D@2@@std@@@2@@2@@std@@QAEPAXI@Z 10025ee0 f i Configuration.obj
 0001:00024f10       ?_Assign_rv_contents@?$basic_string@DU?$char_traits@D@std@@V?$allocator@D@2@@std@@QAEX$$QAV12@U?$integral_constant@_N$00@2@@Z 10025f10 f i Configuration.obj
 0001:00024f40       ?_Assign_rv_contents_with_alloc_always_equal@?$basic_string@DU?$char_traits@D@std@@V?$allocator@D@2@@std@@QAEX$$QAV12@U?$integral_constant@_N$00@2@@Z 10025f40 f i Configuration.obj
 0001:00024fa0       ?_Buyheadnode@?$_List_alloc@U?$_List_base_types@U?$pair@$$CBV?$basic_string@DU?$char_traits@D@std@@V?$allocator@D@2@@std@@UskinInfo@@@std@@V?$allocator@U?$pair@$$CBV?$basic_string@DU?$char_traits@D@std@@V?$allocator@D@2@@std@@UskinInfo@@@std@@@2@@std@@@std@@QAEPAU?$_List_node@U?$pair@$$CBV?$basic_string@DU?$char_traits@D@std@@V?$allocator@D@2@@std@@UskinInfo@@@std@@PAX@2@XZ 10025fa0 f i Configuration.obj
 0001:00024fc0       ?_Buyheadnode@?$_List_alloc@U?$_List_base_types@U?$pair@$$CBV?$basic_string@DU?$char_traits@D@std@@V?$allocator@D@2@@std@@V12@@std@@V?$allocator@U?$pair@$$CBV?$basic_string@DU?$char_traits@D@std@@V?$allocator@D@2@@std@@V12@@std@@@2@@std@@@std@@QAEPAU?$_List_node@U?$pair@$$CBV?$basic_string@DU?$char_traits@D@std@@V?$allocator@D@2@@std@@V12@@std@@PAX@2@XZ 10025fc0 f i Configuration.obj
 0001:00024fe0       ?_Buyheadnode@?$_List_alloc@U?$_List_base_types@U?$pair@$$CBV?$basic_string@DU?$char_traits@D@std@@V?$allocator@D@2@@std@@V?$set@V?$basic_string@DU?$char_traits@D@std@@V?$allocator@D@2@@std@@U?$less@V?$basic_string@DU?$char_traits@D@std@@V?$allocator@D@2@@std@@@2@V?$allocator@V?$basic_string@DU?$char_traits@D@std@@V?$allocator@D@2@@std@@@2@@2@@std@@V?$allocator@U?$pair@$$CBV?$basic_string@DU?$char_traits@D@std@@V?$allocator@D@2@@std@@V?$set@V?$basic_string@DU?$char_traits@D@std@@V?$allocator@D@2@@std@@U?$less@V?$basic_string@DU?$char_traits@D@std@@V?$allocator@D@2@@std@@@2@V?$allocator@V?$basic_string@DU?$char_traits@D@std@@V?$allocator@D@2@@std@@@2@@2@@std@@@2@@std@@@std@@QAEPAU?$_List_node@U?$pair@$$CBV?$basic_string@DU?$char_traits@D@std@@V?$allocator@D@2@@std@@V?$set@V?$basic_string@DU?$char_traits@D@std@@V?$allocator@D@2@@std@@U?$less@V?$basic_string@DU?$char_traits@D@std@@V?$allocator@D@2@@std@@@2@V?$allocator@V?$basic_string@DU?$char_traits@D@std@@V?$allocator@D@2@@std@@@2@@2@@std@@PAX@2@XZ 10025fe0 f i Configuration.obj
 0001:00025000       ?_Buynode0@?$_List_alloc@U?$_List_base_types@U?$pair@$$CBV?$basic_string@DU?$char_traits@D@std@@V?$allocator@D@2@@std@@UskinInfo@@@std@@V?$allocator@U?$pair@$$CBV?$basic_string@DU?$char_traits@D@std@@V?$allocator@D@2@@std@@UskinInfo@@@std@@@2@@std@@@std@@QAEPAU?$_List_node@U?$pair@$$CBV?$basic_string@DU?$char_traits@D@std@@V?$allocator@D@2@@std@@UskinInfo@@@std@@PAX@2@PAU32@0@Z 10026000 f i Configuration.obj
 0001:000250e0       ?_Buynode0@?$_List_alloc@U?$_List_base_types@U?$pair@$$CBV?$basic_string@DU?$char_traits@D@std@@V?$allocator@D@2@@std@@V12@@std@@V?$allocator@U?$pair@$$CBV?$basic_string@DU?$char_traits@D@std@@V?$allocator@D@2@@std@@V12@@std@@@2@@std@@@std@@QAEPAU?$_List_node@U?$pair@$$CBV?$basic_string@DU?$char_traits@D@std@@V?$allocator@D@2@@std@@V12@@std@@PAX@2@PAU32@0@Z 100260e0 f i Configuration.obj
 0001:000251c0       ?_Buynode0@?$_List_alloc@U?$_List_base_types@U?$pair@$$CBV?$basic_string@DU?$char_traits@D@std@@V?$allocator@D@2@@std@@V?$set@V?$basic_string@DU?$char_traits@D@std@@V?$allocator@D@2@@std@@U?$less@V?$basic_string@DU?$char_traits@D@std@@V?$allocator@D@2@@std@@@2@V?$allocator@V?$basic_string@DU?$char_traits@D@std@@V?$allocator@D@2@@std@@@2@@2@@std@@V?$allocator@U?$pair@$$CBV?$basic_string@DU?$char_traits@D@std@@V?$allocator@D@2@@std@@V?$set@V?$basic_string@DU?$char_traits@D@std@@V?$allocator@D@2@@std@@U?$less@V?$basic_string@DU?$char_traits@D@std@@V?$allocator@D@2@@std@@@2@V?$allocator@V?$basic_string@DU?$char_traits@D@std@@V?$allocator@D@2@@std@@@2@@2@@std@@@2@@std@@@std@@QAEPAU?$_List_node@U?$pair@$$CBV?$basic_string@DU?$char_traits@D@std@@V?$allocator@D@2@@std@@V?$set@V?$basic_string@DU?$char_traits@D@std@@V?$allocator@D@2@@std@@U?$less@V?$basic_string@DU?$char_traits@D@std@@V?$allocator@D@2@@std@@@2@V?$allocator@V?$basic_string@DU?$char_traits@D@std@@V?$allocator@D@2@@std@@@2@@2@@std@@PAX@2@PAU32@0@Z 100261c0 f i Configuration.obj
 0001:000252a0       ?_Calculate_growth@?$vector@V?$_List_unchecked_iterator@V?$_List_val@U?$_List_simple_types@U?$pair@$$CBV?$basic_string@DU?$char_traits@D@std@@V?$allocator@D@2@@std@@V12@@std@@@std@@@std@@@std@@V?$allocator@V?$_List_unchecked_iterator@V?$_List_val@U?$_List_simple_types@U?$pair@$$CBV?$basic_string@DU?$char_traits@D@std@@V?$allocator@D@2@@std@@V12@@std@@@std@@@std@@@std@@@2@@std@@ABEII@Z 100262a0 f i Configuration.obj
 0001:000252a0       ?_Calculate_growth@?$vector@PAURecvTable@@V?$allocator@PAURecvTable@@@std@@@std@@ABEII@Z 100262a0 f i NetVarManager.obj
 0001:000252a0       ?_Calculate_growth@?$vector@PAV?$ConfigValue@H@@V?$allocator@PAV?$ConfigValue@H@@@std@@@std@@ABEII@Z 100262a0 f i Configuration.obj
 0001:000252a0       ?_Calculate_growth@?$vector@V?$_List_unchecked_iterator@V?$_List_val@U?$_List_simple_types@U?$pair@$$CBV?$basic_string@DU?$char_traits@D@std@@V?$allocator@D@2@@std@@V?$set@V?$basic_string@DU?$char_traits@D@std@@V?$allocator@D@2@@std@@U?$less@V?$basic_string@DU?$char_traits@D@std@@V?$allocator@D@2@@std@@@2@V?$allocator@V?$basic_string@DU?$char_traits@D@std@@V?$allocator@D@2@@std@@@2@@2@@std@@@std@@@std@@@std@@V?$allocator@V?$_List_unchecked_iterator@V?$_List_val@U?$_List_simple_types@U?$pair@$$CBV?$basic_string@DU?$char_traits@D@std@@V?$allocator@D@2@@std@@V?$set@V?$basic_string@DU?$char_traits@D@std@@V?$allocator@D@2@@std@@U?$less@V?$basic_string@DU?$char_traits@D@std@@V?$allocator@D@2@@std@@@2@V?$allocator@V?$basic_string@DU?$char_traits@D@std@@V?$allocator@D@2@@std@@@2@@2@@std@@@std@@@std@@@std@@@2@@std@@ABEII@Z 100262a0 f i Configuration.obj
 0001:000252a0       ?_Calculate_growth@?$vector@PAV?$ConfigValue@M@@V?$allocator@PAV?$ConfigValue@M@@@std@@@std@@ABEII@Z 100262a0 f i Configuration.obj
 0001:000252a0       ?_Calculate_growth@?$vector@PAV?$ConfigValue@_N@@V?$allocator@PAV?$ConfigValue@_N@@@std@@@std@@ABEII@Z 100262a0 f i Configuration.obj
 0001:000252a0       ?_Calculate_growth@?$vector@V?$_List_unchecked_iterator@V?$_List_val@U?$_List_simple_types@U?$pair@$$CBV?$basic_string@DU?$char_traits@D@std@@V?$allocator@D@2@@std@@UskinInfo@@@std@@@std@@@std@@@std@@V?$allocator@V?$_List_unchecked_iterator@V?$_List_val@U?$_List_simple_types@U?$pair@$$CBV?$basic_string@DU?$char_traits@D@std@@V?$allocator@D@2@@std@@UskinInfo@@@std@@@std@@@std@@@std@@@2@@std@@ABEII@Z 100262a0 f i Configuration.obj
 0001:000252a0       ?_Calculate_growth@?$vector@V?$_List_unchecked_iterator@V?$_List_val@U?$_List_simple_types@U?$pair@QADPAD@std@@@std@@@std@@@std@@V?$allocator@V?$_List_unchecked_iterator@V?$_List_val@U?$_List_simple_types@U?$pair@QADPAD@std@@@std@@@std@@@std@@@2@@std@@ABEII@Z 100262a0 f i Hooks.obj
 0001:000252a0       ?_Calculate_growth@?$vector@HV?$allocator@H@std@@@std@@ABEII@Z 100262a0 f i RageBot.obj
 0001:000252f0       ?_Change_array@?$vector@PAV?$ConfigValue@H@@V?$allocator@PAV?$ConfigValue@H@@@std@@@std@@AAEXQAPAV?$ConfigValue@H@@II@Z 100262f0 f i Configuration.obj
 0001:000252f0       ?_Change_array@?$vector@HV?$allocator@H@std@@@std@@AAEXQAHII@Z 100262f0 f i RageBot.obj
 0001:000252f0       ?_Change_array@?$vector@V?$_List_unchecked_iterator@V?$_List_val@U?$_List_simple_types@U?$pair@QADPAD@std@@@std@@@std@@@std@@V?$allocator@V?$_List_unchecked_iterator@V?$_List_val@U?$_List_simple_types@U?$pair@QADPAD@std@@@std@@@std@@@std@@@2@@std@@AAEXQAV?$_List_unchecked_iterator@V?$_List_val@U?$_List_simple_types@U?$pair@QADPAD@std@@@std@@@std@@@2@II@Z 100262f0 f i Hooks.obj
 0001:000252f0       ?_Change_array@?$vector@PAURecvTable@@V?$allocator@PAURecvTable@@@std@@@std@@AAEXQAPAURecvTable@@II@Z 100262f0 f i NetVarManager.obj
 0001:000252f0       ?_Change_array@?$vector@PAV?$ConfigValue@_N@@V?$allocator@PAV?$ConfigValue@_N@@@std@@@std@@AAEXQAPAV?$ConfigValue@_N@@II@Z 100262f0 f i Configuration.obj
 0001:000252f0       ?_Change_array@?$vector@V?$_List_unchecked_iterator@V?$_List_val@U?$_List_simple_types@U?$pair@$$CBV?$basic_string@DU?$char_traits@D@std@@V?$allocator@D@2@@std@@UskinInfo@@@std@@@std@@@std@@@std@@V?$allocator@V?$_List_unchecked_iterator@V?$_List_val@U?$_List_simple_types@U?$pair@$$CBV?$basic_string@DU?$char_traits@D@std@@V?$allocator@D@2@@std@@UskinInfo@@@std@@@std@@@std@@@std@@@2@@std@@AAEXQAV?$_List_unchecked_iterator@V?$_List_val@U?$_List_simple_types@U?$pair@$$CBV?$basic_string@DU?$char_traits@D@std@@V?$allocator@D@2@@std@@UskinInfo@@@std@@@std@@@std@@@2@II@Z 100262f0 f i Configuration.obj
 0001:000252f0       ?_Change_array@?$vector@V?$_List_unchecked_iterator@V?$_List_val@U?$_List_simple_types@U?$pair@$$CBV?$basic_string@DU?$char_traits@D@std@@V?$allocator@D@2@@std@@V?$set@V?$basic_string@DU?$char_traits@D@std@@V?$allocator@D@2@@std@@U?$less@V?$basic_string@DU?$char_traits@D@std@@V?$allocator@D@2@@std@@@2@V?$allocator@V?$basic_string@DU?$char_traits@D@std@@V?$allocator@D@2@@std@@@2@@2@@std@@@std@@@std@@@std@@V?$allocator@V?$_List_unchecked_iterator@V?$_List_val@U?$_List_simple_types@U?$pair@$$CBV?$basic_string@DU?$char_traits@D@std@@V?$allocator@D@2@@std@@V?$set@V?$basic_string@DU?$char_traits@D@std@@V?$allocator@D@2@@std@@U?$less@V?$basic_string@DU?$char_traits@D@std@@V?$allocator@D@2@@std@@@2@V?$allocator@V?$basic_string@DU?$char_traits@D@std@@V?$allocator@D@2@@std@@@2@@2@@std@@@std@@@std@@@std@@@2@@std@@AAEXQAV?$_List_unchecked_iterator@V?$_List_val@U?$_List_simple_types@U?$pair@$$CBV?$basic_string@DU?$char_traits@D@std@@V?$allocator@D@2@@std@@V?$set@V?$basic_string@DU?$char_traits@D@std@@V?$allocator@D@2@@std@@U?$less@V?$basic_string@DU?$char_traits@D@std@@V?$allocator@D@2@@std@@@2@V?$allocator@V?$basic_string@DU?$char_traits@D@std@@V?$allocator@D@2@@std@@@2@@2@@std@@@std@@@std@@@2@II@Z 100262f0 f i Configuration.obj
 0001:000252f0       ?_Change_array@?$vector@V?$_List_unchecked_iterator@V?$_List_val@U?$_List_simple_types@U?$pair@$$CBV?$basic_string@DU?$char_traits@D@std@@V?$allocator@D@2@@std@@V12@@std@@@std@@@std@@@std@@V?$allocator@V?$_List_unchecked_iterator@V?$_List_val@U?$_List_simple_types@U?$pair@$$CBV?$basic_string@DU?$char_traits@D@std@@V?$allocator@D@2@@std@@V12@@std@@@std@@@std@@@std@@@2@@std@@AAEXQAV?$_List_unchecked_iterator@V?$_List_val@U?$_List_simple_types@U?$pair@$$CBV?$basic_string@DU?$char_traits@D@std@@V?$allocator@D@2@@std@@V12@@std@@@std@@@std@@@2@II@Z 100262f0 f i Configuration.obj
 0001:000252f0       ?_Change_array@?$vector@PAV?$ConfigValue@M@@V?$allocator@PAV?$ConfigValue@M@@@std@@@std@@AAEXQAPAV?$ConfigValue@M@@II@Z 100262f0 f i Configuration.obj
 0001:00025390       ?_Check_offset@?$_String_val@U?$_Simple_types@D@std@@@std@@QBEXI@Z 10026390 f i Configuration.obj
 0001:000253b0       ?_Construct@?$basic_string@DU?$char_traits@D@std@@V?$allocator@D@2@@std@@QAEXQAD0Urandom_access_iterator_tag@2@@Z 100263b0 f i Configuration.obj
 0001:000253f0       ?_Construct_lv_contents@?$basic_string@DU?$char_traits@D@std@@V?$allocator@D@2@@std@@QAEXABV12@@Z 100263f0 f i Configuration.obj
 0001:000254f0       ?_Copy_alloc@?$_String_alloc@U?$_String_base_types@DV?$allocator@D@std@@@std@@@std@@QAEXABV?$allocator@D@2@@Z 100264f0 f i Configuration.obj
 0001:00025520       ?_Destroy@?$vector@V?$basic_string@DU?$char_traits@D@std@@V?$allocator@D@2@@std@@V?$allocator@V?$basic_string@DU?$char_traits@D@std@@V?$allocator@D@2@@std@@@2@@std@@AAEXPAV?$basic_string@DU?$char_traits@D@std@@V?$allocator@D@2@@2@0@Z 10026520 f i Configuration.obj
 0001:00025550       ?_Eos@?$basic_string@DU?$char_traits@D@std@@V?$allocator@D@2@@std@@QAEXI@Z 10026550 f i Configuration.obj
 0001:00025590       ?_Erase@?$_Tree@V?$_Tset_traits@V?$basic_string@DU?$char_traits@D@std@@V?$allocator@D@2@@std@@U?$less@V?$basic_string@DU?$char_traits@D@std@@V?$allocator@D@2@@std@@@2@V?$allocator@V?$basic_string@DU?$char_traits@D@std@@V?$allocator@D@2@@std@@@2@$0A@@std@@@std@@IAEXPAU?$_Tree_node@V?$basic_string@DU?$char_traits@D@std@@V?$allocator@D@2@@std@@PAX@2@@Z 10026590 f i Configuration.obj
 0001:00025610       ?_Freeheadnode@?$_List_alloc@U?$_List_base_types@U?$pair@$$CBV?$basic_string@DU?$char_traits@D@std@@V?$allocator@D@2@@std@@UskinInfo@@@std@@V?$allocator@U?$pair@$$CBV?$basic_string@DU?$char_traits@D@std@@V?$allocator@D@2@@std@@UskinInfo@@@std@@@2@@std@@@std@@QAEXPAU?$_List_node@U?$pair@$$CBV?$basic_string@DU?$char_traits@D@std@@V?$allocator@D@2@@std@@UskinInfo@@@std@@PAX@2@@Z 10026610 f i Configuration.obj
 0001:00025670       ?_Freeheadnode@?$_List_alloc@U?$_List_base_types@U?$pair@$$CBV?$basic_string@DU?$char_traits@D@std@@V?$allocator@D@2@@std@@V12@@std@@V?$allocator@U?$pair@$$CBV?$basic_string@DU?$char_traits@D@std@@V?$allocator@D@2@@std@@V12@@std@@@2@@std@@@std@@QAEXPAU?$_List_node@U?$pair@$$CBV?$basic_string@DU?$char_traits@D@std@@V?$allocator@D@2@@std@@V12@@std@@PAX@2@@Z 10026670 f i Configuration.obj
 0001:000256d0       ?_Freeheadnode@?$_List_alloc@U?$_List_base_types@U?$pair@$$CBV?$basic_string@DU?$char_traits@D@std@@V?$allocator@D@2@@std@@V?$set@V?$basic_string@DU?$char_traits@D@std@@V?$allocator@D@2@@std@@U?$less@V?$basic_string@DU?$char_traits@D@std@@V?$allocator@D@2@@std@@@2@V?$allocator@V?$basic_string@DU?$char_traits@D@std@@V?$allocator@D@2@@std@@@2@@2@@std@@V?$allocator@U?$pair@$$CBV?$basic_string@DU?$char_traits@D@std@@V?$allocator@D@2@@std@@V?$set@V?$basic_string@DU?$char_traits@D@std@@V?$allocator@D@2@@std@@U?$less@V?$basic_string@DU?$char_traits@D@std@@V?$allocator@D@2@@std@@@2@V?$allocator@V?$basic_string@DU?$char_traits@D@std@@V?$allocator@D@2@@std@@@2@@2@@std@@@2@@std@@@std@@QAEXPAU?$_List_node@U?$pair@$$CBV?$basic_string@DU?$char_traits@D@std@@V?$allocator@D@2@@std@@V?$set@V?$basic_string@DU?$char_traits@D@std@@V?$allocator@D@2@@std@@U?$less@V?$basic_string@DU?$char_traits@D@std@@V?$allocator@D@2@@std@@@2@V?$allocator@V?$basic_string@DU?$char_traits@D@std@@V?$allocator@D@2@@std@@@2@@2@@std@@PAX@2@@Z 100266d0 f i Configuration.obj
 0001:00025730       ?_Freenode@?$_List_buy@U?$pair@$$CBV?$basic_string@DU?$char_traits@D@std@@V?$allocator@D@2@@std@@UskinInfo@@@std@@V?$allocator@U?$pair@$$CBV?$basic_string@DU?$char_traits@D@std@@V?$allocator@D@2@@std@@UskinInfo@@@std@@@2@@std@@QAEXPAU?$_List_node@U?$pair@$$CBV?$basic_string@DU?$char_traits@D@std@@V?$allocator@D@2@@std@@UskinInfo@@@std@@PAX@2@@Z 10026730 f i Configuration.obj
 0001:000257b0       ?_Freenode@?$_List_buy@U?$pair@$$CBV?$basic_string@DU?$char_traits@D@std@@V?$allocator@D@2@@std@@V12@@std@@V?$allocator@U?$pair@$$CBV?$basic_string@DU?$char_traits@D@std@@V?$allocator@D@2@@std@@V12@@std@@@2@@std@@QAEXPAU?$_List_node@U?$pair@$$CBV?$basic_string@DU?$char_traits@D@std@@V?$allocator@D@2@@std@@V12@@std@@PAX@2@@Z 100267b0 f i Configuration.obj
 0001:00025830       ?_Freenode@?$_List_buy@U?$pair@$$CBV?$basic_string@DU?$char_traits@D@std@@V?$allocator@D@2@@std@@V?$set@V?$basic_string@DU?$char_traits@D@std@@V?$allocator@D@2@@std@@U?$less@V?$basic_string@DU?$char_traits@D@std@@V?$allocator@D@2@@std@@@2@V?$allocator@V?$basic_string@DU?$char_traits@D@std@@V?$allocator@D@2@@std@@@2@@2@@std@@V?$allocator@U?$pair@$$CBV?$basic_string@DU?$char_traits@D@std@@V?$allocator@D@2@@std@@V?$set@V?$basic_string@DU?$char_traits@D@std@@V?$allocator@D@2@@std@@U?$less@V?$basic_string@DU?$char_traits@D@std@@V?$allocator@D@2@@std@@@2@V?$allocator@V?$basic_string@DU?$char_traits@D@std@@V?$allocator@D@2@@std@@@2@@2@@std@@@2@@std@@QAEXPAU?$_List_node@U?$pair@$$CBV?$basic_string@DU?$char_traits@D@std@@V?$allocator@D@2@@std@@V?$set@V?$basic_string@DU?$char_traits@D@std@@V?$allocator@D@2@@std@@U?$less@V?$basic_string@DU?$char_traits@D@std@@V?$allocator@D@2@@std@@@2@V?$allocator@V?$basic_string@DU?$char_traits@D@std@@V?$allocator@D@2@@std@@@2@@2@@std@@PAX@2@@Z 10026830 f i Configuration.obj
 0001:000258b0       ?_Init@?$_Hash@V?$_Umap_traits@PADPADV?$_Uhash_compare@PADU?$hash@PAD@std@@U?$equal_to@PAD@2@@std@@V?$allocator@U?$pair@QADPAD@std@@@2@$0A@@std@@@std@@IAEXI@Z 100268b0 f i Hooks.obj
 0001:000258b0       ?_Init@?$_Hash@V?$_Umap_traits@V?$basic_string@DU?$char_traits@D@std@@V?$allocator@D@2@@std@@V12@V?$_Uhash_compare@V?$basic_string@DU?$char_traits@D@std@@V?$allocator@D@2@@std@@U?$hash@V?$basic_string@DU?$char_traits@D@std@@V?$allocator@D@2@@std@@@2@U?$equal_to@V?$basic_string@DU?$char_traits@D@std@@V?$allocator@D@2@@std@@@2@@2@V?$allocator@U?$pair@$$CBV?$basic_string@DU?$char_traits@D@std@@V?$allocator@D@2@@std@@V12@@std@@@2@$0A@@std@@@std@@IAEXI@Z 100268b0 f i Configuration.obj
 0001:000258b0       ?_Init@?$_Hash@V?$_Umap_traits@V?$basic_string@DU?$char_traits@D@std@@V?$allocator@D@2@@std@@V?$set@V?$basic_string@DU?$char_traits@D@std@@V?$allocator@D@2@@std@@U?$less@V?$basic_string@DU?$char_traits@D@std@@V?$allocator@D@2@@std@@@2@V?$allocator@V?$basic_string@DU?$char_traits@D@std@@V?$allocator@D@2@@std@@@2@@2@V?$_Uhash_compare@V?$basic_string@DU?$char_traits@D@std@@V?$allocator@D@2@@std@@U?$hash@V?$basic_string@DU?$char_traits@D@std@@V?$allocator@D@2@@std@@@2@U?$equal_to@V?$basic_string@DU?$char_traits@D@std@@V?$allocator@D@2@@std@@@2@@2@V?$allocator@U?$pair@$$CBV?$basic_string@DU?$char_traits@D@std@@V?$allocator@D@2@@std@@V?$set@V?$basic_string@DU?$char_traits@D@std@@V?$allocator@D@2@@std@@U?$less@V?$basic_string@DU?$char_traits@D@std@@V?$allocator@D@2@@std@@@2@V?$allocator@V?$basic_string@DU?$char_traits@D@std@@V?$allocator@D@2@@std@@@2@@2@@std@@@2@$0A@@std@@@std@@IAEXI@Z 100268b0 f i Configuration.obj
 0001:000258b0       ?_Init@?$_Hash@V?$_Umap_traits@V?$basic_string@DU?$char_traits@D@std@@V?$allocator@D@2@@std@@UskinInfo@@V?$_Uhash_compare@V?$basic_string@DU?$char_traits@D@std@@V?$allocator@D@2@@std@@U?$hash@V?$basic_string@DU?$char_traits@D@std@@V?$allocator@D@2@@std@@@2@U?$equal_to@V?$basic_string@DU?$char_traits@D@std@@V?$allocator@D@2@@std@@@2@@2@V?$allocator@U?$pair@$$CBV?$basic_string@DU?$char_traits@D@std@@V?$allocator@D@2@@std@@UskinInfo@@@std@@@2@$0A@@std@@@std@@IAEXI@Z 100268b0 f i Configuration.obj
 0001:00025910       ?_Max@?$_Tree_comp_alloc@V?$_Tset_traits@V?$basic_string@DU?$char_traits@D@std@@V?$allocator@D@2@@std@@U?$less@V?$basic_string@DU?$char_traits@D@std@@V?$allocator@D@2@@std@@@2@V?$allocator@V?$basic_string@DU?$char_traits@D@std@@V?$allocator@D@2@@std@@@2@$0A@@std@@@std@@SAPAU?$_Tree_node@V?$basic_string@DU?$char_traits@D@std@@V?$allocator@D@2@@std@@PAX@2@PAU32@@Z 10026910 f i Configuration.obj
 0001:00025910       ?_Max@?$_Tree_comp_alloc@V?$_Tmap_traits@W4ItemDefinitionIndexx@@UDefItem_t@@U?$less@W4ItemDefinitionIndexx@@@std@@V?$allocator@U?$pair@$$CBW4ItemDefinitionIndexx@@UDefItem_t@@@std@@@4@$0A@@std@@@std@@SAPAU?$_Tree_node@U?$pair@$$CBW4ItemDefinitionIndexx@@UDefItem_t@@@std@@PAX@2@PAU32@@Z 10026910 f i recvproxy.obj
 0001:00025930       ?_Max@?$_Tree_val@U?$_Tree_simple_types@V?$basic_string@DU?$char_traits@D@std@@V?$allocator@D@2@@std@@@std@@@std@@SAPAU?$_Tree_node@V?$basic_string@DU?$char_traits@D@std@@V?$allocator@D@2@@std@@PAX@2@PAU32@@Z 10026930 f i Configuration.obj
 0001:00025930       ?_Max@?$_Tree_val@U?$_Tree_simple_types@U?$pair@$$CBW4ItemDefinitionIndexx@@UDefItem_t@@@std@@@std@@@std@@SAPAU?$_Tree_node@U?$pair@$$CBW4ItemDefinitionIndexx@@UDefItem_t@@@std@@PAX@2@PAU32@@Z 10026930 f i recvproxy.obj
 0001:00025960       ?_Min@?$_Tree_val@U?$_Tree_simple_types@V?$basic_string@DU?$char_traits@D@std@@V?$allocator@D@2@@std@@@std@@@std@@SAPAU?$_Tree_node@V?$basic_string@DU?$char_traits@D@std@@V?$allocator@D@2@@std@@PAX@2@PAU32@@Z 10026960 f i Configuration.obj
 0001:00025960       ?_Min@?$_Tree_val@U?$_Tree_simple_types@U?$pair@$$CBW4ItemDefinitionIndexx@@UDefItem_t@@@std@@@std@@@std@@SAPAU?$_Tree_node@U?$pair@$$CBW4ItemDefinitionIndexx@@UDefItem_t@@@std@@PAX@2@PAU32@@Z 10026960 f i recvproxy.obj
 0001:00025980       ?_Move_alloc@?$_String_alloc@U?$_String_base_types@DV?$allocator@D@std@@@std@@@std@@QAEXAAV?$allocator@D@2@@Z 10026980 f i Configuration.obj
 0001:000259b0       ?_Myend@?$_Vector_alloc@U?$_Vec_base_types@V?$_List_unchecked_iterator@V?$_List_val@U?$_List_simple_types@U?$pair@QADPAD@std@@@std@@@std@@@std@@V?$allocator@V?$_List_unchecked_iterator@V?$_List_val@U?$_List_simple_types@U?$pair@QADPAD@std@@@std@@@std@@@std@@@2@@std@@@std@@QBEABQAV?$_List_unchecked_iterator@V?$_List_val@U?$_List_simple_types@U?$pair@QADPAD@std@@@std@@@std@@@2@XZ 100269b0 f i Hooks.obj
 0001:000259b0       ?_Myend@?$_Vector_alloc@U?$_Vec_base_types@_SV?$allocator@_S@std@@@std@@@std@@QBEABQA_SXZ 100269b0 f i Parser.obj
 0001:000259b0       ?_Myend@?$_Vector_alloc@U?$_Vec_base_types@V?$_List_unchecked_iterator@V?$_List_val@U?$_List_simple_types@U?$pair@QADPAD@std@@@std@@@std@@@std@@V?$allocator@V?$_List_unchecked_iterator@V?$_List_val@U?$_List_simple_types@U?$pair@QADPAD@std@@@std@@@std@@@std@@@2@@std@@@std@@QAEAAPAV?$_List_unchecked_iterator@V?$_List_val@U?$_List_simple_types@U?$pair@QADPAD@std@@@std@@@std@@@2@XZ 100269b0 f i Hooks.obj
 0001:000259b0       ?_Myend@?$_Vector_alloc@U?$_Vec_base_types@VVector@@V?$allocator@VVector@@@std@@@std@@@std@@QBEABQAVVector@@XZ 100269b0 f i ESP.obj
 0001:000259b0       ?_Myend@?$_Vector_alloc@U?$_Vec_base_types@V?$shared_ptr@VNode@valve_parser@@@std@@V?$allocator@V?$shared_ptr@VNode@valve_parser@@@std@@@2@@std@@@std@@QBEABQAV?$shared_ptr@VNode@valve_parser@@@2@XZ 100269b0 f i Parser.obj
 0001:000259b0       ?_Myend@?$_Vector_alloc@U?$_Vec_base_types@PAURecvTable@@V?$allocator@PAURecvTable@@@std@@@std@@@std@@QAEAAPAPAURecvTable@@XZ 100269b0 f i NetVarManager.obj
 0001:000259b0       ?_Myend@?$_Vector_alloc@U?$_Vec_base_types@PAV?$ConfigValue@M@@V?$allocator@PAV?$ConfigValue@M@@@std@@@std@@@std@@QBEABQAPAV?$ConfigValue@M@@XZ 100269b0 f i Configuration.obj
 0001:000259b0       ?_Myend@?$_Vector_alloc@U?$_Vec_base_types@V?$basic_string@DU?$char_traits@D@std@@V?$allocator@D@2@@std@@V?$allocator@V?$basic_string@DU?$char_traits@D@std@@V?$allocator@D@2@@std@@@2@@std@@@std@@QAEAAPAV?$basic_string@DU?$char_traits@D@std@@V?$allocator@D@2@@2@XZ 100269b0 f i Configuration.obj
 0001:000259b0       ?_Myend@?$_Vector_alloc@U?$_Vec_base_types@VVector@@V?$allocator@VVector@@@std@@@std@@@std@@QAEAAPAVVector@@XZ 100269b0 f i ESP.obj
 0001:000259b0       ?_Myend@?$_Vector_alloc@U?$_Vec_base_types@V?$_List_unchecked_iterator@V?$_List_val@U?$_List_simple_types@U?$pair@$$CBV?$basic_string@DU?$char_traits@D@std@@V?$allocator@D@2@@std@@UskinInfo@@@std@@@std@@@std@@@std@@V?$allocator@V?$_List_unchecked_iterator@V?$_List_val@U?$_List_simple_types@U?$pair@$$CBV?$basic_string@DU?$char_traits@D@std@@V?$allocator@D@2@@std@@UskinInfo@@@std@@@std@@@std@@@std@@@2@@std@@@std@@QAEAAPAV?$_List_unchecked_iterator@V?$_List_val@U?$_List_simple_types@U?$pair@$$CBV?$basic_string@DU?$char_traits@D@std@@V?$allocator@D@2@@std@@UskinInfo@@@std@@@std@@@std@@@2@XZ 100269b0 f i Configuration.obj
 0001:000259b0       ?_Mapsize@?$_Deque_alloc@U?$_Deque_base_types@V?$shared_ptr@VNode@valve_parser@@@std@@V?$allocator@V?$shared_ptr@VNode@valve_parser@@@std@@@2@@std@@@std@@QAEAAIXZ 100269b0 f i Hooks.obj
 0001:000259b0       ?_Myend@?$_Vector_alloc@U?$_Vec_base_types@PAURecvTable@@V?$allocator@PAURecvTable@@@std@@@std@@@std@@QBEABQAPAURecvTable@@XZ 100269b0 f i NetVarManager.obj
 0001:000259b0       ?_Myend@?$_Vector_alloc@U?$_Vec_base_types@HV?$allocator@H@std@@@std@@@std@@QAEAAPAHXZ 100269b0 f i LegitBot.obj
 0001:000259b0       ?_Myend@?$_Vector_alloc@U?$_Vec_base_types@V?$shared_ptr@VNode@valve_parser@@@std@@V?$allocator@V?$shared_ptr@VNode@valve_parser@@@std@@@2@@std@@@std@@QAEAAPAV?$shared_ptr@VNode@valve_parser@@@2@XZ 100269b0 f i Parser.obj
 0001:000259b0       ?_Myend@?$_Vector_alloc@U?$_Vec_base_types@PAV?$ConfigValue@H@@V?$allocator@PAV?$ConfigValue@H@@@std@@@std@@@std@@QBEABQAPAV?$ConfigValue@H@@XZ 100269b0 f i Configuration.obj
 0001:000259b0       ?_Myend@?$_Vector_alloc@U?$_Vec_base_types@HV?$allocator@H@std@@@std@@@std@@QBEABQAHXZ 100269b0 f i LegitBot.obj
 0001:000259b0       ?_Myend@?$_Vector_alloc@U?$_Vec_base_types@PAV?$ConfigValue@_N@@V?$allocator@PAV?$ConfigValue@_N@@@std@@@std@@@std@@QAEAAPAPAV?$ConfigValue@_N@@XZ 100269b0 f i Configuration.obj
 0001:000259b0       ?_Myend@?$_Vector_alloc@U?$_Vec_base_types@V?$basic_string@DU?$char_traits@D@std@@V?$allocator@D@2@@std@@V?$allocator@V?$basic_string@DU?$char_traits@D@std@@V?$allocator@D@2@@std@@@2@@std@@@std@@QBEABQAV?$basic_string@DU?$char_traits@D@std@@V?$allocator@D@2@@2@XZ 100269b0 f i Configuration.obj
 0001:000259b0       ?_Myend@?$_Vector_alloc@U?$_Vec_base_types@PAV?$ConfigValue@H@@V?$allocator@PAV?$ConfigValue@H@@@std@@@std@@@std@@QAEAAPAPAV?$ConfigValue@H@@XZ 100269b0 f i Configuration.obj
 0001:000259b0       ?_Myend@?$_Vector_alloc@U?$_Vec_base_types@V?$_List_unchecked_iterator@V?$_List_val@U?$_List_simple_types@U?$pair@$$CBV?$basic_string@DU?$char_traits@D@std@@V?$allocator@D@2@@std@@V?$set@V?$basic_string@DU?$char_traits@D@std@@V?$allocator@D@2@@std@@U?$less@V?$basic_string@DU?$char_traits@D@std@@V?$allocator@D@2@@std@@@2@V?$allocator@V?$basic_string@DU?$char_traits@D@std@@V?$allocator@D@2@@std@@@2@@2@@std@@@std@@@std@@@std@@V?$allocator@V?$_List_unchecked_iterator@V?$_List_val@U?$_List_simple_types@U?$pair@$$CBV?$basic_string@DU?$char_traits@D@std@@V?$allocator@D@2@@std@@V?$set@V?$basic_string@DU?$char_traits@D@std@@V?$allocator@D@2@@std@@U?$less@V?$basic_string@DU?$char_traits@D@std@@V?$allocator@D@2@@std@@@2@V?$allocator@V?$basic_string@DU?$char_traits@D@std@@V?$allocator@D@2@@std@@@2@@2@@std@@@std@@@std@@@std@@@2@@std@@@std@@QBEABQAV?$_List_unchecked_iterator@V?$_List_val@U?$_List_simple_types@U?$pair@$$CBV?$basic_string@DU?$char_traits@D@std@@V?$allocator@D@2@@std@@V?$set@V?$basic_string@DU?$char_traits@D@std@@V?$allocator@D@2@@std@@U?$less@V?$basic_string@DU?$char_traits@D@std@@V?$allocator@D@2@@std@@@2@V?$allocator@V?$basic_string@DU?$char_traits@D@std@@V?$allocator@D@2@@std@@@2@@2@@std@@@std@@@std@@@2@XZ 100269b0 f i Configuration.obj
 0001:000259b0       ?_Myend@?$_Vector_alloc@U?$_Vec_base_types@V?$_List_unchecked_iterator@V?$_List_val@U?$_List_simple_types@U?$pair@$$CBV?$basic_string@DU?$char_traits@D@std@@V?$allocator@D@2@@std@@V12@@std@@@std@@@std@@@std@@V?$allocator@V?$_List_unchecked_iterator@V?$_List_val@U?$_List_simple_types@U?$pair@$$CBV?$basic_string@DU?$char_traits@D@std@@V?$allocator@D@2@@std@@V12@@std@@@std@@@std@@@std@@@2@@std@@@std@@QBEABQAV?$_List_unchecked_iterator@V?$_List_val@U?$_List_simple_types@U?$pair@$$CBV?$basic_string@DU?$char_traits@D@std@@V?$allocator@D@2@@std@@V12@@std@@@std@@@std@@@2@XZ 100269b0 f i Configuration.obj
 0001:000259b0       ?_Myend@?$_Vector_alloc@U?$_Vec_base_types@V?$_List_unchecked_iterator@V?$_List_val@U?$_List_simple_types@U?$pair@$$CBV?$basic_string@DU?$char_traits@D@std@@V?$allocator@D@2@@std@@UskinInfo@@@std@@@std@@@std@@@std@@V?$allocator@V?$_List_unchecked_iterator@V?$_List_val@U?$_List_simple_types@U?$pair@$$CBV?$basic_string@DU?$char_traits@D@std@@V?$allocator@D@2@@std@@UskinInfo@@@std@@@std@@@std@@@std@@@2@@std@@@std@@QBEABQAV?$_List_unchecked_iterator@V?$_List_val@U?$_List_simple_types@U?$pair@$$CBV?$basic_string@DU?$char_traits@D@std@@V?$allocator@D@2@@std@@UskinInfo@@@std@@@std@@@std@@@2@XZ 100269b0 f i Configuration.obj
 0001:000259b0       ?_Myend@?$_Vector_alloc@U?$_Vec_base_types@PAV?$ConfigValue@_N@@V?$allocator@PAV?$ConfigValue@_N@@@std@@@std@@@std@@QBEABQAPAV?$ConfigValue@_N@@XZ 100269b0 f i Configuration.obj
 0001:000259b0       ?_Myend@?$_Vector_alloc@U?$_Vec_base_types@V?$_List_unchecked_iterator@V?$_List_val@U?$_List_simple_types@U?$pair@$$CBV?$basic_string@DU?$char_traits@D@std@@V?$allocator@D@2@@std@@V12@@std@@@std@@@std@@@std@@V?$allocator@V?$_List_unchecked_iterator@V?$_List_val@U?$_List_simple_types@U?$pair@$$CBV?$basic_string@DU?$char_traits@D@std@@V?$allocator@D@2@@std@@V12@@std@@@std@@@std@@@std@@@2@@std@@@std@@QAEAAPAV?$_List_unchecked_iterator@V?$_List_val@U?$_List_simple_types@U?$pair@$$CBV?$basic_string@DU?$char_traits@D@std@@V?$allocator@D@2@@std@@V12@@std@@@std@@@std@@@2@XZ 100269b0 f i Configuration.obj
 0001:000259b0       ?_Myend@?$_Vector_alloc@U?$_Vec_base_types@V?$_List_unchecked_iterator@V?$_List_val@U?$_List_simple_types@U?$pair@$$CBV?$basic_string@DU?$char_traits@D@std@@V?$allocator@D@2@@std@@V?$set@V?$basic_string@DU?$char_traits@D@std@@V?$allocator@D@2@@std@@U?$less@V?$basic_string@DU?$char_traits@D@std@@V?$allocator@D@2@@std@@@2@V?$allocator@V?$basic_string@DU?$char_traits@D@std@@V?$allocator@D@2@@std@@@2@@2@@std@@@std@@@std@@@std@@V?$allocator@V?$_List_unchecked_iterator@V?$_List_val@U?$_List_simple_types@U?$pair@$$CBV?$basic_string@DU?$char_traits@D@std@@V?$allocator@D@2@@std@@V?$set@V?$basic_string@DU?$char_traits@D@std@@V?$allocator@D@2@@std@@U?$less@V?$basic_string@DU?$char_traits@D@std@@V?$allocator@D@2@@std@@@2@V?$allocator@V?$basic_string@DU?$char_traits@D@std@@V?$allocator@D@2@@std@@@2@@2@@std@@@std@@@std@@@std@@@2@@std@@@std@@QAEAAPAV?$_List_unchecked_iterator@V?$_List_val@U?$_List_simple_types@U?$pair@$$CBV?$basic_string@DU?$char_traits@D@std@@V?$allocator@D@2@@std@@V?$set@V?$basic_string@DU?$char_traits@D@std@@V?$allocator@D@2@@std@@U?$less@V?$basic_string@DU?$char_traits@D@std@@V?$allocator@D@2@@std@@@2@V?$allocator@V?$basic_string@DU?$char_traits@D@std@@V?$allocator@D@2@@std@@@2@@2@@std@@@std@@@std@@@2@XZ 100269b0 f i Configuration.obj
 0001:000259b0       ?_Myend@?$_Vector_alloc@U?$_Vec_base_types@_SV?$allocator@_S@std@@@std@@@std@@QAEAAPA_SXZ 100269b0 f i Parser.obj
 0001:000259b0       ?_Myend@?$_Vector_alloc@U?$_Vec_base_types@PAV?$ConfigValue@M@@V?$allocator@PAV?$ConfigValue@M@@@std@@@std@@@std@@QAEAAPAPAV?$ConfigValue@M@@XZ 100269b0 f i Configuration.obj
 0001:000259d0       ?_Myfirst@?$_Vector_alloc@U?$_Vec_base_types@PAV?$ConfigValue@M@@V?$allocator@PAV?$ConfigValue@M@@@std@@@std@@@std@@QAEAAPAPAV?$ConfigValue@M@@XZ 100269d0 f i Configuration.obj
 0001:000259d0       ?_Myfirst@?$_Vector_alloc@U?$_Vec_base_types@PAURecvTable@@V?$allocator@PAURecvTable@@@std@@@std@@@std@@QBEABQAPAURecvTable@@XZ 100269d0 f i NetVarManager.obj
 0001:000259d0       ?_Myfirst@?$_Vector_alloc@U?$_Vec_base_types@EV?$allocator@E@std@@@std@@@std@@QBEABQAEXZ 100269d0 f i Utilities.obj
 0001:000259d0       ?_Myfirst@?$_Vector_alloc@U?$_Vec_base_types@VVector@@V?$allocator@VVector@@@std@@@std@@@std@@QBEABQAVVector@@XZ 100269d0 f i ESP.obj
 0001:000259d0       ?_Myhead@?$_List_alloc@U?$_List_base_types@U?$pair@$$CBV?$basic_string@DU?$char_traits@D@std@@V?$allocator@D@2@@std@@V?$set@V?$basic_string@DU?$char_traits@D@std@@V?$allocator@D@2@@std@@U?$less@V?$basic_string@DU?$char_traits@D@std@@V?$allocator@D@2@@std@@@2@V?$allocator@V?$basic_string@DU?$char_traits@D@std@@V?$allocator@D@2@@std@@@2@@2@@std@@V?$allocator@U?$pair@$$CBV?$basic_string@DU?$char_traits@D@std@@V?$allocator@D@2@@std@@V?$set@V?$basic_string@DU?$char_traits@D@std@@V?$allocator@D@2@@std@@U?$less@V?$basic_string@DU?$char_traits@D@std@@V?$allocator@D@2@@std@@@2@V?$allocator@V?$basic_string@DU?$char_traits@D@std@@V?$allocator@D@2@@std@@@2@@2@@std@@@2@@std@@@std@@QAEAAPAU?$_List_node@U?$pair@$$CBV?$basic_string@DU?$char_traits@D@std@@V?$allocator@D@2@@std@@V?$set@V?$basic_string@DU?$char_traits@D@std@@V?$allocator@D@2@@std@@U?$less@V?$basic_string@DU?$char_traits@D@std@@V?$allocator@D@2@@std@@@2@V?$allocator@V?$basic_string@DU?$char_traits@D@std@@V?$allocator@D@2@@std@@@2@@2@@std@@PAX@2@XZ 100269d0 f i Configuration.obj
 0001:000259d0       ?_Myfirst@?$_Vector_alloc@U?$_Vec_base_types@HV?$allocator@H@std@@@std@@@std@@QBEABQAHXZ 100269d0 f i LegitBot.obj
 0001:000259d0       ?_Myfirst@?$_Vector_alloc@U?$_Vec_base_types@V?$shared_ptr@VNode@valve_parser@@@std@@V?$allocator@V?$shared_ptr@VNode@valve_parser@@@std@@@2@@std@@@std@@QAEAAPAV?$shared_ptr@VNode@valve_parser@@@2@XZ 100269d0 f i Parser.obj
 0001:000259d0       ?_Myfirst@?$_Vector_alloc@U?$_Vec_base_types@V?$basic_string@DU?$char_traits@D@std@@V?$allocator@D@2@@std@@V?$allocator@V?$basic_string@DU?$char_traits@D@std@@V?$allocator@D@2@@std@@@2@@std@@@std@@QAEAAPAV?$basic_string@DU?$char_traits@D@std@@V?$allocator@D@2@@2@XZ 100269d0 f i Configuration.obj
 0001:000259d0       ?_Myfirst@?$_Vector_alloc@U?$_Vec_base_types@V?$_List_unchecked_iterator@V?$_List_val@U?$_List_simple_types@U?$pair@$$CBV?$basic_string@DU?$char_traits@D@std@@V?$allocator@D@2@@std@@V?$set@V?$basic_string@DU?$char_traits@D@std@@V?$allocator@D@2@@std@@U?$less@V?$basic_string@DU?$char_traits@D@std@@V?$allocator@D@2@@std@@@2@V?$allocator@V?$basic_string@DU?$char_traits@D@std@@V?$allocator@D@2@@std@@@2@@2@@std@@@std@@@std@@@std@@V?$allocator@V?$_List_unchecked_iterator@V?$_List_val@U?$_List_simple_types@U?$pair@$$CBV?$basic_string@DU?$char_traits@D@std@@V?$allocator@D@2@@std@@V?$set@V?$basic_string@DU?$char_traits@D@std@@V?$allocator@D@2@@std@@U?$less@V?$basic_string@DU?$char_traits@D@std@@V?$allocator@D@2@@std@@@2@V?$allocator@V?$basic_string@DU?$char_traits@D@std@@V?$allocator@D@2@@std@@@2@@2@@std@@@std@@@std@@@std@@@2@@std@@@std@@QBEABQAV?$_List_unchecked_iterator@V?$_List_val@U?$_List_simple_types@U?$pair@$$CBV?$basic_string@DU?$char_traits@D@std@@V?$allocator@D@2@@std@@V?$set@V?$basic_string@DU?$char_traits@D@std@@V?$allocator@D@2@@std@@U?$less@V?$basic_string@DU?$char_traits@D@std@@V?$allocator@D@2@@std@@@2@V?$allocator@V?$basic_string@DU?$char_traits@D@std@@V?$allocator@D@2@@std@@@2@@2@@std@@@std@@@std@@@2@XZ 100269d0 f i Configuration.obj
 0001:000259d0       ?_Myfirst@?$_Vector_alloc@U?$_Vec_base_types@HV?$allocator@H@std@@@std@@@std@@QAEAAPAHXZ 100269d0 f i LegitBot.obj
 0001:000259d0       ?_Myfirst@?$_Vector_alloc@U?$_Vec_base_types@PAURecvTable@@V?$allocator@PAURecvTable@@@std@@@std@@@std@@QAEAAPAPAURecvTable@@XZ 100269d0 f i NetVarManager.obj
 0001:000259d0       ?_Myproxy@?$_Deque_alloc@U?$_Deque_base_types@V?$shared_ptr@VNode@valve_parser@@@std@@V?$allocator@V?$shared_ptr@VNode@valve_parser@@@std@@@2@@std@@@std@@QAEAAPAU_Container_proxy@2@XZ 100269d0 f i Hooks.obj
 0001:000259d0       ?_Myfirst@?$_Vector_alloc@U?$_Vec_base_types@PAV?$ConfigValue@H@@V?$allocator@PAV?$ConfigValue@H@@@std@@@std@@@std@@QAEAAPAPAV?$ConfigValue@H@@XZ 100269d0 f i Configuration.obj
 0001:000259d0       ?_Myfirst@?$_Vector_alloc@U?$_Vec_base_types@V?$shared_ptr@VNode@valve_parser@@@std@@V?$allocator@V?$shared_ptr@VNode@valve_parser@@@std@@@2@@std@@@std@@QBEABQAV?$shared_ptr@VNode@valve_parser@@@2@XZ 100269d0 f i Parser.obj
 0001:000259d0       ?_Myfirst@?$_Vector_alloc@U?$_Vec_base_types@V?$_List_unchecked_iterator@V?$_List_val@U?$_List_simple_types@U?$pair@$$CBV?$basic_string@DU?$char_traits@D@std@@V?$allocator@D@2@@std@@UskinInfo@@@std@@@std@@@std@@@std@@V?$allocator@V?$_List_unchecked_iterator@V?$_List_val@U?$_List_simple_types@U?$pair@$$CBV?$basic_string@DU?$char_traits@D@std@@V?$allocator@D@2@@std@@UskinInfo@@@std@@@std@@@std@@@std@@@2@@std@@@std@@QAEAAPAV?$_List_unchecked_iterator@V?$_List_val@U?$_List_simple_types@U?$pair@$$CBV?$basic_string@DU?$char_traits@D@std@@V?$allocator@D@2@@std@@UskinInfo@@@std@@@std@@@std@@@2@XZ 100269d0 f i Configuration.obj
 0001:000259d0       ?_Myfirst@?$_Vector_alloc@U?$_Vec_base_types@PAV?$ConfigValue@M@@V?$allocator@PAV?$ConfigValue@M@@@std@@@std@@@std@@QBEABQAPAV?$ConfigValue@M@@XZ 100269d0 f i Configuration.obj
 0001:000259d0       ?_Myfirst@?$_Vector_alloc@U?$_Vec_base_types@PAV?$ConfigValue@H@@V?$allocator@PAV?$ConfigValue@H@@@std@@@std@@@std@@QBEABQAPAV?$ConfigValue@H@@XZ 100269d0 f i Configuration.obj
 0001:000259d0       ?_Myhead@?$_List_alloc@U?$_List_base_types@U?$pair@$$CBV?$basic_string@DU?$char_traits@D@std@@V?$allocator@D@2@@std@@V12@@std@@V?$allocator@U?$pair@$$CBV?$basic_string@DU?$char_traits@D@std@@V?$allocator@D@2@@std@@V12@@std@@@2@@std@@@std@@QAEAAPAU?$_List_node@U?$pair@$$CBV?$basic_string@DU?$char_traits@D@std@@V?$allocator@D@2@@std@@V12@@std@@PAX@2@XZ 100269d0 f i Configuration.obj
 0001:000259d0       ?_Myfirst@?$_Vector_alloc@U?$_Vec_base_types@V?$_List_unchecked_iterator@V?$_List_val@U?$_List_simple_types@U?$pair@QADPAD@std@@@std@@@std@@@std@@V?$allocator@V?$_List_unchecked_iterator@V?$_List_val@U?$_List_simple_types@U?$pair@QADPAD@std@@@std@@@std@@@std@@@2@@std@@@std@@QAEAAPAV?$_List_unchecked_iterator@V?$_List_val@U?$_List_simple_types@U?$pair@QADPAD@std@@@std@@@std@@@2@XZ 100269d0 f i Hooks.obj
 0001:000259d0       ?_Myfirst@?$_Vector_alloc@U?$_Vec_base_types@V?$_List_unchecked_iterator@V?$_List_val@U?$_List_simple_types@U?$pair@QADPAD@std@@@std@@@std@@@std@@V?$allocator@V?$_List_unchecked_iterator@V?$_List_val@U?$_List_simple_types@U?$pair@QADPAD@std@@@std@@@std@@@std@@@2@@std@@@std@@QBEABQAV?$_List_unchecked_iterator@V?$_List_val@U?$_List_simple_types@U?$pair@QADPAD@std@@@std@@@std@@@2@XZ 100269d0 f i Hooks.obj
 0001:000259d0       ?_Myfirst@?$_Vector_alloc@U?$_Vec_base_types@V?$basic_string@DU?$char_traits@D@std@@V?$allocator@D@2@@std@@V?$allocator@V?$basic_string@DU?$char_traits@D@std@@V?$allocator@D@2@@std@@@2@@std@@@std@@QBEABQAV?$basic_string@DU?$char_traits@D@std@@V?$allocator@D@2@@2@XZ 100269d0 f i Configuration.obj
 0001:000259d0       ?_Myfirst@?$_Vector_alloc@U?$_Vec_base_types@V?$_List_unchecked_iterator@V?$_List_val@U?$_List_simple_types@U?$pair@$$CBV?$basic_string@DU?$char_traits@D@std@@V?$allocator@D@2@@std@@UskinInfo@@@std@@@std@@@std@@@std@@V?$allocator@V?$_List_unchecked_iterator@V?$_List_val@U?$_List_simple_types@U?$pair@$$CBV?$basic_string@DU?$char_traits@D@std@@V?$allocator@D@2@@std@@UskinInfo@@@std@@@std@@@std@@@std@@@2@@std@@@std@@QBEABQAV?$_List_unchecked_iterator@V?$_List_val@U?$_List_simple_types@U?$pair@$$CBV?$basic_string@DU?$char_traits@D@std@@V?$allocator@D@2@@std@@UskinInfo@@@std@@@std@@@std@@@2@XZ 100269d0 f i Configuration.obj
 0001:000259d0       ?_Myfirst@?$_Vector_alloc@U?$_Vec_base_types@V?$_List_unchecked_iterator@V?$_List_val@U?$_List_simple_types@U?$pair@$$CBV?$basic_string@DU?$char_traits@D@std@@V?$allocator@D@2@@std@@V12@@std@@@std@@@std@@@std@@V?$allocator@V?$_List_unchecked_iterator@V?$_List_val@U?$_List_simple_types@U?$pair@$$CBV?$basic_string@DU?$char_traits@D@std@@V?$allocator@D@2@@std@@V12@@std@@@std@@@std@@@std@@@2@@std@@@std@@QBEABQAV?$_List_unchecked_iterator@V?$_List_val@U?$_List_simple_types@U?$pair@$$CBV?$basic_string@DU?$char_traits@D@std@@V?$allocator@D@2@@std@@V12@@std@@@std@@@std@@@2@XZ 100269d0 f i Configuration.obj
 0001:000259d0       ?_Myfirst@?$_Vector_alloc@U?$_Vec_base_types@_SV?$allocator@_S@std@@@std@@@std@@QAEAAPA_SXZ 100269d0 f i Parser.obj
 0001:000259d0       ?_Myfirst@?$_Vector_alloc@U?$_Vec_base_types@PAV?$ConfigValue@_N@@V?$allocator@PAV?$ConfigValue@_N@@@std@@@std@@@std@@QBEABQAPAV?$ConfigValue@_N@@XZ 100269d0 f i Configuration.obj
 0001:000259d0       ?_Myfirst@?$_Vector_alloc@U?$_Vec_base_types@VVector@@V?$allocator@VVector@@@std@@@std@@@std@@QAEAAPAVVector@@XZ 100269d0 f i ESP.obj
 0001:000259d0       ?_Myfirst@?$_Vector_alloc@U?$_Vec_base_types@_SV?$allocator@_S@std@@@std@@@std@@QBEABQA_SXZ 100269d0 f i Parser.obj
 0001:000259d0       ?_Myhead@?$_List_alloc@U?$_List_base_types@U?$pair@$$CBV?$basic_string@DU?$char_traits@D@std@@V?$allocator@D@2@@std@@UskinInfo@@@std@@V?$allocator@U?$pair@$$CBV?$basic_string@DU?$char_traits@D@std@@V?$allocator@D@2@@std@@UskinInfo@@@std@@@2@@std@@@std@@QAEAAPAU?$_List_node@U?$pair@$$CBV?$basic_string@DU?$char_traits@D@std@@V?$allocator@D@2@@std@@UskinInfo@@@std@@PAX@2@XZ 100269d0 f i Configuration.obj
 0001:000259d0       ?_Myfirst@?$_Vector_alloc@U?$_Vec_base_types@PAV?$ConfigValue@_N@@V?$allocator@PAV?$ConfigValue@_N@@@std@@@std@@@std@@QAEAAPAPAV?$ConfigValue@_N@@XZ 100269d0 f i Configuration.obj
 0001:000259d0       ?_Myfirst@?$_Vector_alloc@U?$_Vec_base_types@V?$_List_unchecked_iterator@V?$_List_val@U?$_List_simple_types@U?$pair@$$CBV?$basic_string@DU?$char_traits@D@std@@V?$allocator@D@2@@std@@V?$set@V?$basic_string@DU?$char_traits@D@std@@V?$allocator@D@2@@std@@U?$less@V?$basic_string@DU?$char_traits@D@std@@V?$allocator@D@2@@std@@@2@V?$allocator@V?$basic_string@DU?$char_traits@D@std@@V?$allocator@D@2@@std@@@2@@2@@std@@@std@@@std@@@std@@V?$allocator@V?$_List_unchecked_iterator@V?$_List_val@U?$_List_simple_types@U?$pair@$$CBV?$basic_string@DU?$char_traits@D@std@@V?$allocator@D@2@@std@@V?$set@V?$basic_string@DU?$char_traits@D@std@@V?$allocator@D@2@@std@@U?$less@V?$basic_string@DU?$char_traits@D@std@@V?$allocator@D@2@@std@@@2@V?$allocator@V?$basic_string@DU?$char_traits@D@std@@V?$allocator@D@2@@std@@@2@@2@@std@@@std@@@std@@@std@@@2@@std@@@std@@QAEAAPAV?$_List_unchecked_iterator@V?$_List_val@U?$_List_simple_types@U?$pair@$$CBV?$basic_string@DU?$char_traits@D@std@@V?$allocator@D@2@@std@@V?$set@V?$basic_string@DU?$char_traits@D@std@@V?$allocator@D@2@@std@@U?$less@V?$basic_string@DU?$char_traits@D@std@@V?$allocator@D@2@@std@@@2@V?$allocator@V?$basic_string@DU?$char_traits@D@std@@V?$allocator@D@2@@std@@@2@@2@@std@@@std@@@std@@@2@XZ 100269d0 f i Configuration.obj
 0001:000259d0       ?_Myhead@?$_List_alloc@U?$_List_base_types@U?$pair@QADPAD@std@@V?$allocator@U?$pair@QADPAD@std@@@2@@std@@@std@@QAEAAPAU?$_List_node@U?$pair@QADPAD@std@@PAX@2@XZ 100269d0 f i Hooks.obj
 0001:000259d0       ?_Myfirst@?$_Vector_alloc@U?$_Vec_base_types@EV?$allocator@E@std@@@std@@@std@@QAEAAPAEXZ 100269d0 f i Utilities.obj
 0001:000259d0       ?_Myfirst@?$_Vector_alloc@U?$_Vec_base_types@V?$_List_unchecked_iterator@V?$_List_val@U?$_List_simple_types@U?$pair@$$CBV?$basic_string@DU?$char_traits@D@std@@V?$allocator@D@2@@std@@V12@@std@@@std@@@std@@@std@@V?$allocator@V?$_List_unchecked_iterator@V?$_List_val@U?$_List_simple_types@U?$pair@$$CBV?$basic_string@DU?$char_traits@D@std@@V?$allocator@D@2@@std@@V12@@std@@@std@@@std@@@std@@@2@@std@@@std@@QAEAAPAV?$_List_unchecked_iterator@V?$_List_val@U?$_List_simple_types@U?$pair@$$CBV?$basic_string@DU?$char_traits@D@std@@V?$allocator@D@2@@std@@V12@@std@@@std@@@std@@@2@XZ 100269d0 f i Configuration.obj
 0001:000259f0       ?_Mysize@?$_List_alloc@U?$_List_base_types@U?$pair@$$CBV?$basic_string@DU?$char_traits@D@std@@V?$allocator@D@2@@std@@V12@@std@@V?$allocator@U?$pair@$$CBV?$basic_string@DU?$char_traits@D@std@@V?$allocator@D@2@@std@@V12@@std@@@2@@std@@@std@@QAEAAIXZ 100269f0 f i Configuration.obj
 0001:000259f0       ?_Mylast@?$_Vector_alloc@U?$_Vec_base_types@PAV?$ConfigValue@_N@@V?$allocator@PAV?$ConfigValue@_N@@@std@@@std@@@std@@QAEAAPAPAV?$ConfigValue@_N@@XZ 100269f0 f i Configuration.obj
 0001:000259f0       ?_Mylast@?$_Vector_alloc@U?$_Vec_base_types@V?$shared_ptr@VNode@valve_parser@@@std@@V?$allocator@V?$shared_ptr@VNode@valve_parser@@@std@@@2@@std@@@std@@QAEAAPAV?$shared_ptr@VNode@valve_parser@@@2@XZ 100269f0 f i Parser.obj
 0001:000259f0       ?_Map@?$_Deque_alloc@U?$_Deque_base_types@V?$shared_ptr@VNode@valve_parser@@@std@@V?$allocator@V?$shared_ptr@VNode@valve_parser@@@std@@@2@@std@@@std@@QAEAAPAPAV?$shared_ptr@VNode@valve_parser@@@2@XZ 100269f0 f i Hooks.obj
 0001:000259f0       ?_Mylast@?$_Vector_alloc@U?$_Vec_base_types@V?$_List_unchecked_iterator@V?$_List_val@U?$_List_simple_types@U?$pair@$$CBV?$basic_string@DU?$char_traits@D@std@@V?$allocator@D@2@@std@@V12@@std@@@std@@@std@@@std@@V?$allocator@V?$_List_unchecked_iterator@V?$_List_val@U?$_List_simple_types@U?$pair@$$CBV?$basic_string@DU?$char_traits@D@std@@V?$allocator@D@2@@std@@V12@@std@@@std@@@std@@@std@@@2@@std@@@std@@QBEABQAV?$_List_unchecked_iterator@V?$_List_val@U?$_List_simple_types@U?$pair@$$CBV?$basic_string@DU?$char_traits@D@std@@V?$allocator@D@2@@std@@V12@@std@@@std@@@std@@@2@XZ 100269f0 f i Configuration.obj
 0001:000259f0       ?_Mylast@?$_Vector_alloc@U?$_Vec_base_types@PAURecvTable@@V?$allocator@PAURecvTable@@@std@@@std@@@std@@QBEABQAPAURecvTable@@XZ 100269f0 f i NetVarManager.obj
 0001:000259f0       ?_Mylast@?$_Vector_alloc@U?$_Vec_base_types@PAV?$ConfigValue@_N@@V?$allocator@PAV?$ConfigValue@_N@@@std@@@std@@@std@@QBEABQAPAV?$ConfigValue@_N@@XZ 100269f0 f i Configuration.obj
 0001:000259f0       ?_Mysize@?$_List_alloc@U?$_List_base_types@U?$pair@$$CBV?$basic_string@DU?$char_traits@D@std@@V?$allocator@D@2@@std@@V12@@std@@V?$allocator@U?$pair@$$CBV?$basic_string@DU?$char_traits@D@std@@V?$allocator@D@2@@std@@V12@@std@@@2@@std@@@std@@QBEABIXZ 100269f0 f i Hooks.obj
 0001:000259f0       ?_Mylast@?$_Vector_alloc@U?$_Vec_base_types@EV?$allocator@E@std@@@std@@@std@@QBEABQAEXZ 100269f0 f i Utilities.obj
 0001:000259f0       ?_Mylast@?$_Vector_alloc@U?$_Vec_base_types@V?$basic_string@DU?$char_traits@D@std@@V?$allocator@D@2@@std@@V?$allocator@V?$basic_string@DU?$char_traits@D@std@@V?$allocator@D@2@@std@@@2@@std@@@std@@QAEAAPAV?$basic_string@DU?$char_traits@D@std@@V?$allocator@D@2@@2@XZ 100269f0 f i Configuration.obj
 0001:000259f0       ?_Mylast@?$_Vector_alloc@U?$_Vec_base_types@HV?$allocator@H@std@@@std@@@std@@QAEAAPAHXZ 100269f0 f i LegitBot.obj
 0001:000259f0       ?_Mylast@?$_Vector_alloc@U?$_Vec_base_types@_SV?$allocator@_S@std@@@std@@@std@@QAEAAPA_SXZ 100269f0 f i Parser.obj
 0001:000259f0       ?_Mylast@?$_Vector_alloc@U?$_Vec_base_types@V?$shared_ptr@VNode@valve_parser@@@std@@V?$allocator@V?$shared_ptr@VNode@valve_parser@@@std@@@2@@std@@@std@@QBEABQAV?$shared_ptr@VNode@valve_parser@@@2@XZ 100269f0 f i Parser.obj
 0001:000259f0       ?_Mylast@?$_Vector_alloc@U?$_Vec_base_types@PAURecvTable@@V?$allocator@PAURecvTable@@@std@@@std@@@std@@QAEAAPAPAURecvTable@@XZ 100269f0 f i NetVarManager.obj
 0001:000259f0       ?_Mylast@?$_Vector_alloc@U?$_Vec_base_types@PAV?$ConfigValue@H@@V?$allocator@PAV?$ConfigValue@H@@@std@@@std@@@std@@QBEABQAPAV?$ConfigValue@H@@XZ 100269f0 f i Configuration.obj
 0001:000259f0       ?_Mylast@?$_Vector_alloc@U?$_Vec_base_types@V?$_List_unchecked_iterator@V?$_List_val@U?$_List_simple_types@U?$pair@$$CBV?$basic_string@DU?$char_traits@D@std@@V?$allocator@D@2@@std@@UskinInfo@@@std@@@std@@@std@@@std@@V?$allocator@V?$_List_unchecked_iterator@V?$_List_val@U?$_List_simple_types@U?$pair@$$CBV?$basic_string@DU?$char_traits@D@std@@V?$allocator@D@2@@std@@UskinInfo@@@std@@@std@@@std@@@std@@@2@@std@@@std@@QAEAAPAV?$_List_unchecked_iterator@V?$_List_val@U?$_List_simple_types@U?$pair@$$CBV?$basic_string@DU?$char_traits@D@std@@V?$allocator@D@2@@std@@UskinInfo@@@std@@@std@@@std@@@2@XZ 100269f0 f i Configuration.obj
 0001:000259f0       ?_Mylast@?$_Vector_alloc@U?$_Vec_base_types@PAV?$ConfigValue@M@@V?$allocator@PAV?$ConfigValue@M@@@std@@@std@@@std@@QBEABQAPAV?$ConfigValue@M@@XZ 100269f0 f i Configuration.obj
 0001:000259f0       ?_Mylast@?$_Vector_alloc@U?$_Vec_base_types@PAV?$ConfigValue@M@@V?$allocator@PAV?$ConfigValue@M@@@std@@@std@@@std@@QAEAAPAPAV?$ConfigValue@M@@XZ 100269f0 f i Configuration.obj
 0001:000259f0       ?_Mylast@?$_Vector_alloc@U?$_Vec_base_types@HV?$allocator@H@std@@@std@@@std@@QBEABQAHXZ 100269f0 f i LegitBot.obj
 0001:000259f0       ?_Mysize@?$_List_alloc@U?$_List_base_types@U?$pair@QADPAD@std@@V?$allocator@U?$pair@QADPAD@std@@@2@@std@@@std@@QAEAAIXZ 100269f0 f i Hooks.obj
 0001:000259f0       ?_Mylast@?$_Vector_alloc@U?$_Vec_base_types@V?$_List_unchecked_iterator@V?$_List_val@U?$_List_simple_types@U?$pair@QADPAD@std@@@std@@@std@@@std@@V?$allocator@V?$_List_unchecked_iterator@V?$_List_val@U?$_List_simple_types@U?$pair@QADPAD@std@@@std@@@std@@@std@@@2@@std@@@std@@QAEAAPAV?$_List_unchecked_iterator@V?$_List_val@U?$_List_simple_types@U?$pair@QADPAD@std@@@std@@@std@@@2@XZ 100269f0 f i Hooks.obj
 0001:000259f0       ?_Mylast@?$_Vector_alloc@U?$_Vec_base_types@VVector@@V?$allocator@VVector@@@std@@@std@@@std@@QBEABQAVVector@@XZ 100269f0 f i GrenadePrediction.obj
 0001:000259f0       ?_Mylast@?$_Vector_alloc@U?$_Vec_base_types@V?$_List_unchecked_iterator@V?$_List_val@U?$_List_simple_types@U?$pair@$$CBV?$basic_string@DU?$char_traits@D@std@@V?$allocator@D@2@@std@@V12@@std@@@std@@@std@@@std@@V?$allocator@V?$_List_unchecked_iterator@V?$_List_val@U?$_List_simple_types@U?$pair@$$CBV?$basic_string@DU?$char_traits@D@std@@V?$allocator@D@2@@std@@V12@@std@@@std@@@std@@@std@@@2@@std@@@std@@QAEAAPAV?$_List_unchecked_iterator@V?$_List_val@U?$_List_simple_types@U?$pair@$$CBV?$basic_string@DU?$char_traits@D@std@@V?$allocator@D@2@@std@@V12@@std@@@std@@@std@@@2@XZ 100269f0 f i Configuration.obj
 0001:000259f0       ?_Mysize@?$_List_alloc@U?$_List_base_types@U?$pair@$$CBV?$basic_string@DU?$char_traits@D@std@@V?$allocator@D@2@@std@@UskinInfo@@@std@@V?$allocator@U?$pair@$$CBV?$basic_string@DU?$char_traits@D@std@@V?$allocator@D@2@@std@@UskinInfo@@@std@@@2@@std@@@std@@QBEABIXZ 100269f0 f i Hooks.obj
 0001:000259f0       ?_Mylast@?$_Vector_alloc@U?$_Vec_base_types@PAV?$ConfigValue@H@@V?$allocator@PAV?$ConfigValue@H@@@std@@@std@@@std@@QAEAAPAPAV?$ConfigValue@H@@XZ 100269f0 f i Configuration.obj
 0001:000259f0       ?_Mysize@?$_List_alloc@U?$_List_base_types@U?$pair@$$CBV?$basic_string@DU?$char_traits@D@std@@V?$allocator@D@2@@std@@UskinInfo@@@std@@V?$allocator@U?$pair@$$CBV?$basic_string@DU?$char_traits@D@std@@V?$allocator@D@2@@std@@UskinInfo@@@std@@@2@@std@@@std@@QAEAAIXZ 100269f0 f i Configuration.obj
 0001:000259f0       ?_Mysize@?$_List_alloc@U?$_List_base_types@U?$pair@$$CBV?$basic_string@DU?$char_traits@D@std@@V?$allocator@D@2@@std@@V?$set@V?$basic_string@DU?$char_traits@D@std@@V?$allocator@D@2@@std@@U?$less@V?$basic_string@DU?$char_traits@D@std@@V?$allocator@D@2@@std@@@2@V?$allocator@V?$basic_string@DU?$char_traits@D@std@@V?$allocator@D@2@@std@@@2@@2@@std@@V?$allocator@U?$pair@$$CBV?$basic_string@DU?$char_traits@D@std@@V?$allocator@D@2@@std@@V?$set@V?$basic_string@DU?$char_traits@D@std@@V?$allocator@D@2@@std@@U?$less@V?$basic_string@DU?$char_traits@D@std@@V?$allocator@D@2@@std@@@2@V?$allocator@V?$basic_string@DU?$char_traits@D@std@@V?$allocator@D@2@@std@@@2@@2@@std@@@2@@std@@@std@@QAEAAIXZ 100269f0 f i Configuration.obj
 0001:000259f0       ?_Mylast@?$_Vector_alloc@U?$_Vec_base_types@V?$_List_unchecked_iterator@V?$_List_val@U?$_List_simple_types@U?$pair@$$CBV?$basic_string@DU?$char_traits@D@std@@V?$allocator@D@2@@std@@UskinInfo@@@std@@@std@@@std@@@std@@V?$allocator@V?$_List_unchecked_iterator@V?$_List_val@U?$_List_simple_types@U?$pair@$$CBV?$basic_string@DU?$char_traits@D@std@@V?$allocator@D@2@@std@@UskinInfo@@@std@@@std@@@std@@@std@@@2@@std@@@std@@QBEABQAV?$_List_unchecked_iterator@V?$_List_val@U?$_List_simple_types@U?$pair@$$CBV?$basic_string@DU?$char_traits@D@std@@V?$allocator@D@2@@std@@UskinInfo@@@std@@@std@@@std@@@2@XZ 100269f0 f i Configuration.obj
 0001:000259f0       ?_Mylast@?$_Vector_alloc@U?$_Vec_base_types@_SV?$allocator@_S@std@@@std@@@std@@QBEABQA_SXZ 100269f0 f i Parser.obj
 0001:000259f0       ?_Mysize@?$_List_alloc@U?$_List_base_types@U?$pair@$$CBV?$basic_string@DU?$char_traits@D@std@@V?$allocator@D@2@@std@@V?$set@V?$basic_string@DU?$char_traits@D@std@@V?$allocator@D@2@@std@@U?$less@V?$basic_string@DU?$char_traits@D@std@@V?$allocator@D@2@@std@@@2@V?$allocator@V?$basic_string@DU?$char_traits@D@std@@V?$allocator@D@2@@std@@@2@@2@@std@@V?$allocator@U?$pair@$$CBV?$basic_string@DU?$char_traits@D@std@@V?$allocator@D@2@@std@@V?$set@V?$basic_string@DU?$char_traits@D@std@@V?$allocator@D@2@@std@@U?$less@V?$basic_string@DU?$char_traits@D@std@@V?$allocator@D@2@@std@@@2@V?$allocator@V?$basic_string@DU?$char_traits@D@std@@V?$allocator@D@2@@std@@@2@@2@@std@@@2@@std@@@std@@QBEABIXZ 100269f0 f i Hooks.obj
 0001:000259f0       ?_Mylast@?$_Vector_alloc@U?$_Vec_base_types@V?$_List_unchecked_iterator@V?$_List_val@U?$_List_simple_types@U?$pair@$$CBV?$basic_string@DU?$char_traits@D@std@@V?$allocator@D@2@@std@@V?$set@V?$basic_string@DU?$char_traits@D@std@@V?$allocator@D@2@@std@@U?$less@V?$basic_string@DU?$char_traits@D@std@@V?$allocator@D@2@@std@@@2@V?$allocator@V?$basic_string@DU?$char_traits@D@std@@V?$allocator@D@2@@std@@@2@@2@@std@@@std@@@std@@@std@@V?$allocator@V?$_List_unchecked_iterator@V?$_List_val@U?$_List_simple_types@U?$pair@$$CBV?$basic_string@DU?$char_traits@D@std@@V?$allocator@D@2@@std@@V?$set@V?$basic_string@DU?$char_traits@D@std@@V?$allocator@D@2@@std@@U?$less@V?$basic_string@DU?$char_traits@D@std@@V?$allocator@D@2@@std@@@2@V?$allocator@V?$basic_string@DU?$char_traits@D@std@@V?$allocator@D@2@@std@@@2@@2@@std@@@std@@@std@@@std@@@2@@std@@@std@@QAEAAPAV?$_List_unchecked_iterator@V?$_List_val@U?$_List_simple_types@U?$pair@$$CBV?$basic_string@DU?$char_traits@D@std@@V?$allocator@D@2@@std@@V?$set@V?$basic_string@DU?$char_traits@D@std@@V?$allocator@D@2@@std@@U?$less@V?$basic_string@DU?$char_traits@D@std@@V?$allocator@D@2@@std@@@2@V?$allocator@V?$basic_string@DU?$char_traits@D@std@@V?$allocator@D@2@@std@@@2@@2@@std@@@std@@@std@@@2@XZ 100269f0 f i Configuration.obj
 0001:000259f0       ?_Mylast@?$_Vector_alloc@U?$_Vec_base_types@V?$_List_unchecked_iterator@V?$_List_val@U?$_List_simple_types@U?$pair@QADPAD@std@@@std@@@std@@@std@@V?$allocator@V?$_List_unchecked_iterator@V?$_List_val@U?$_List_simple_types@U?$pair@QADPAD@std@@@std@@@std@@@std@@@2@@std@@@std@@QBEABQAV?$_List_unchecked_iterator@V?$_List_val@U?$_List_simple_types@U?$pair@QADPAD@std@@@std@@@std@@@2@XZ 100269f0 f i Hooks.obj
 0001:000259f0       ?_Mylast@?$_Vector_alloc@U?$_Vec_base_types@VVector@@V?$allocator@VVector@@@std@@@std@@@std@@QAEAAPAVVector@@XZ 100269f0 f i ESP.obj
 0001:000259f0       ?_Mylast@?$_Vector_alloc@U?$_Vec_base_types@V?$_List_unchecked_iterator@V?$_List_val@U?$_List_simple_types@U?$pair@$$CBV?$basic_string@DU?$char_traits@D@std@@V?$allocator@D@2@@std@@V?$set@V?$basic_string@DU?$char_traits@D@std@@V?$allocator@D@2@@std@@U?$less@V?$basic_string@DU?$char_traits@D@std@@V?$allocator@D@2@@std@@@2@V?$allocator@V?$basic_string@DU?$char_traits@D@std@@V?$allocator@D@2@@std@@@2@@2@@std@@@std@@@std@@@std@@V?$allocator@V?$_List_unchecked_iterator@V?$_List_val@U?$_List_simple_types@U?$pair@$$CBV?$basic_string@DU?$char_traits@D@std@@V?$allocator@D@2@@std@@V?$set@V?$basic_string@DU?$char_traits@D@std@@V?$allocator@D@2@@std@@U?$less@V?$basic_string@DU?$char_traits@D@std@@V?$allocator@D@2@@std@@@2@V?$allocator@V?$basic_string@DU?$char_traits@D@std@@V?$allocator@D@2@@std@@@2@@2@@std@@@std@@@std@@@std@@@2@@std@@@std@@QBEABQAV?$_List_unchecked_iterator@V?$_List_val@U?$_List_simple_types@U?$pair@$$CBV?$basic_string@DU?$char_traits@D@std@@V?$allocator@D@2@@std@@V?$set@V?$basic_string@DU?$char_traits@D@std@@V?$allocator@D@2@@std@@U?$less@V?$basic_string@DU?$char_traits@D@std@@V?$allocator@D@2@@std@@@2@V?$allocator@V?$basic_string@DU?$char_traits@D@std@@V?$allocator@D@2@@std@@@2@@2@@std@@@std@@@std@@@2@XZ 100269f0 f i Configuration.obj
 0001:00025a10       ?_Orphan_all@?$_Vector_alloc@U?$_Vec_base_types@V?$shared_ptr@VNode@valve_parser@@@std@@V?$allocator@V?$shared_ptr@VNode@valve_parser@@@std@@@2@@std@@@std@@QAEXXZ 10026a10 f i Parser.obj
 0001:00025a10       ?_Orphan_all@?$_Vector_alloc@U?$_Vec_base_types@V?$_List_unchecked_iterator@V?$_List_val@U?$_List_simple_types@U?$pair@QADPAD@std@@@std@@@std@@@std@@V?$allocator@V?$_List_unchecked_iterator@V?$_List_val@U?$_List_simple_types@U?$pair@QADPAD@std@@@std@@@std@@@std@@@2@@std@@@std@@QAEXXZ 10026a10 f i Hooks.obj
 0001:00025a10       ?_Orphan_all@?$_Vector_alloc@U?$_Vec_base_types@PAV?$ConfigValue@_N@@V?$allocator@PAV?$ConfigValue@_N@@@std@@@std@@@std@@QAEXXZ 10026a10 f i Configuration.obj
 0001:00025a10       ?_Orphan_all@?$_Vector_alloc@U?$_Vec_base_types@PAURecvTable@@V?$allocator@PAURecvTable@@@std@@@std@@@std@@QAEXXZ 10026a10 f i NetVarManager.obj
 0001:00025a10       ?_Orphan_all@?$_String_alloc@U?$_String_base_types@DV?$allocator@D@std@@@std@@@std@@QAEXXZ 10026a10 f i Parser.obj
 0001:00025a10       ?_Orphan_all@?$_Vector_alloc@U?$_Vec_base_types@VVector@@V?$allocator@VVector@@@std@@@std@@@std@@QAEXXZ 10026a10 f i ESP.obj
 0001:00025a10       ?_Orphan_all@?$_Vector_alloc@U?$_Vec_base_types@PAV?$ConfigValue@M@@V?$allocator@PAV?$ConfigValue@M@@@std@@@std@@@std@@QAEXXZ 10026a10 f i Configuration.obj
 0001:00025a10       ?_Orphan_all@?$_Vector_alloc@U?$_Vec_base_types@V?$_List_unchecked_iterator@V?$_List_val@U?$_List_simple_types@U?$pair@$$CBV?$basic_string@DU?$char_traits@D@std@@V?$allocator@D@2@@std@@UskinInfo@@@std@@@std@@@std@@@std@@V?$allocator@V?$_List_unchecked_iterator@V?$_List_val@U?$_List_simple_types@U?$pair@$$CBV?$basic_string@DU?$char_traits@D@std@@V?$allocator@D@2@@std@@UskinInfo@@@std@@@std@@@std@@@std@@@2@@std@@@std@@QAEXXZ 10026a10 f i Configuration.obj
 0001:00025a10       ?_Orphan_all@?$_Vector_alloc@U?$_Vec_base_types@V?$_List_unchecked_iterator@V?$_List_val@U?$_List_simple_types@U?$pair@$$CBV?$basic_string@DU?$char_traits@D@std@@V?$allocator@D@2@@std@@V?$set@V?$basic_string@DU?$char_traits@D@std@@V?$allocator@D@2@@std@@U?$less@V?$basic_string@DU?$char_traits@D@std@@V?$allocator@D@2@@std@@@2@V?$allocator@V?$basic_string@DU?$char_traits@D@std@@V?$allocator@D@2@@std@@@2@@2@@std@@@std@@@std@@@std@@V?$allocator@V?$_List_unchecked_iterator@V?$_List_val@U?$_List_simple_types@U?$pair@$$CBV?$basic_string@DU?$char_traits@D@std@@V?$allocator@D@2@@std@@V?$set@V?$basic_string@DU?$char_traits@D@std@@V?$allocator@D@2@@std@@U?$less@V?$basic_string@DU?$char_traits@D@std@@V?$allocator@D@2@@std@@@2@V?$allocator@V?$basic_string@DU?$char_traits@D@std@@V?$allocator@D@2@@std@@@2@@2@@std@@@std@@@std@@@std@@@2@@std@@@std@@QAEXXZ 10026a10 f i Configuration.obj
 0001:00025a10       ?_Orphan_all@?$_Vector_alloc@U?$_Vec_base_types@_SV?$allocator@_S@std@@@std@@@std@@QAEXXZ 10026a10 f i Parser.obj
 0001:00025a10       ?_Orphan_all@?$_Vector_alloc@U?$_Vec_base_types@V?$basic_string@DU?$char_traits@D@std@@V?$allocator@D@2@@std@@V?$allocator@V?$basic_string@DU?$char_traits@D@std@@V?$allocator@D@2@@std@@@2@@std@@@std@@QAEXXZ 10026a10 f i Configuration.obj
 0001:00025a10       ?_Orphan_all@?$_Vector_alloc@U?$_Vec_base_types@V?$_List_unchecked_iterator@V?$_List_val@U?$_List_simple_types@U?$pair@$$CBV?$basic_string@DU?$char_traits@D@std@@V?$allocator@D@2@@std@@V12@@std@@@std@@@std@@@std@@V?$allocator@V?$_List_unchecked_iterator@V?$_List_val@U?$_List_simple_types@U?$pair@$$CBV?$basic_string@DU?$char_traits@D@std@@V?$allocator@D@2@@std@@V12@@std@@@std@@@std@@@std@@@2@@std@@@std@@QAEXXZ 10026a10 f i Configuration.obj
 0001:00025a10       ?_Orphan_all@?$_Deque_alloc@U?$_Deque_base_types@V?$shared_ptr@VNode@valve_parser@@@std@@V?$allocator@V?$shared_ptr@VNode@valve_parser@@@std@@@2@@std@@@std@@QAEXXZ 10026a10 f i Hooks.obj
 0001:00025a10       ?_Orphan_all@?$_Vector_alloc@U?$_Vec_base_types@HV?$allocator@H@std@@@std@@@std@@QAEXXZ 10026a10 f i LegitBot.obj
 0001:00025a10       ?_Orphan_all@?$_Vector_alloc@U?$_Vec_base_types@PAV?$ConfigValue@H@@V?$allocator@PAV?$ConfigValue@H@@@std@@@std@@@std@@QAEXXZ 10026a10 f i Configuration.obj
 0001:00025a30       ?_Reallocate_exactly@?$vector@V?$_List_unchecked_iterator@V?$_List_val@U?$_List_simple_types@U?$pair@QADPAD@std@@@std@@@std@@@std@@V?$allocator@V?$_List_unchecked_iterator@V?$_List_val@U?$_List_simple_types@U?$pair@QADPAD@std@@@std@@@std@@@std@@@2@@std@@AAEXI@Z 10026a30 f i Hooks.obj
 0001:00025a30       ?_Reallocate_exactly@?$vector@V?$_List_unchecked_iterator@V?$_List_val@U?$_List_simple_types@U?$pair@$$CBV?$basic_string@DU?$char_traits@D@std@@V?$allocator@D@2@@std@@V12@@std@@@std@@@std@@@std@@V?$allocator@V?$_List_unchecked_iterator@V?$_List_val@U?$_List_simple_types@U?$pair@$$CBV?$basic_string@DU?$char_traits@D@std@@V?$allocator@D@2@@std@@V12@@std@@@std@@@std@@@std@@@2@@std@@AAEXI@Z 10026a30 f i Configuration.obj
 0001:00025a30       ?_Reallocate_exactly@?$vector@V?$_List_unchecked_iterator@V?$_List_val@U?$_List_simple_types@U?$pair@$$CBV?$basic_string@DU?$char_traits@D@std@@V?$allocator@D@2@@std@@UskinInfo@@@std@@@std@@@std@@@std@@V?$allocator@V?$_List_unchecked_iterator@V?$_List_val@U?$_List_simple_types@U?$pair@$$CBV?$basic_string@DU?$char_traits@D@std@@V?$allocator@D@2@@std@@UskinInfo@@@std@@@std@@@std@@@std@@@2@@std@@AAEXI@Z 10026a30 f i Configuration.obj
 0001:00025a30       ?_Reallocate_exactly@?$vector@V?$_List_unchecked_iterator@V?$_List_val@U?$_List_simple_types@U?$pair@$$CBV?$basic_string@DU?$char_traits@D@std@@V?$allocator@D@2@@std@@V?$set@V?$basic_string@DU?$char_traits@D@std@@V?$allocator@D@2@@std@@U?$less@V?$basic_string@DU?$char_traits@D@std@@V?$allocator@D@2@@std@@@2@V?$allocator@V?$basic_string@DU?$char_traits@D@std@@V?$allocator@D@2@@std@@@2@@2@@std@@@std@@@std@@@std@@V?$allocator@V?$_List_unchecked_iterator@V?$_List_val@U?$_List_simple_types@U?$pair@$$CBV?$basic_string@DU?$char_traits@D@std@@V?$allocator@D@2@@std@@V?$set@V?$basic_string@DU?$char_traits@D@std@@V?$allocator@D@2@@std@@U?$less@V?$basic_string@DU?$char_traits@D@std@@V?$allocator@D@2@@std@@@2@V?$allocator@V?$basic_string@DU?$char_traits@D@std@@V?$allocator@D@2@@std@@@2@@2@@std@@@std@@@std@@@std@@@2@@std@@AAEXI@Z 10026a30 f i Configuration.obj
 0001:00025b00       ?_Root@?$_Tree@V?$_Tset_traits@V?$basic_string@DU?$char_traits@D@std@@V?$allocator@D@2@@std@@U?$less@V?$basic_string@DU?$char_traits@D@std@@V?$allocator@D@2@@std@@@2@V?$allocator@V?$basic_string@DU?$char_traits@D@std@@V?$allocator@D@2@@std@@@2@$0A@@std@@@std@@IBEAAPAU?$_Tree_node@V?$basic_string@DU?$char_traits@D@std@@V?$allocator@D@2@@std@@PAX@2@XZ 10026b00 f i Configuration.obj
 0001:00025b00       ?_Root@?$_Tree@V?$_Tmap_traits@W4ItemDefinitionIndexx@@UDefItem_t@@U?$less@W4ItemDefinitionIndexx@@@std@@V?$allocator@U?$pair@$$CBW4ItemDefinitionIndexx@@UDefItem_t@@@std@@@4@$0A@@std@@@std@@IBEAAPAU?$_Tree_node@U?$pair@$$CBW4ItemDefinitionIndexx@@UDefItem_t@@@std@@PAX@2@XZ 10026b00 f i recvproxy.obj
 0001:00025b20       ?_Rrotate@?$_Tree@V?$_Tmap_traits@W4ItemDefinitionIndexx@@UDefItem_t@@U?$less@W4ItemDefinitionIndexx@@@std@@V?$allocator@U?$pair@$$CBW4ItemDefinitionIndexx@@UDefItem_t@@@std@@@4@$0A@@std@@@std@@IAEXPAU?$_Tree_node@U?$pair@$$CBW4ItemDefinitionIndexx@@UDefItem_t@@@std@@PAX@2@@Z 10026b20 f i recvproxy.obj
 0001:00025b20       ?_Rrotate@?$_Tree@V?$_Tset_traits@V?$basic_string@DU?$char_traits@D@std@@V?$allocator@D@2@@std@@U?$less@V?$basic_string@DU?$char_traits@D@std@@V?$allocator@D@2@@std@@@2@V?$allocator@V?$basic_string@DU?$char_traits@D@std@@V?$allocator@D@2@@std@@@2@$0A@@std@@@std@@IAEXPAU?$_Tree_node@V?$basic_string@DU?$char_traits@D@std@@V?$allocator@D@2@@std@@PAX@2@@Z 10026b20 f i Configuration.obj
 0001:00025bc0       ?_Tidy@?$_Tree@V?$_Tset_traits@V?$basic_string@DU?$char_traits@D@std@@V?$allocator@D@2@@std@@U?$less@V?$basic_string@DU?$char_traits@D@std@@V?$allocator@D@2@@std@@@2@V?$allocator@V?$basic_string@DU?$char_traits@D@std@@V?$allocator@D@2@@std@@@2@$0A@@std@@@std@@IAEXXZ 10026bc0 f i Configuration.obj
 0001:00025c00       ?_Tidy@?$list@U?$pair@$$CBV?$basic_string@DU?$char_traits@D@std@@V?$allocator@D@2@@std@@UskinInfo@@@std@@V?$allocator@U?$pair@$$CBV?$basic_string@DU?$char_traits@D@std@@V?$allocator@D@2@@std@@UskinInfo@@@std@@@2@@std@@QAEXXZ 10026c00 f i Configuration.obj
 0001:00025c20       ?_Tidy@?$list@U?$pair@$$CBV?$basic_string@DU?$char_traits@D@std@@V?$allocator@D@2@@std@@V12@@std@@V?$allocator@U?$pair@$$CBV?$basic_string@DU?$char_traits@D@std@@V?$allocator@D@2@@std@@V12@@std@@@2@@std@@QAEXXZ 10026c20 f i Configuration.obj
 0001:00025c40       ?_Tidy@?$list@U?$pair@$$CBV?$basic_string@DU?$char_traits@D@std@@V?$allocator@D@2@@std@@V?$set@V?$basic_string@DU?$char_traits@D@std@@V?$allocator@D@2@@std@@U?$less@V?$basic_string@DU?$char_traits@D@std@@V?$allocator@D@2@@std@@@2@V?$allocator@V?$basic_string@DU?$char_traits@D@std@@V?$allocator@D@2@@std@@@2@@2@@std@@V?$allocator@U?$pair@$$CBV?$basic_string@DU?$char_traits@D@std@@V?$allocator@D@2@@std@@V?$set@V?$basic_string@DU?$char_traits@D@std@@V?$allocator@D@2@@std@@U?$less@V?$basic_string@DU?$char_traits@D@std@@V?$allocator@D@2@@std@@@2@V?$allocator@V?$basic_string@DU?$char_traits@D@std@@V?$allocator@D@2@@std@@@2@@2@@std@@@2@@std@@QAEXXZ 10026c40 f i Configuration.obj
 0001:00025c60       ?_Tidy@?$vector@HV?$allocator@H@std@@@std@@AAEXXZ 10026c60 f i LegitBot.obj
 0001:00025c60       ?_Tidy@?$vector@PAV?$ConfigValue@M@@V?$allocator@PAV?$ConfigValue@M@@@std@@@std@@AAEXXZ 10026c60 f i Configuration.obj
 0001:00025c60       ?_Tidy@?$vector@PAV?$ConfigValue@_N@@V?$allocator@PAV?$ConfigValue@_N@@@std@@@std@@AAEXXZ 10026c60 f i Configuration.obj
 0001:00025c60       ?_Tidy@?$vector@V?$_List_unchecked_iterator@V?$_List_val@U?$_List_simple_types@U?$pair@$$CBV?$basic_string@DU?$char_traits@D@std@@V?$allocator@D@2@@std@@V?$set@V?$basic_string@DU?$char_traits@D@std@@V?$allocator@D@2@@std@@U?$less@V?$basic_string@DU?$char_traits@D@std@@V?$allocator@D@2@@std@@@2@V?$allocator@V?$basic_string@DU?$char_traits@D@std@@V?$allocator@D@2@@std@@@2@@2@@std@@@std@@@std@@@std@@V?$allocator@V?$_List_unchecked_iterator@V?$_List_val@U?$_List_simple_types@U?$pair@$$CBV?$basic_string@DU?$char_traits@D@std@@V?$allocator@D@2@@std@@V?$set@V?$basic_string@DU?$char_traits@D@std@@V?$allocator@D@2@@std@@U?$less@V?$basic_string@DU?$char_traits@D@std@@V?$allocator@D@2@@std@@@2@V?$allocator@V?$basic_string@DU?$char_traits@D@std@@V?$allocator@D@2@@std@@@2@@2@@std@@@std@@@std@@@std@@@2@@std@@AAEXXZ 10026c60 f i Configuration.obj
 0001:00025c60       ?_Tidy@?$vector@V?$_List_unchecked_iterator@V?$_List_val@U?$_List_simple_types@U?$pair@$$CBV?$basic_string@DU?$char_traits@D@std@@V?$allocator@D@2@@std@@UskinInfo@@@std@@@std@@@std@@@std@@V?$allocator@V?$_List_unchecked_iterator@V?$_List_val@U?$_List_simple_types@U?$pair@$$CBV?$basic_string@DU?$char_traits@D@std@@V?$allocator@D@2@@std@@UskinInfo@@@std@@@std@@@std@@@std@@@2@@std@@AAEXXZ 10026c60 f i Configuration.obj
 0001:00025c60       ?_Tidy@?$vector@V?$_List_unchecked_iterator@V?$_List_val@U?$_List_simple_types@U?$pair@$$CBV?$basic_string@DU?$char_traits@D@std@@V?$allocator@D@2@@std@@V12@@std@@@std@@@std@@@std@@V?$allocator@V?$_List_unchecked_iterator@V?$_List_val@U?$_List_simple_types@U?$pair@$$CBV?$basic_string@DU?$char_traits@D@std@@V?$allocator@D@2@@std@@V12@@std@@@std@@@std@@@std@@@2@@std@@AAEXXZ 10026c60 f i Configuration.obj
 0001:00025c60       ?_Tidy@?$vector@V?$_List_unchecked_iterator@V?$_List_val@U?$_List_simple_types@U?$pair@QADPAD@std@@@std@@@std@@@std@@V?$allocator@V?$_List_unchecked_iterator@V?$_List_val@U?$_List_simple_types@U?$pair@QADPAD@std@@@std@@@std@@@std@@@2@@std@@AAEXXZ 10026c60 f i Hooks.obj
 0001:00025c60       ?_Tidy@?$vector@PAV?$ConfigValue@H@@V?$allocator@PAV?$ConfigValue@H@@@std@@@std@@AAEXXZ 10026c60 f i Configuration.obj
 0001:00025cf0       ?_Tidy@?$vector@V?$basic_string@DU?$char_traits@D@std@@V?$allocator@D@2@@std@@V?$allocator@V?$basic_string@DU?$char_traits@D@std@@V?$allocator@D@2@@std@@@2@@std@@AAEXXZ 10026cf0 f i Configuration.obj
 0001:00025d80       ?_Ufill@?$vector@V?$_List_unchecked_iterator@V?$_List_val@U?$_List_simple_types@U?$pair@$$CBV?$basic_string@DU?$char_traits@D@std@@V?$allocator@D@2@@std@@V?$set@V?$basic_string@DU?$char_traits@D@std@@V?$allocator@D@2@@std@@U?$less@V?$basic_string@DU?$char_traits@D@std@@V?$allocator@D@2@@std@@@2@V?$allocator@V?$basic_string@DU?$char_traits@D@std@@V?$allocator@D@2@@std@@@2@@2@@std@@@std@@@std@@@std@@V?$allocator@V?$_List_unchecked_iterator@V?$_List_val@U?$_List_simple_types@U?$pair@$$CBV?$basic_string@DU?$char_traits@D@std@@V?$allocator@D@2@@std@@V?$set@V?$basic_string@DU?$char_traits@D@std@@V?$allocator@D@2@@std@@U?$less@V?$basic_string@DU?$char_traits@D@std@@V?$allocator@D@2@@std@@@2@V?$allocator@V?$basic_string@DU?$char_traits@D@std@@V?$allocator@D@2@@std@@@2@@2@@std@@@std@@@std@@@std@@@2@@std@@AAEPAV?$_List_unchecked_iterator@V?$_List_val@U?$_List_simple_types@U?$pair@$$CBV?$basic_string@DU?$char_traits@D@std@@V?$allocator@D@2@@std@@V?$set@V?$basic_string@DU?$char_traits@D@std@@V?$allocator@D@2@@std@@U?$less@V?$basic_string@DU?$char_traits@D@std@@V?$allocator@D@2@@std@@@2@V?$allocator@V?$basic_string@DU?$char_traits@D@std@@V?$allocator@D@2@@std@@@2@@2@@std@@@std@@@std@@@2@PAV32@IABV32@@Z 10026d80 f i Configuration.obj
 0001:00025d80       ?_Ufill@?$vector@V?$_List_unchecked_iterator@V?$_List_val@U?$_List_simple_types@U?$pair@$$CBV?$basic_string@DU?$char_traits@D@std@@V?$allocator@D@2@@std@@UskinInfo@@@std@@@std@@@std@@@std@@V?$allocator@V?$_List_unchecked_iterator@V?$_List_val@U?$_List_simple_types@U?$pair@$$CBV?$basic_string@DU?$char_traits@D@std@@V?$allocator@D@2@@std@@UskinInfo@@@std@@@std@@@std@@@std@@@2@@std@@AAEPAV?$_List_unchecked_iterator@V?$_List_val@U?$_List_simple_types@U?$pair@$$CBV?$basic_string@DU?$char_traits@D@std@@V?$allocator@D@2@@std@@UskinInfo@@@std@@@std@@@std@@@2@PAV32@IABV32@@Z 10026d80 f i Configuration.obj
 0001:00025d80       ?_Ufill@?$vector@V?$_List_unchecked_iterator@V?$_List_val@U?$_List_simple_types@U?$pair@$$CBV?$basic_string@DU?$char_traits@D@std@@V?$allocator@D@2@@std@@V12@@std@@@std@@@std@@@std@@V?$allocator@V?$_List_unchecked_iterator@V?$_List_val@U?$_List_simple_types@U?$pair@$$CBV?$basic_string@DU?$char_traits@D@std@@V?$allocator@D@2@@std@@V12@@std@@@std@@@std@@@std@@@2@@std@@AAEPAV?$_List_unchecked_iterator@V?$_List_val@U?$_List_simple_types@U?$pair@$$CBV?$basic_string@DU?$char_traits@D@std@@V?$allocator@D@2@@std@@V12@@std@@@std@@@std@@@2@PAV32@IABV32@@Z 10026d80 f i Configuration.obj
 0001:00025d80       ?_Ufill@?$vector@V?$_List_unchecked_iterator@V?$_List_val@U?$_List_simple_types@U?$pair@QADPAD@std@@@std@@@std@@@std@@V?$allocator@V?$_List_unchecked_iterator@V?$_List_val@U?$_List_simple_types@U?$pair@QADPAD@std@@@std@@@std@@@std@@@2@@std@@AAEPAV?$_List_unchecked_iterator@V?$_List_val@U?$_List_simple_types@U?$pair@QADPAD@std@@@std@@@std@@@2@PAV32@IABV32@@Z 10026d80 f i Hooks.obj
 0001:00025db0       ?_Umove_if_noexcept1@?$vector@PAV?$ConfigValue@M@@V?$allocator@PAV?$ConfigValue@M@@@std@@@std@@AAEXPAPAV?$ConfigValue@M@@00U?$integral_constant@_N$00@2@@Z 10026db0 f i Configuration.obj
 0001:00025db0       ?_Umove_if_noexcept1@?$vector@PAV?$ConfigValue@_N@@V?$allocator@PAV?$ConfigValue@_N@@@std@@@std@@AAEXPAPAV?$ConfigValue@_N@@00U?$integral_constant@_N$00@2@@Z 10026db0 f i Configuration.obj
 0001:00025db0       ?_Umove_if_noexcept1@?$vector@HV?$allocator@H@std@@@std@@AAEXPAH00U?$integral_constant@_N$00@2@@Z 10026db0 f i RageBot.obj
 0001:00025db0       ?_Umove_if_noexcept1@?$vector@PAV?$ConfigValue@H@@V?$allocator@PAV?$ConfigValue@H@@@std@@@std@@AAEXPAPAV?$ConfigValue@H@@00U?$integral_constant@_N$00@2@@Z 10026db0 f i Configuration.obj
 0001:00025db0       ?_Umove_if_noexcept1@?$vector@PAURecvTable@@V?$allocator@PAURecvTable@@@std@@@std@@AAEXPAPAURecvTable@@00U?$integral_constant@_N$00@2@@Z 10026db0 f i NetVarManager.obj
 0001:00025db0       ?_Umove_if_noexcept1@?$vector@_SV?$allocator@_S@std@@@std@@AAEXPA_S00U?$integral_constant@_N$00@2@@Z 10026db0 f i Parser.obj
 0001:00025de0       ?_Umove_if_noexcept1@?$vector@V?$_List_unchecked_iterator@V?$_List_val@U?$_List_simple_types@U?$pair@QADPAD@std@@@std@@@std@@@std@@V?$allocator@V?$_List_unchecked_iterator@V?$_List_val@U?$_List_simple_types@U?$pair@QADPAD@std@@@std@@@std@@@std@@@2@@std@@AAEXPAV?$_List_unchecked_iterator@V?$_List_val@U?$_List_simple_types@U?$pair@QADPAD@std@@@std@@@std@@@2@00U?$integral_constant@_N$00@2@@Z 10026de0 f i Hooks.obj
 0001:00025de0       ?_Umove_if_noexcept1@?$vector@V?$_List_unchecked_iterator@V?$_List_val@U?$_List_simple_types@U?$pair@$$CBV?$basic_string@DU?$char_traits@D@std@@V?$allocator@D@2@@std@@V12@@std@@@std@@@std@@@std@@V?$allocator@V?$_List_unchecked_iterator@V?$_List_val@U?$_List_simple_types@U?$pair@$$CBV?$basic_string@DU?$char_traits@D@std@@V?$allocator@D@2@@std@@V12@@std@@@std@@@std@@@std@@@2@@std@@AAEXPAV?$_List_unchecked_iterator@V?$_List_val@U?$_List_simple_types@U?$pair@$$CBV?$basic_string@DU?$char_traits@D@std@@V?$allocator@D@2@@std@@V12@@std@@@std@@@std@@@2@00U?$integral_constant@_N$00@2@@Z 10026de0 f i Configuration.obj
 0001:00025de0       ?_Umove_if_noexcept1@?$vector@V?$_List_unchecked_iterator@V?$_List_val@U?$_List_simple_types@U?$pair@$$CBV?$basic_string@DU?$char_traits@D@std@@V?$allocator@D@2@@std@@UskinInfo@@@std@@@std@@@std@@@std@@V?$allocator@V?$_List_unchecked_iterator@V?$_List_val@U?$_List_simple_types@U?$pair@$$CBV?$basic_string@DU?$char_traits@D@std@@V?$allocator@D@2@@std@@UskinInfo@@@std@@@std@@@std@@@std@@@2@@std@@AAEXPAV?$_List_unchecked_iterator@V?$_List_val@U?$_List_simple_types@U?$pair@$$CBV?$basic_string@DU?$char_traits@D@std@@V?$allocator@D@2@@std@@UskinInfo@@@std@@@std@@@std@@@2@00U?$integral_constant@_N$00@2@@Z 10026de0 f i Configuration.obj
 0001:00025de0       ?_Umove_if_noexcept1@?$vector@V?$_List_unchecked_iterator@V?$_List_val@U?$_List_simple_types@U?$pair@$$CBV?$basic_string@DU?$char_traits@D@std@@V?$allocator@D@2@@std@@V?$set@V?$basic_string@DU?$char_traits@D@std@@V?$allocator@D@2@@std@@U?$less@V?$basic_string@DU?$char_traits@D@std@@V?$allocator@D@2@@std@@@2@V?$allocator@V?$basic_string@DU?$char_traits@D@std@@V?$allocator@D@2@@std@@@2@@2@@std@@@std@@@std@@@std@@V?$allocator@V?$_List_unchecked_iterator@V?$_List_val@U?$_List_simple_types@U?$pair@$$CBV?$basic_string@DU?$char_traits@D@std@@V?$allocator@D@2@@std@@V?$set@V?$basic_string@DU?$char_traits@D@std@@V?$allocator@D@2@@std@@U?$less@V?$basic_string@DU?$char_traits@D@std@@V?$allocator@D@2@@std@@@2@V?$allocator@V?$basic_string@DU?$char_traits@D@std@@V?$allocator@D@2@@std@@@2@@2@@std@@@std@@@std@@@std@@@2@@std@@AAEXPAV?$_List_unchecked_iterator@V?$_List_val@U?$_List_simple_types@U?$pair@$$CBV?$basic_string@DU?$char_traits@D@std@@V?$allocator@D@2@@std@@V?$set@V?$basic_string@DU?$char_traits@D@std@@V?$allocator@D@2@@std@@U?$less@V?$basic_string@DU?$char_traits@D@std@@V?$allocator@D@2@@std@@@2@V?$allocator@V?$basic_string@DU?$char_traits@D@std@@V?$allocator@D@2@@std@@@2@@2@@std@@@std@@@std@@@2@00U?$integral_constant@_N$00@2@@Z 10026de0 f i Configuration.obj
 0001:00025e10       ?_Umove_if_noexcept@?$vector@PAV?$ConfigValue@H@@V?$allocator@PAV?$ConfigValue@H@@@std@@@std@@AAEXPAPAV?$ConfigValue@H@@00@Z 10026e10 f i Configuration.obj
 0001:00025e10       ?_Umove_if_noexcept@?$vector@PAV?$ConfigValue@_N@@V?$allocator@PAV?$ConfigValue@_N@@@std@@@std@@AAEXPAPAV?$ConfigValue@_N@@00@Z 10026e10 f i Configuration.obj
 0001:00025e10       ?_Umove_if_noexcept@?$vector@PAURecvTable@@V?$allocator@PAURecvTable@@@std@@@std@@AAEXPAPAURecvTable@@00@Z 10026e10 f i NetVarManager.obj
 0001:00025e10       ?_Umove_if_noexcept@?$vector@PAV?$ConfigValue@M@@V?$allocator@PAV?$ConfigValue@M@@@std@@@std@@AAEXPAPAV?$ConfigValue@M@@00@Z 10026e10 f i Configuration.obj
 0001:00025e10       ?_Umove_if_noexcept@?$vector@HV?$allocator@H@std@@@std@@AAEXPAH00@Z 10026e10 f i RageBot.obj
 0001:00025e10       ?_Umove_if_noexcept@?$vector@_SV?$allocator@_S@std@@@std@@AAEXPA_S00@Z 10026e10 f i Parser.obj
 0001:00025e40       ?_Umove_if_noexcept@?$vector@V?$_List_unchecked_iterator@V?$_List_val@U?$_List_simple_types@U?$pair@$$CBV?$basic_string@DU?$char_traits@D@std@@V?$allocator@D@2@@std@@UskinInfo@@@std@@@std@@@std@@@std@@V?$allocator@V?$_List_unchecked_iterator@V?$_List_val@U?$_List_simple_types@U?$pair@$$CBV?$basic_string@DU?$char_traits@D@std@@V?$allocator@D@2@@std@@UskinInfo@@@std@@@std@@@std@@@std@@@2@@std@@AAEXPAV?$_List_unchecked_iterator@V?$_List_val@U?$_List_simple_types@U?$pair@$$CBV?$basic_string@DU?$char_traits@D@std@@V?$allocator@D@2@@std@@UskinInfo@@@std@@@std@@@std@@@2@00@Z 10026e40 f i Configuration.obj
 0001:00025e40       ?_Umove_if_noexcept@?$vector@V?$_List_unchecked_iterator@V?$_List_val@U?$_List_simple_types@U?$pair@QADPAD@std@@@std@@@std@@@std@@V?$allocator@V?$_List_unchecked_iterator@V?$_List_val@U?$_List_simple_types@U?$pair@QADPAD@std@@@std@@@std@@@std@@@2@@std@@AAEXPAV?$_List_unchecked_iterator@V?$_List_val@U?$_List_simple_types@U?$pair@QADPAD@std@@@std@@@std@@@2@00@Z 10026e40 f i Hooks.obj
 0001:00025e40       ?_Umove_if_noexcept@?$vector@V?$_List_unchecked_iterator@V?$_List_val@U?$_List_simple_types@U?$pair@$$CBV?$basic_string@DU?$char_traits@D@std@@V?$allocator@D@2@@std@@V?$set@V?$basic_string@DU?$char_traits@D@std@@V?$allocator@D@2@@std@@U?$less@V?$basic_string@DU?$char_traits@D@std@@V?$allocator@D@2@@std@@@2@V?$allocator@V?$basic_string@DU?$char_traits@D@std@@V?$allocator@D@2@@std@@@2@@2@@std@@@std@@@std@@@std@@V?$allocator@V?$_List_unchecked_iterator@V?$_List_val@U?$_List_simple_types@U?$pair@$$CBV?$basic_string@DU?$char_traits@D@std@@V?$allocator@D@2@@std@@V?$set@V?$basic_string@DU?$char_traits@D@std@@V?$allocator@D@2@@std@@U?$less@V?$basic_string@DU?$char_traits@D@std@@V?$allocator@D@2@@std@@@2@V?$allocator@V?$basic_string@DU?$char_traits@D@std@@V?$allocator@D@2@@std@@@2@@2@@std@@@std@@@std@@@std@@@2@@std@@AAEXPAV?$_List_unchecked_iterator@V?$_List_val@U?$_List_simple_types@U?$pair@$$CBV?$basic_string@DU?$char_traits@D@std@@V?$allocator@D@2@@std@@V?$set@V?$basic_string@DU?$char_traits@D@std@@V?$allocator@D@2@@std@@U?$less@V?$basic_string@DU?$char_traits@D@std@@V?$allocator@D@2@@std@@@2@V?$allocator@V?$basic_string@DU?$char_traits@D@std@@V?$allocator@D@2@@std@@@2@@2@@std@@@std@@@std@@@2@00@Z 10026e40 f i Configuration.obj
 0001:00025e40       ?_Umove_if_noexcept@?$vector@V?$_List_unchecked_iterator@V?$_List_val@U?$_List_simple_types@U?$pair@$$CBV?$basic_string@DU?$char_traits@D@std@@V?$allocator@D@2@@std@@V12@@std@@@std@@@std@@@std@@V?$allocator@V?$_List_unchecked_iterator@V?$_List_val@U?$_List_simple_types@U?$pair@$$CBV?$basic_string@DU?$char_traits@D@std@@V?$allocator@D@2@@std@@V12@@std@@@std@@@std@@@std@@@2@@std@@AAEXPAV?$_List_unchecked_iterator@V?$_List_val@U?$_List_simple_types@U?$pair@$$CBV?$basic_string@DU?$char_traits@D@std@@V?$allocator@D@2@@std@@V12@@std@@@std@@@std@@@2@00@Z 10026e40 f i Configuration.obj
 0001:00025e70       ?_Unchecked_end@?$_Hash@V?$_Umap_traits@V?$basic_string@DU?$char_traits@D@std@@V?$allocator@D@2@@std@@V12@V?$_Uhash_compare@V?$basic_string@DU?$char_traits@D@std@@V?$allocator@D@2@@std@@U?$hash@V?$basic_string@DU?$char_traits@D@std@@V?$allocator@D@2@@std@@@2@U?$equal_to@V?$basic_string@DU?$char_traits@D@std@@V?$allocator@D@2@@std@@@2@@2@V?$allocator@U?$pair@$$CBV?$basic_string@DU?$char_traits@D@std@@V?$allocator@D@2@@std@@V12@@std@@@2@$0A@@std@@@std@@QAE?AV?$_List_unchecked_iterator@V?$_List_val@U?$_List_simple_types@U?$pair@$$CBV?$basic_string@DU?$char_traits@D@std@@V?$allocator@D@2@@std@@V12@@std@@@std@@@std@@@2@XZ 10026e70 f i Configuration.obj
 0001:00025e70       ?_Unchecked_end@?$_Hash@V?$_Umap_traits@PADPADV?$_Uhash_compare@PADU?$hash@PAD@std@@U?$equal_to@PAD@2@@std@@V?$allocator@U?$pair@QADPAD@std@@@2@$0A@@std@@@std@@QAE?AV?$_List_unchecked_iterator@V?$_List_val@U?$_List_simple_types@U?$pair@QADPAD@std@@@std@@@std@@@2@XZ 10026e70 f i Hooks.obj
 0001:00025e70       ?_Unchecked_end@?$_Hash@V?$_Umap_traits@V?$basic_string@DU?$char_traits@D@std@@V?$allocator@D@2@@std@@UskinInfo@@V?$_Uhash_compare@V?$basic_string@DU?$char_traits@D@std@@V?$allocator@D@2@@std@@U?$hash@V?$basic_string@DU?$char_traits@D@std@@V?$allocator@D@2@@std@@@2@U?$equal_to@V?$basic_string@DU?$char_traits@D@std@@V?$allocator@D@2@@std@@@2@@2@V?$allocator@U?$pair@$$CBV?$basic_string@DU?$char_traits@D@std@@V?$allocator@D@2@@std@@UskinInfo@@@std@@@2@$0A@@std@@@std@@QAE?AV?$_List_unchecked_iterator@V?$_List_val@U?$_List_simple_types@U?$pair@$$CBV?$basic_string@DU?$char_traits@D@std@@V?$allocator@D@2@@std@@UskinInfo@@@std@@@std@@@std@@@2@XZ 10026e70 f i Configuration.obj
 0001:00025e70       ?_Unchecked_end@?$_Hash@V?$_Umap_traits@V?$basic_string@DU?$char_traits@D@std@@V?$allocator@D@2@@std@@V?$set@V?$basic_string@DU?$char_traits@D@std@@V?$allocator@D@2@@std@@U?$less@V?$basic_string@DU?$char_traits@D@std@@V?$allocator@D@2@@std@@@2@V?$allocator@V?$basic_string@DU?$char_traits@D@std@@V?$allocator@D@2@@std@@@2@@2@V?$_Uhash_compare@V?$basic_string@DU?$char_traits@D@std@@V?$allocator@D@2@@std@@U?$hash@V?$basic_string@DU?$char_traits@D@std@@V?$allocator@D@2@@std@@@2@U?$equal_to@V?$basic_string@DU?$char_traits@D@std@@V?$allocator@D@2@@std@@@2@@2@V?$allocator@U?$pair@$$CBV?$basic_string@DU?$char_traits@D@std@@V?$allocator@D@2@@std@@V?$set@V?$basic_string@DU?$char_traits@D@std@@V?$allocator@D@2@@std@@U?$less@V?$basic_string@DU?$char_traits@D@std@@V?$allocator@D@2@@std@@@2@V?$allocator@V?$basic_string@DU?$char_traits@D@std@@V?$allocator@D@2@@std@@@2@@2@@std@@@2@$0A@@std@@@std@@QAE?AV?$_List_unchecked_iterator@V?$_List_val@U?$_List_simple_types@U?$pair@$$CBV?$basic_string@DU?$char_traits@D@std@@V?$allocator@D@2@@std@@V?$set@V?$basic_string@DU?$char_traits@D@std@@V?$allocator@D@2@@std@@U?$less@V?$basic_string@DU?$char_traits@D@std@@V?$allocator@D@2@@std@@@2@V?$allocator@V?$basic_string@DU?$char_traits@D@std@@V?$allocator@D@2@@std@@@2@@2@@std@@@std@@@std@@@2@XZ 10026e70 f i Configuration.obj
 0001:00025e90       ?_Unchecked_end@?$list@U?$pair@$$CBV?$basic_string@DU?$char_traits@D@std@@V?$allocator@D@2@@std@@UskinInfo@@@std@@V?$allocator@U?$pair@$$CBV?$basic_string@DU?$char_traits@D@std@@V?$allocator@D@2@@std@@UskinInfo@@@std@@@2@@std@@QAE?AV?$_List_unchecked_iterator@V?$_List_val@U?$_List_simple_types@U?$pair@$$CBV?$basic_string@DU?$char_traits@D@std@@V?$allocator@D@2@@std@@UskinInfo@@@std@@@std@@@std@@@2@XZ 10026e90 f i Configuration.obj
 0001:00025e90       ?_Unchecked_end@?$list@U?$pair@$$CBV?$basic_string@DU?$char_traits@D@std@@V?$allocator@D@2@@std@@V?$set@V?$basic_string@DU?$char_traits@D@std@@V?$allocator@D@2@@std@@U?$less@V?$basic_string@DU?$char_traits@D@std@@V?$allocator@D@2@@std@@@2@V?$allocator@V?$basic_string@DU?$char_traits@D@std@@V?$allocator@D@2@@std@@@2@@2@@std@@V?$allocator@U?$pair@$$CBV?$basic_string@DU?$char_traits@D@std@@V?$allocator@D@2@@std@@V?$set@V?$basic_string@DU?$char_traits@D@std@@V?$allocator@D@2@@std@@U?$less@V?$basic_string@DU?$char_traits@D@std@@V?$allocator@D@2@@std@@@2@V?$allocator@V?$basic_string@DU?$char_traits@D@std@@V?$allocator@D@2@@std@@@2@@2@@std@@@2@@std@@QAE?AV?$_List_unchecked_iterator@V?$_List_val@U?$_List_simple_types@U?$pair@$$CBV?$basic_string@DU?$char_traits@D@std@@V?$allocator@D@2@@std@@V?$set@V?$basic_string@DU?$char_traits@D@std@@V?$allocator@D@2@@std@@U?$less@V?$basic_string@DU?$char_traits@D@std@@V?$allocator@D@2@@std@@@2@V?$allocator@V?$basic_string@DU?$char_traits@D@std@@V?$allocator@D@2@@std@@@2@@2@@std@@@std@@@std@@@2@XZ 10026e90 f i Configuration.obj
 0001:00025e90       ?_Unchecked_end@?$list@U?$pair@QADPAD@std@@V?$allocator@U?$pair@QADPAD@std@@@2@@std@@QAE?AV?$_List_unchecked_iterator@V?$_List_val@U?$_List_simple_types@U?$pair@QADPAD@std@@@std@@@std@@@2@XZ 10026e90 f i Hooks.obj
 0001:00025e90       ?_Unchecked_end@?$list@U?$pair@$$CBV?$basic_string@DU?$char_traits@D@std@@V?$allocator@D@2@@std@@V12@@std@@V?$allocator@U?$pair@$$CBV?$basic_string@DU?$char_traits@D@std@@V?$allocator@D@2@@std@@V12@@std@@@2@@std@@QAE?AV?$_List_unchecked_iterator@V?$_List_val@U?$_List_simple_types@U?$pair@$$CBV?$basic_string@DU?$char_traits@D@std@@V?$allocator@D@2@@std@@V12@@std@@@std@@@std@@@2@XZ 10026e90 f i Configuration.obj
 0001:00025ec0       ?size@?$list@U?$pair@$$CBV?$basic_string@DU?$char_traits@D@std@@V?$allocator@D@2@@std@@V12@@std@@V?$allocator@U?$pair@$$CBV?$basic_string@DU?$char_traits@D@std@@V?$allocator@D@2@@std@@V12@@std@@@2@@std@@QBEIXZ 10026ec0 f i Hooks.obj
 0001:00025ec0       ?_Unchecked_end@?$vector@PAV?$ConfigValue@H@@V?$allocator@PAV?$ConfigValue@H@@@std@@@std@@QAEPAPAV?$ConfigValue@H@@XZ 10026ec0 f i Configuration.obj
 0001:00025ec0       ?size@?$list@U?$pair@$$CBV?$basic_string@DU?$char_traits@D@std@@V?$allocator@D@2@@std@@V?$set@V?$basic_string@DU?$char_traits@D@std@@V?$allocator@D@2@@std@@U?$less@V?$basic_string@DU?$char_traits@D@std@@V?$allocator@D@2@@std@@@2@V?$allocator@V?$basic_string@DU?$char_traits@D@std@@V?$allocator@D@2@@std@@@2@@2@@std@@V?$allocator@U?$pair@$$CBV?$basic_string@DU?$char_traits@D@std@@V?$allocator@D@2@@std@@V?$set@V?$basic_string@DU?$char_traits@D@std@@V?$allocator@D@2@@std@@U?$less@V?$basic_string@DU?$char_traits@D@std@@V?$allocator@D@2@@std@@@2@V?$allocator@V?$basic_string@DU?$char_traits@D@std@@V?$allocator@D@2@@std@@@2@@2@@std@@@2@@std@@QBEIXZ 10026ec0 f i Hooks.obj
 0001:00025ec0       ?_Unchecked_end@?$vector@PAV?$ConfigValue@M@@V?$allocator@PAV?$ConfigValue@M@@@std@@@std@@QAEPAPAV?$ConfigValue@M@@XZ 10026ec0 f i Configuration.obj
 0001:00025ec0       ?size@?$list@U?$pair@$$CBV?$basic_string@DU?$char_traits@D@std@@V?$allocator@D@2@@std@@UskinInfo@@@std@@V?$allocator@U?$pair@$$CBV?$basic_string@DU?$char_traits@D@std@@V?$allocator@D@2@@std@@UskinInfo@@@std@@@2@@std@@QBEIXZ 10026ec0 f i Hooks.obj
 0001:00025ec0       ?_Unchecked_end@?$vector@V?$basic_string@DU?$char_traits@D@std@@V?$allocator@D@2@@std@@V?$allocator@V?$basic_string@DU?$char_traits@D@std@@V?$allocator@D@2@@std@@@2@@std@@QAEPAV?$basic_string@DU?$char_traits@D@std@@V?$allocator@D@2@@2@XZ 10026ec0 f i Hooks.obj
 0001:00025ec0       ?_Unchecked_end@?$vector@PAV?$ConfigValue@_N@@V?$allocator@PAV?$ConfigValue@_N@@@std@@@std@@QAEPAPAV?$ConfigValue@_N@@XZ 10026ec0 f i Configuration.obj
 0001:00025ec0       ?_Unchecked_end@?$vector@HV?$allocator@H@std@@@std@@QAEPAHXZ 10026ec0 f i RageBot.obj
 0001:00025ec0       ?_Unchecked_end@?$vector@HV?$allocator@H@std@@@std@@QBEPBHXZ 10026ec0 f i LegitBot.obj
 0001:00025ec0       ?_Unchecked_end@?$vector@V?$shared_ptr@VNode@valve_parser@@@std@@V?$allocator@V?$shared_ptr@VNode@valve_parser@@@std@@@2@@std@@QAEPAV?$shared_ptr@VNode@valve_parser@@@2@XZ 10026ec0 f i Parser.obj
 0001:00025ee0       ?_Xlength@?$vector@HV?$allocator@H@std@@@std@@CAXXZ 10026ee0 f i LegitBot.obj
 0001:00025ee0       ?_Xlength@?$vector@V?$_List_unchecked_iterator@V?$_List_val@U?$_List_simple_types@U?$pair@$$CBV?$basic_string@DU?$char_traits@D@std@@V?$allocator@D@2@@std@@UskinInfo@@@std@@@std@@@std@@@std@@V?$allocator@V?$_List_unchecked_iterator@V?$_List_val@U?$_List_simple_types@U?$pair@$$CBV?$basic_string@DU?$char_traits@D@std@@V?$allocator@D@2@@std@@UskinInfo@@@std@@@std@@@std@@@std@@@2@@std@@CAXXZ 10026ee0 f i Configuration.obj
 0001:00025ee0       ?_Xlength@?$vector@V?$_List_unchecked_iterator@V?$_List_val@U?$_List_simple_types@U?$pair@$$CBV?$basic_string@DU?$char_traits@D@std@@V?$allocator@D@2@@std@@V12@@std@@@std@@@std@@@std@@V?$allocator@V?$_List_unchecked_iterator@V?$_List_val@U?$_List_simple_types@U?$pair@$$CBV?$basic_string@DU?$char_traits@D@std@@V?$allocator@D@2@@std@@V12@@std@@@std@@@std@@@std@@@2@@std@@CAXXZ 10026ee0 f i Configuration.obj
 0001:00025ee0       ?_Xlength@?$vector@_SV?$allocator@_S@std@@@std@@CAXXZ 10026ee0 f i Parser.obj
 0001:00025ee0       ?_Xlength@?$vector@V?$basic_string@DU?$char_traits@D@std@@V?$allocator@D@2@@std@@V?$allocator@V?$basic_string@DU?$char_traits@D@std@@V?$allocator@D@2@@std@@@2@@std@@CAXXZ 10026ee0 f i Hooks.obj
 0001:00025ee0       ?_Xlength@?$vector@PAURecvTable@@V?$allocator@PAURecvTable@@@std@@@std@@CAXXZ 10026ee0 f i NetVarManager.obj
 0001:00025ee0       ?_Xlength@?$vector@V?$_List_unchecked_iterator@V?$_List_val@U?$_List_simple_types@U?$pair@QADPAD@std@@@std@@@std@@@std@@V?$allocator@V?$_List_unchecked_iterator@V?$_List_val@U?$_List_simple_types@U?$pair@QADPAD@std@@@std@@@std@@@std@@@2@@std@@CAXXZ 10026ee0 f i Hooks.obj
 0001:00025ee0       ?_Xlength@?$vector@VVector@@V?$allocator@VVector@@@std@@@std@@CAXXZ 10026ee0 f i GrenadePrediction.obj
 0001:00025ee0       ?_Xlength@?$vector@PAV?$ConfigValue@H@@V?$allocator@PAV?$ConfigValue@H@@@std@@@std@@CAXXZ 10026ee0 f i Configuration.obj
 0001:00025ee0       ?_Xlength@?$vector@V?$_List_unchecked_iterator@V?$_List_val@U?$_List_simple_types@U?$pair@$$CBV?$basic_string@DU?$char_traits@D@std@@V?$allocator@D@2@@std@@V?$set@V?$basic_string@DU?$char_traits@D@std@@V?$allocator@D@2@@std@@U?$less@V?$basic_string@DU?$char_traits@D@std@@V?$allocator@D@2@@std@@@2@V?$allocator@V?$basic_string@DU?$char_traits@D@std@@V?$allocator@D@2@@std@@@2@@2@@std@@@std@@@std@@@std@@V?$allocator@V?$_List_unchecked_iterator@V?$_List_val@U?$_List_simple_types@U?$pair@$$CBV?$basic_string@DU?$char_traits@D@std@@V?$allocator@D@2@@std@@V?$set@V?$basic_string@DU?$char_traits@D@std@@V?$allocator@D@2@@std@@U?$less@V?$basic_string@DU?$char_traits@D@std@@V?$allocator@D@2@@std@@@2@V?$allocator@V?$basic_string@DU?$char_traits@D@std@@V?$allocator@D@2@@std@@@2@@2@@std@@@std@@@std@@@std@@@2@@std@@CAXXZ 10026ee0 f i Configuration.obj
 0001:00025ee0       ?_Xlength@?$vector@PAV?$ConfigValue@M@@V?$allocator@PAV?$ConfigValue@M@@@std@@@std@@CAXXZ 10026ee0 f i Configuration.obj
 0001:00025ee0       ?_Xlength@?$vector@V?$shared_ptr@VNode@valve_parser@@@std@@V?$allocator@V?$shared_ptr@VNode@valve_parser@@@std@@@2@@std@@CAXXZ 10026ee0 f i Parser.obj
 0001:00025ee0       ?_Xlength@?$vector@PAV?$ConfigValue@_N@@V?$allocator@PAV?$ConfigValue@_N@@@std@@@std@@CAXXZ 10026ee0 f i Configuration.obj
 0001:00025ef0       ?_Xran@?$_String_val@U?$_Simple_types@D@std@@@std@@SAXXZ 10026ef0 f i Configuration.obj
 0001:00025f00       ?allocate@?$allocator@U?$_List_node@U?$pair@$$CBV?$basic_string@DU?$char_traits@D@std@@V?$allocator@D@2@@std@@UskinInfo@@@std@@PAX@std@@@std@@QAEPAU?$_List_node@U?$pair@$$CBV?$basic_string@DU?$char_traits@D@std@@V?$allocator@D@2@@std@@UskinInfo@@@std@@PAX@2@I@Z 10026f00 f i Configuration.obj
 0001:00025f20       ?allocate@?$allocator@U?$_List_node@U?$pair@$$CBV?$basic_string@DU?$char_traits@D@std@@V?$allocator@D@2@@std@@V12@@std@@PAX@std@@@std@@QAEPAU?$_List_node@U?$pair@$$CBV?$basic_string@DU?$char_traits@D@std@@V?$allocator@D@2@@std@@V12@@std@@PAX@2@I@Z 10026f20 f i Configuration.obj
 0001:00025f40       ?allocate@?$allocator@U?$_List_node@U?$pair@$$CBV?$basic_string@DU?$char_traits@D@std@@V?$allocator@D@2@@std@@V?$set@V?$basic_string@DU?$char_traits@D@std@@V?$allocator@D@2@@std@@U?$less@V?$basic_string@DU?$char_traits@D@std@@V?$allocator@D@2@@std@@@2@V?$allocator@V?$basic_string@DU?$char_traits@D@std@@V?$allocator@D@2@@std@@@2@@2@@std@@PAX@std@@@std@@QAEPAU?$_List_node@U?$pair@$$CBV?$basic_string@DU?$char_traits@D@std@@V?$allocator@D@2@@std@@V?$set@V?$basic_string@DU?$char_traits@D@std@@V?$allocator@D@2@@std@@U?$less@V?$basic_string@DU?$char_traits@D@std@@V?$allocator@D@2@@std@@@2@V?$allocator@V?$basic_string@DU?$char_traits@D@std@@V?$allocator@D@2@@std@@@2@@2@@std@@PAX@2@I@Z 10026f40 f i Configuration.obj
 0001:00025f40       ?allocate@?$allocator@U?$_Tree_node@V?$basic_string@DU?$char_traits@D@std@@V?$allocator@D@2@@std@@PAX@std@@@std@@QAEPAU?$_Tree_node@V?$basic_string@DU?$char_traits@D@std@@V?$allocator@D@2@@std@@PAX@2@I@Z 10026f40 f i Hooks.obj
 0001:00025f60       ?allocate@?$allocator@V?$_List_unchecked_iterator@V?$_List_val@U?$_List_simple_types@U?$pair@$$CBV?$basic_string@DU?$char_traits@D@std@@V?$allocator@D@2@@std@@V12@@std@@@std@@@std@@@std@@@std@@QAEPAV?$_List_unchecked_iterator@V?$_List_val@U?$_List_simple_types@U?$pair@$$CBV?$basic_string@DU?$char_traits@D@std@@V?$allocator@D@2@@std@@V12@@std@@@std@@@std@@@2@I@Z 10026f60 f i Configuration.obj
 0001:00025f60       ?allocate@?$allocator@PAV?$shared_ptr@VNode@valve_parser@@@std@@@std@@QAEPAPAV?$shared_ptr@VNode@valve_parser@@@2@I@Z 10026f60 f i Hooks.obj
 0001:00025f60       ?allocate@?$allocator@PAURecvTable@@@std@@QAEPAPAURecvTable@@I@Z 10026f60 f i NetVarManager.obj
 0001:00025f60       ?allocate@?$allocator@V?$_List_unchecked_iterator@V?$_List_val@U?$_List_simple_types@U?$pair@$$CBV?$basic_string@DU?$char_traits@D@std@@V?$allocator@D@2@@std@@V?$set@V?$basic_string@DU?$char_traits@D@std@@V?$allocator@D@2@@std@@U?$less@V?$basic_string@DU?$char_traits@D@std@@V?$allocator@D@2@@std@@@2@V?$allocator@V?$basic_string@DU?$char_traits@D@std@@V?$allocator@D@2@@std@@@2@@2@@std@@@std@@@std@@@std@@@std@@QAEPAV?$_List_unchecked_iterator@V?$_List_val@U?$_List_simple_types@U?$pair@$$CBV?$basic_string@DU?$char_traits@D@std@@V?$allocator@D@2@@std@@V?$set@V?$basic_string@DU?$char_traits@D@std@@V?$allocator@D@2@@std@@U?$less@V?$basic_string@DU?$char_traits@D@std@@V?$allocator@D@2@@std@@@2@V?$allocator@V?$basic_string@DU?$char_traits@D@std@@V?$allocator@D@2@@std@@@2@@2@@std@@@std@@@std@@@2@I@Z 10026f60 f i Configuration.obj
 0001:00025f60       ?allocate@?$allocator@V?$_List_unchecked_iterator@V?$_List_val@U?$_List_simple_types@U?$pair@QADPAD@std@@@std@@@std@@@std@@@std@@QAEPAV?$_List_unchecked_iterator@V?$_List_val@U?$_List_simple_types@U?$pair@QADPAD@std@@@std@@@std@@@2@I@Z 10026f60 f i Hooks.obj
 0001:00025f60       ?allocate@?$allocator@PAV?$ConfigValue@M@@@std@@QAEPAPAV?$ConfigValue@M@@I@Z 10026f60 f i Configuration.obj
 0001:00025f60       ?allocate@?$allocator@H@std@@QAEPAHI@Z 10026f60 f i LegitBot.obj
 0001:00025f60       ?allocate@?$allocator@V?$_List_unchecked_iterator@V?$_List_val@U?$_List_simple_types@U?$pair@$$CBV?$basic_string@DU?$char_traits@D@std@@V?$allocator@D@2@@std@@UskinInfo@@@std@@@std@@@std@@@std@@@std@@QAEPAV?$_List_unchecked_iterator@V?$_List_val@U?$_List_simple_types@U?$pair@$$CBV?$basic_string@DU?$char_traits@D@std@@V?$allocator@D@2@@std@@UskinInfo@@@std@@@std@@@std@@@2@I@Z 10026f60 f i Configuration.obj
 0001:00025f60       ?allocate@?$allocator@PAV?$ConfigValue@H@@@std@@QAEPAPAV?$ConfigValue@H@@I@Z 10026f60 f i Configuration.obj
 0001:00025f60       ?allocate@?$allocator@PAV?$ConfigValue@_N@@@std@@QAEPAPAV?$ConfigValue@_N@@I@Z 10026f60 f i Configuration.obj
 0001:00025f80       ?append@?$basic_string@DU?$char_traits@D@std@@V?$allocator@D@2@@std@@QAEAAV12@ABV12@@Z 10026f80 f i Configuration.obj
 0001:00025fc0       ?append@?$basic_string@DU?$char_traits@D@std@@V?$allocator@D@2@@std@@QAEAAV12@ID@Z 10026fc0 f i Configuration.obj
 0001:00026060       ?append@?$basic_string@DU?$char_traits@D@std@@V?$allocator@D@2@@std@@QAEAAV12@QBD@Z 10027060 f i Configuration.obj
 0001:00026090       ?append@?$basic_string@DU?$char_traits@D@std@@V?$allocator@D@2@@std@@QAEAAV12@QBDI@Z 10027090 f i Configuration.obj
 0001:00026130       ?assign@?$basic_string@DU?$char_traits@D@std@@V?$allocator@D@2@@std@@QAEAAV12@ID@Z 10027130 f i Configuration.obj
 0001:000261c0       ?assign@?$char_traits@D@std@@SAPADQADID@Z 100271c0 f i Configuration.obj
 0001:000261e0       ?assign@?$vector@V?$_List_unchecked_iterator@V?$_List_val@U?$_List_simple_types@U?$pair@$$CBV?$basic_string@DU?$char_traits@D@std@@V?$allocator@D@2@@std@@V?$set@V?$basic_string@DU?$char_traits@D@std@@V?$allocator@D@2@@std@@U?$less@V?$basic_string@DU?$char_traits@D@std@@V?$allocator@D@2@@std@@@2@V?$allocator@V?$basic_string@DU?$char_traits@D@std@@V?$allocator@D@2@@std@@@2@@2@@std@@@std@@@std@@@std@@V?$allocator@V?$_List_unchecked_iterator@V?$_List_val@U?$_List_simple_types@U?$pair@$$CBV?$basic_string@DU?$char_traits@D@std@@V?$allocator@D@2@@std@@V?$set@V?$basic_string@DU?$char_traits@D@std@@V?$allocator@D@2@@std@@U?$less@V?$basic_string@DU?$char_traits@D@std@@V?$allocator@D@2@@std@@@2@V?$allocator@V?$basic_string@DU?$char_traits@D@std@@V?$allocator@D@2@@std@@@2@@2@@std@@@std@@@std@@@std@@@2@@std@@QAEXIABV?$_List_unchecked_iterator@V?$_List_val@U?$_List_simple_types@U?$pair@$$CBV?$basic_string@DU?$char_traits@D@std@@V?$allocator@D@2@@std@@V?$set@V?$basic_string@DU?$char_traits@D@std@@V?$allocator@D@2@@std@@U?$less@V?$basic_string@DU?$char_traits@D@std@@V?$allocator@D@2@@std@@@2@V?$allocator@V?$basic_string@DU?$char_traits@D@std@@V?$allocator@D@2@@std@@@2@@2@@std@@@std@@@std@@@2@@Z 100271e0 f i Configuration.obj
 0001:000261e0       ?assign@?$vector@V?$_List_unchecked_iterator@V?$_List_val@U?$_List_simple_types@U?$pair@QADPAD@std@@@std@@@std@@@std@@V?$allocator@V?$_List_unchecked_iterator@V?$_List_val@U?$_List_simple_types@U?$pair@QADPAD@std@@@std@@@std@@@std@@@2@@std@@QAEXIABV?$_List_unchecked_iterator@V?$_List_val@U?$_List_simple_types@U?$pair@QADPAD@std@@@std@@@std@@@2@@Z 100271e0 f i Hooks.obj
 0001:000261e0       ?assign@?$vector@V?$_List_unchecked_iterator@V?$_List_val@U?$_List_simple_types@U?$pair@$$CBV?$basic_string@DU?$char_traits@D@std@@V?$allocator@D@2@@std@@V12@@std@@@std@@@std@@@std@@V?$allocator@V?$_List_unchecked_iterator@V?$_List_val@U?$_List_simple_types@U?$pair@$$CBV?$basic_string@DU?$char_traits@D@std@@V?$allocator@D@2@@std@@V12@@std@@@std@@@std@@@std@@@2@@std@@QAEXIABV?$_List_unchecked_iterator@V?$_List_val@U?$_List_simple_types@U?$pair@$$CBV?$basic_string@DU?$char_traits@D@std@@V?$allocator@D@2@@std@@V12@@std@@@std@@@std@@@2@@Z 100271e0 f i Configuration.obj
 0001:000261e0       ?assign@?$vector@V?$_List_unchecked_iterator@V?$_List_val@U?$_List_simple_types@U?$pair@$$CBV?$basic_string@DU?$char_traits@D@std@@V?$allocator@D@2@@std@@UskinInfo@@@std@@@std@@@std@@@std@@V?$allocator@V?$_List_unchecked_iterator@V?$_List_val@U?$_List_simple_types@U?$pair@$$CBV?$basic_string@DU?$char_traits@D@std@@V?$allocator@D@2@@std@@UskinInfo@@@std@@@std@@@std@@@std@@@2@@std@@QAEXIABV?$_List_unchecked_iterator@V?$_List_val@U?$_List_simple_types@U?$pair@$$CBV?$basic_string@DU?$char_traits@D@std@@V?$allocator@D@2@@std@@UskinInfo@@@std@@@std@@@std@@@2@@Z 100271e0 f i Configuration.obj
 0001:00026370       ?begin@?$_Tree@V?$_Tset_traits@V?$basic_string@DU?$char_traits@D@std@@V?$allocator@D@2@@std@@U?$less@V?$basic_string@DU?$char_traits@D@std@@V?$allocator@D@2@@std@@@2@V?$allocator@V?$basic_string@DU?$char_traits@D@std@@V?$allocator@D@2@@std@@@2@$0A@@std@@@std@@QAE?AV?$_Tree_const_iterator@V?$_Tree_val@U?$_Tree_simple_types@V?$basic_string@DU?$char_traits@D@std@@V?$allocator@D@2@@std@@@std@@@std@@@2@XZ 10027370 f i Configuration.obj
 0001:000263d0       ?capacity@?$basic_string@DU?$char_traits@D@std@@V?$allocator@D@2@@std@@QBEIXZ 100273d0 f i Configuration.obj
 0001:000263f0       ?capacity@?$vector@HV?$allocator@H@std@@@std@@QBEIXZ 100273f0 f i LegitBot.obj
 0001:000263f0       ?capacity@?$vector@V?$_List_unchecked_iterator@V?$_List_val@U?$_List_simple_types@U?$pair@QADPAD@std@@@std@@@std@@@std@@V?$allocator@V?$_List_unchecked_iterator@V?$_List_val@U?$_List_simple_types@U?$pair@QADPAD@std@@@std@@@std@@@std@@@2@@std@@QBEIXZ 100273f0 f i Hooks.obj
 0001:000263f0       ?capacity@?$vector@V?$_List_unchecked_iterator@V?$_List_val@U?$_List_simple_types@U?$pair@$$CBV?$basic_string@DU?$char_traits@D@std@@V?$allocator@D@2@@std@@V?$set@V?$basic_string@DU?$char_traits@D@std@@V?$allocator@D@2@@std@@U?$less@V?$basic_string@DU?$char_traits@D@std@@V?$allocator@D@2@@std@@@2@V?$allocator@V?$basic_string@DU?$char_traits@D@std@@V?$allocator@D@2@@std@@@2@@2@@std@@@std@@@std@@@std@@V?$allocator@V?$_List_unchecked_iterator@V?$_List_val@U?$_List_simple_types@U?$pair@$$CBV?$basic_string@DU?$char_traits@D@std@@V?$allocator@D@2@@std@@V?$set@V?$basic_string@DU?$char_traits@D@std@@V?$allocator@D@2@@std@@U?$less@V?$basic_string@DU?$char_traits@D@std@@V?$allocator@D@2@@std@@@2@V?$allocator@V?$basic_string@DU?$char_traits@D@std@@V?$allocator@D@2@@std@@@2@@2@@std@@@std@@@std@@@std@@@2@@std@@QBEIXZ 100273f0 f i Configuration.obj
 0001:000263f0       ?capacity@?$vector@V?$_List_unchecked_iterator@V?$_List_val@U?$_List_simple_types@U?$pair@$$CBV?$basic_string@DU?$char_traits@D@std@@V?$allocator@D@2@@std@@UskinInfo@@@std@@@std@@@std@@@std@@V?$allocator@V?$_List_unchecked_iterator@V?$_List_val@U?$_List_simple_types@U?$pair@$$CBV?$basic_string@DU?$char_traits@D@std@@V?$allocator@D@2@@std@@UskinInfo@@@std@@@std@@@std@@@std@@@2@@std@@QBEIXZ 100273f0 f i Configuration.obj
 0001:000263f0       ?capacity@?$vector@PAV?$ConfigValue@M@@V?$allocator@PAV?$ConfigValue@M@@@std@@@std@@QBEIXZ 100273f0 f i Configuration.obj
 0001:000263f0       ?capacity@?$vector@PAURecvTable@@V?$allocator@PAURecvTable@@@std@@@std@@QBEIXZ 100273f0 f i NetVarManager.obj
 0001:000263f0       ?capacity@?$vector@PAV?$ConfigValue@_N@@V?$allocator@PAV?$ConfigValue@_N@@@std@@@std@@QBEIXZ 100273f0 f i Configuration.obj
 0001:000263f0       ?capacity@?$vector@PAV?$ConfigValue@H@@V?$allocator@PAV?$ConfigValue@H@@@std@@@std@@QBEIXZ 100273f0 f i Configuration.obj
 0001:000263f0       ?capacity@?$vector@V?$_List_unchecked_iterator@V?$_List_val@U?$_List_simple_types@U?$pair@$$CBV?$basic_string@DU?$char_traits@D@std@@V?$allocator@D@2@@std@@V12@@std@@@std@@@std@@@std@@V?$allocator@V?$_List_unchecked_iterator@V?$_List_val@U?$_List_simple_types@U?$pair@$$CBV?$basic_string@DU?$char_traits@D@std@@V?$allocator@D@2@@std@@V12@@std@@@std@@@std@@@std@@@2@@std@@QBEIXZ 100273f0 f i Configuration.obj
 0001:00026420       ?capacity@?$vector@V?$basic_string@DU?$char_traits@D@std@@V?$allocator@D@2@@std@@V?$allocator@V?$basic_string@DU?$char_traits@D@std@@V?$allocator@D@2@@std@@@2@@std@@QBEIXZ 10027420 f i Configuration.obj
 0001:00026450       ?clear@?$_Tree@V?$_Tset_traits@V?$basic_string@DU?$char_traits@D@std@@V?$allocator@D@2@@std@@U?$less@V?$basic_string@DU?$char_traits@D@std@@V?$allocator@D@2@@std@@@2@V?$allocator@V?$basic_string@DU?$char_traits@D@std@@V?$allocator@D@2@@std@@@2@$0A@@std@@@std@@QAEXXZ 10027450 f i Configuration.obj
 0001:000264e0       ?clear@?$list@U?$pair@$$CBV?$basic_string@DU?$char_traits@D@std@@V?$allocator@D@2@@std@@UskinInfo@@@std@@V?$allocator@U?$pair@$$CBV?$basic_string@DU?$char_traits@D@std@@V?$allocator@D@2@@std@@UskinInfo@@@std@@@2@@std@@QAEXXZ 100274e0 f i Configuration.obj
 0001:00026590       ?clear@?$list@U?$pair@$$CBV?$basic_string@DU?$char_traits@D@std@@V?$allocator@D@2@@std@@V12@@std@@V?$allocator@U?$pair@$$CBV?$basic_string@DU?$char_traits@D@std@@V?$allocator@D@2@@std@@V12@@std@@@2@@std@@QAEXXZ 10027590 f i Configuration.obj
 0001:00026640       ?clear@?$list@U?$pair@$$CBV?$basic_string@DU?$char_traits@D@std@@V?$allocator@D@2@@std@@V?$set@V?$basic_string@DU?$char_traits@D@std@@V?$allocator@D@2@@std@@U?$less@V?$basic_string@DU?$char_traits@D@std@@V?$allocator@D@2@@std@@@2@V?$allocator@V?$basic_string@DU?$char_traits@D@std@@V?$allocator@D@2@@std@@@2@@2@@std@@V?$allocator@U?$pair@$$CBV?$basic_string@DU?$char_traits@D@std@@V?$allocator@D@2@@std@@V?$set@V?$basic_string@DU?$char_traits@D@std@@V?$allocator@D@2@@std@@U?$less@V?$basic_string@DU?$char_traits@D@std@@V?$allocator@D@2@@std@@@2@V?$allocator@V?$basic_string@DU?$char_traits@D@std@@V?$allocator@D@2@@std@@@2@@2@@std@@@2@@std@@QAEXXZ 10027640 f i Configuration.obj
 0001:000266f0       ?deallocate@?$allocator@PAV?$ConfigValue@M@@@std@@QAEXQAPAV?$ConfigValue@M@@I@Z 100276f0 f i Configuration.obj
 0001:000266f0       ?deallocate@?$allocator@PAV?$shared_ptr@VNode@valve_parser@@@std@@@std@@QAEXQAPAV?$shared_ptr@VNode@valve_parser@@@2@I@Z 100276f0 f i Hooks.obj
 0001:000266f0       ?deallocate@?$allocator@PAURecvTable@@@std@@QAEXQAPAURecvTable@@I@Z 100276f0 f i NetVarManager.obj
 0001:000266f0       ?deallocate@?$allocator@PAV?$ConfigValue@_N@@@std@@QAEXQAPAV?$ConfigValue@_N@@I@Z 100276f0 f i Configuration.obj
 0001:000266f0       ?deallocate@?$allocator@V?$_List_unchecked_iterator@V?$_List_val@U?$_List_simple_types@U?$pair@$$CBV?$basic_string@DU?$char_traits@D@std@@V?$allocator@D@2@@std@@V12@@std@@@std@@@std@@@std@@@std@@QAEXQAV?$_List_unchecked_iterator@V?$_List_val@U?$_List_simple_types@U?$pair@$$CBV?$basic_string@DU?$char_traits@D@std@@V?$allocator@D@2@@std@@V12@@std@@@std@@@std@@@2@I@Z 100276f0 f i Configuration.obj
 0001:000266f0       ?deallocate@?$allocator@H@std@@QAEXQAHI@Z 100276f0 f i LegitBot.obj
 0001:000266f0       ?deallocate@?$allocator@V?$_List_unchecked_iterator@V?$_List_val@U?$_List_simple_types@U?$pair@$$CBV?$basic_string@DU?$char_traits@D@std@@V?$allocator@D@2@@std@@UskinInfo@@@std@@@std@@@std@@@std@@@std@@QAEXQAV?$_List_unchecked_iterator@V?$_List_val@U?$_List_simple_types@U?$pair@$$CBV?$basic_string@DU?$char_traits@D@std@@V?$allocator@D@2@@std@@UskinInfo@@@std@@@std@@@std@@@2@I@Z 100276f0 f i Configuration.obj
 0001:000266f0       ?deallocate@?$allocator@V?$_List_unchecked_iterator@V?$_List_val@U?$_List_simple_types@U?$pair@QADPAD@std@@@std@@@std@@@std@@@std@@QAEXQAV?$_List_unchecked_iterator@V?$_List_val@U?$_List_simple_types@U?$pair@QADPAD@std@@@std@@@std@@@2@I@Z 100276f0 f i Hooks.obj
 0001:000266f0       ?deallocate@?$allocator@V?$_List_unchecked_iterator@V?$_List_val@U?$_List_simple_types@U?$pair@$$CBV?$basic_string@DU?$char_traits@D@std@@V?$allocator@D@2@@std@@V?$set@V?$basic_string@DU?$char_traits@D@std@@V?$allocator@D@2@@std@@U?$less@V?$basic_string@DU?$char_traits@D@std@@V?$allocator@D@2@@std@@@2@V?$allocator@V?$basic_string@DU?$char_traits@D@std@@V?$allocator@D@2@@std@@@2@@2@@std@@@std@@@std@@@std@@@std@@QAEXQAV?$_List_unchecked_iterator@V?$_List_val@U?$_List_simple_types@U?$pair@$$CBV?$basic_string@DU?$char_traits@D@std@@V?$allocator@D@2@@std@@V?$set@V?$basic_string@DU?$char_traits@D@std@@V?$allocator@D@2@@std@@U?$less@V?$basic_string@DU?$char_traits@D@std@@V?$allocator@D@2@@std@@@2@V?$allocator@V?$basic_string@DU?$char_traits@D@std@@V?$allocator@D@2@@std@@@2@@2@@std@@@std@@@std@@@2@I@Z 100276f0 f i Configuration.obj
 0001:000266f0       ?deallocate@?$allocator@PAV?$ConfigValue@H@@@std@@QAEXQAPAV?$ConfigValue@H@@I@Z 100276f0 f i Configuration.obj
 0001:00026710       ?deallocate@?$allocator@U?$_List_node@U?$pair@$$CBV?$basic_string@DU?$char_traits@D@std@@V?$allocator@D@2@@std@@UskinInfo@@@std@@PAX@std@@@std@@QAEXQAU?$_List_node@U?$pair@$$CBV?$basic_string@DU?$char_traits@D@std@@V?$allocator@D@2@@std@@UskinInfo@@@std@@PAX@2@I@Z 10027710 f i Configuration.obj
 0001:00026730       ?deallocate@?$allocator@U?$_List_node@U?$pair@$$CBV?$basic_string@DU?$char_traits@D@std@@V?$allocator@D@2@@std@@V12@@std@@PAX@std@@@std@@QAEXQAU?$_List_node@U?$pair@$$CBV?$basic_string@DU?$char_traits@D@std@@V?$allocator@D@2@@std@@V12@@std@@PAX@2@I@Z 10027730 f i Configuration.obj
 0001:00026750       ?deallocate@?$allocator@U?$_Tree_node@V?$basic_string@DU?$char_traits@D@std@@V?$allocator@D@2@@std@@PAX@std@@@std@@QAEXQAU?$_Tree_node@V?$basic_string@DU?$char_traits@D@std@@V?$allocator@D@2@@std@@PAX@2@I@Z 10027750 f i Configuration.obj
 0001:00026750       ?deallocate@?$allocator@U?$_List_node@U?$pair@$$CBV?$basic_string@DU?$char_traits@D@std@@V?$allocator@D@2@@std@@V?$set@V?$basic_string@DU?$char_traits@D@std@@V?$allocator@D@2@@std@@U?$less@V?$basic_string@DU?$char_traits@D@std@@V?$allocator@D@2@@std@@@2@V?$allocator@V?$basic_string@DU?$char_traits@D@std@@V?$allocator@D@2@@std@@@2@@2@@std@@PAX@std@@@std@@QAEXQAU?$_List_node@U?$pair@$$CBV?$basic_string@DU?$char_traits@D@std@@V?$allocator@D@2@@std@@V?$set@V?$basic_string@DU?$char_traits@D@std@@V?$allocator@D@2@@std@@U?$less@V?$basic_string@DU?$char_traits@D@std@@V?$allocator@D@2@@std@@@2@V?$allocator@V?$basic_string@DU?$char_traits@D@std@@V?$allocator@D@2@@std@@@2@@2@@std@@PAX@2@I@Z 10027750 f i Configuration.obj
 0001:00026770       ?deallocate@?$allocator@V?$basic_string@DU?$char_traits@D@std@@V?$allocator@D@2@@std@@@std@@QAEXQAV?$basic_string@DU?$char_traits@D@std@@V?$allocator@D@2@@2@I@Z 10027770 f i Configuration.obj
 0001:00026790       ?decrypt@?$XorString@$0A@$03@XorCompileTime@@QAEPADXZ 10027790 f i Configuration.obj
 0001:00026790       ?decrypt@?$XorString@$0A@$01@XorCompileTime@@QAEPADXZ 10027790 f i Configuration.obj
 0001:00026790       ?decrypt@?$XorString@$0A@$06@XorCompileTime@@QAEPADXZ 10027790 f i Configuration.obj
 0001:00026790       ?decrypt@?$XorString@$0A@$00@XorCompileTime@@QAEPADXZ 10027790 f i Configuration.obj
 0001:00026790       ?decrypt@?$XorString@$0A@$0A@@XorCompileTime@@QAEPADXZ 10027790 f i Configuration.obj
 0001:00026790       ?decrypt@?$XorString@$0A@$05@XorCompileTime@@QAEPADXZ 10027790 f i Configuration.obj
 0001:00026790       ?decrypt@?$XorString@$0A@$04@XorCompileTime@@QAEPADXZ 10027790 f i Configuration.obj
 0001:00026790       ?decrypt@?$XorString@$0A@$02@XorCompileTime@@QAEPADXZ 10027790 f i Configuration.obj
 0001:00026810       ?end@?$_Tree@V?$_Tset_traits@V?$basic_string@DU?$char_traits@D@std@@V?$allocator@D@2@@std@@U?$less@V?$basic_string@DU?$char_traits@D@std@@V?$allocator@D@2@@std@@@2@V?$allocator@V?$basic_string@DU?$char_traits@D@std@@V?$allocator@D@2@@std@@@2@$0A@@std@@@std@@QAE?AV?$_Tree_const_iterator@V?$_Tree_val@U?$_Tree_simple_types@V?$basic_string@DU?$char_traits@D@std@@V?$allocator@D@2@@std@@@std@@@std@@@2@XZ 10027810 f i Configuration.obj
 0001:00026870       ?erase@?$_Tree@V?$_Tset_traits@V?$basic_string@DU?$char_traits@D@std@@V?$allocator@D@2@@std@@U?$less@V?$basic_string@DU?$char_traits@D@std@@V?$allocator@D@2@@std@@@2@V?$allocator@V?$basic_string@DU?$char_traits@D@std@@V?$allocator@D@2@@std@@@2@$0A@@std@@@std@@QAE?AV?$_Tree_const_iterator@V?$_Tree_val@U?$_Tree_simple_types@V?$basic_string@DU?$char_traits@D@std@@V?$allocator@D@2@@std@@@std@@@std@@@2@V32@0@Z 10027870 f i Configuration.obj
 0001:00026930       ?erase@?$_Tree@V?$_Tset_traits@V?$basic_string@DU?$char_traits@D@std@@V?$allocator@D@2@@std@@U?$less@V?$basic_string@DU?$char_traits@D@std@@V?$allocator@D@2@@std@@@2@V?$allocator@V?$basic_string@DU?$char_traits@D@std@@V?$allocator@D@2@@std@@@2@$0A@@std@@@std@@QAE?AV?$_Tree_const_iterator@V?$_Tree_val@U?$_Tree_simple_types@V?$basic_string@DU?$char_traits@D@std@@V?$allocator@D@2@@std@@@std@@@std@@@2@V32@@Z 10027930 f i Configuration.obj
 0001:00026de0       ?insert@?$basic_string@DU?$char_traits@D@std@@V?$allocator@D@2@@std@@QAEAAV12@IABV12@@Z 10027de0 f i Configuration.obj
 0001:00026e20       ?insert@?$basic_string@DU?$char_traits@D@std@@V?$allocator@D@2@@std@@QAEAAV12@IQBDI@Z 10027e20 f i Configuration.obj
 0001:00026f40       ?max_size@?$vector@V?$_List_unchecked_iterator@V?$_List_val@U?$_List_simple_types@U?$pair@$$CBV?$basic_string@DU?$char_traits@D@std@@V?$allocator@D@2@@std@@V?$set@V?$basic_string@DU?$char_traits@D@std@@V?$allocator@D@2@@std@@U?$less@V?$basic_string@DU?$char_traits@D@std@@V?$allocator@D@2@@std@@@2@V?$allocator@V?$basic_string@DU?$char_traits@D@std@@V?$allocator@D@2@@std@@@2@@2@@std@@@std@@@std@@@std@@V?$allocator@V?$_List_unchecked_iterator@V?$_List_val@U?$_List_simple_types@U?$pair@$$CBV?$basic_string@DU?$char_traits@D@std@@V?$allocator@D@2@@std@@V?$set@V?$basic_string@DU?$char_traits@D@std@@V?$allocator@D@2@@std@@U?$less@V?$basic_string@DU?$char_traits@D@std@@V?$allocator@D@2@@std@@@2@V?$allocator@V?$basic_string@DU?$char_traits@D@std@@V?$allocator@D@2@@std@@@2@@2@@std@@@std@@@std@@@std@@@2@@std@@QBEIXZ 10027f40 f i Configuration.obj
 0001:00026f40       ?max_size@?$vector@PAURecvTable@@V?$allocator@PAURecvTable@@@std@@@std@@QBEIXZ 10027f40 f i NetVarManager.obj
 0001:00026f40       ?max_size@?$vector@PAV?$ConfigValue@M@@V?$allocator@PAV?$ConfigValue@M@@@std@@@std@@QBEIXZ 10027f40 f i Configuration.obj
 0001:00026f40       ?max_size@?$vector@HV?$allocator@H@std@@@std@@QBEIXZ 10027f40 f i LegitBot.obj
 0001:00026f40       ?max_size@?$vector@V?$_List_unchecked_iterator@V?$_List_val@U?$_List_simple_types@U?$pair@$$CBV?$basic_string@DU?$char_traits@D@std@@V?$allocator@D@2@@std@@UskinInfo@@@std@@@std@@@std@@@std@@V?$allocator@V?$_List_unchecked_iterator@V?$_List_val@U?$_List_simple_types@U?$pair@$$CBV?$basic_string@DU?$char_traits@D@std@@V?$allocator@D@2@@std@@UskinInfo@@@std@@@std@@@std@@@std@@@2@@std@@QBEIXZ 10027f40 f i Configuration.obj
 0001:00026f40       ?max_size@?$vector@V?$_List_unchecked_iterator@V?$_List_val@U?$_List_simple_types@U?$pair@QADPAD@std@@@std@@@std@@@std@@V?$allocator@V?$_List_unchecked_iterator@V?$_List_val@U?$_List_simple_types@U?$pair@QADPAD@std@@@std@@@std@@@std@@@2@@std@@QBEIXZ 10027f40 f i Hooks.obj
 0001:00026f40       ?max_size@?$vector@PAV?$ConfigValue@_N@@V?$allocator@PAV?$ConfigValue@_N@@@std@@@std@@QBEIXZ 10027f40 f i Configuration.obj
 0001:00026f40       ?max_size@?$vector@V?$_List_unchecked_iterator@V?$_List_val@U?$_List_simple_types@U?$pair@$$CBV?$basic_string@DU?$char_traits@D@std@@V?$allocator@D@2@@std@@V12@@std@@@std@@@std@@@std@@V?$allocator@V?$_List_unchecked_iterator@V?$_List_val@U?$_List_simple_types@U?$pair@$$CBV?$basic_string@DU?$char_traits@D@std@@V?$allocator@D@2@@std@@V12@@std@@@std@@@std@@@std@@@2@@std@@QBEIXZ 10027f40 f i Configuration.obj
 0001:00026f40       ?max_size@?$vector@PAV?$ConfigValue@H@@V?$allocator@PAV?$ConfigValue@H@@@std@@@std@@QBEIXZ 10027f40 f i Configuration.obj
 0001:00026f80       ?push_back@?$vector@PAV?$ConfigValue@_N@@V?$allocator@PAV?$ConfigValue@_N@@@std@@@std@@QAEX$$QAPAV?$ConfigValue@_N@@@Z 10027f80 f i Configuration.obj
 0001:00026f80       ?push_back@?$vector@HV?$allocator@H@std@@@std@@QAEX$$QAH@Z 10027f80 f i RageBot.obj
 0001:00026f80       ?push_back@?$vector@PAV?$ConfigValue@M@@V?$allocator@PAV?$ConfigValue@M@@@std@@@std@@QAEX$$QAPAV?$ConfigValue@M@@@Z 10027f80 f i Configuration.obj
 0001:00026f80       ?push_back@?$vector@PAV?$ConfigValue@H@@V?$allocator@PAV?$ConfigValue@H@@@std@@@std@@QAEX$$QAPAV?$ConfigValue@H@@@Z 10027f80 f i Configuration.obj
 0001:00026fb0       ?reserve@?$vector@V?$_List_unchecked_iterator@V?$_List_val@U?$_List_simple_types@U?$pair@$$CBV?$basic_string@DU?$char_traits@D@std@@V?$allocator@D@2@@std@@V?$set@V?$basic_string@DU?$char_traits@D@std@@V?$allocator@D@2@@std@@U?$less@V?$basic_string@DU?$char_traits@D@std@@V?$allocator@D@2@@std@@@2@V?$allocator@V?$basic_string@DU?$char_traits@D@std@@V?$allocator@D@2@@std@@@2@@2@@std@@@std@@@std@@@std@@V?$allocator@V?$_List_unchecked_iterator@V?$_List_val@U?$_List_simple_types@U?$pair@$$CBV?$basic_string@DU?$char_traits@D@std@@V?$allocator@D@2@@std@@V?$set@V?$basic_string@DU?$char_traits@D@std@@V?$allocator@D@2@@std@@U?$less@V?$basic_string@DU?$char_traits@D@std@@V?$allocator@D@2@@std@@@2@V?$allocator@V?$basic_string@DU?$char_traits@D@std@@V?$allocator@D@2@@std@@@2@@2@@std@@@std@@@std@@@std@@@2@@std@@QAEXI@Z 10027fb0 f i Configuration.obj
 0001:00026fb0       ?reserve@?$vector@V?$_List_unchecked_iterator@V?$_List_val@U?$_List_simple_types@U?$pair@$$CBV?$basic_string@DU?$char_traits@D@std@@V?$allocator@D@2@@std@@UskinInfo@@@std@@@std@@@std@@@std@@V?$allocator@V?$_List_unchecked_iterator@V?$_List_val@U?$_List_simple_types@U?$pair@$$CBV?$basic_string@DU?$char_traits@D@std@@V?$allocator@D@2@@std@@UskinInfo@@@std@@@std@@@std@@@std@@@2@@std@@QAEXI@Z 10027fb0 f i Configuration.obj
 0001:00026fb0       ?reserve@?$vector@V?$_List_unchecked_iterator@V?$_List_val@U?$_List_simple_types@U?$pair@QADPAD@std@@@std@@@std@@@std@@V?$allocator@V?$_List_unchecked_iterator@V?$_List_val@U?$_List_simple_types@U?$pair@QADPAD@std@@@std@@@std@@@std@@@2@@std@@QAEXI@Z 10027fb0 f i Hooks.obj
 0001:00026fb0       ?reserve@?$vector@V?$_List_unchecked_iterator@V?$_List_val@U?$_List_simple_types@U?$pair@$$CBV?$basic_string@DU?$char_traits@D@std@@V?$allocator@D@2@@std@@V12@@std@@@std@@@std@@@std@@V?$allocator@V?$_List_unchecked_iterator@V?$_List_val@U?$_List_simple_types@U?$pair@$$CBV?$basic_string@DU?$char_traits@D@std@@V?$allocator@D@2@@std@@V12@@std@@@std@@@std@@@std@@@2@@std@@QAEXI@Z 10027fb0 f i Configuration.obj
 0001:00026ff0       ?resize@?$basic_string@DU?$char_traits@D@std@@V?$allocator@D@2@@std@@QAEXID@Z 10027ff0 f i Configuration.obj
 0001:00027040       ?size@?$basic_string@DU?$char_traits@D@std@@V?$allocator@D@2@@std@@QBEIXZ 10028040 f i Configuration.obj
 0001:00027040       ?length@?$basic_string@DU?$char_traits@D@std@@V?$allocator@D@2@@std@@QBEIXZ 10028040 f i Hooks.obj
 0001:00027060       ?size@?$vector@V?$_List_unchecked_iterator@V?$_List_val@U?$_List_simple_types@U?$pair@QADPAD@std@@@std@@@std@@@std@@V?$allocator@V?$_List_unchecked_iterator@V?$_List_val@U?$_List_simple_types@U?$pair@QADPAD@std@@@std@@@std@@@std@@@2@@std@@QBEIXZ 10028060 f i Hooks.obj
 0001:00027060       ?size@?$vector@PAV?$ConfigValue@M@@V?$allocator@PAV?$ConfigValue@M@@@std@@@std@@QBEIXZ 10028060 f i Configuration.obj
 0001:00027060       ?size@?$vector@PAV?$ConfigValue@H@@V?$allocator@PAV?$ConfigValue@H@@@std@@@std@@QBEIXZ 10028060 f i Configuration.obj
 0001:00027060       ?size@?$vector@PAV?$ConfigValue@_N@@V?$allocator@PAV?$ConfigValue@_N@@@std@@@std@@QBEIXZ 10028060 f i Configuration.obj
 0001:00027060       ?size@?$vector@HV?$allocator@H@std@@@std@@QBEIXZ 10028060 f i RageBot.obj
 0001:00027060       ?size@?$vector@V?$_List_unchecked_iterator@V?$_List_val@U?$_List_simple_types@U?$pair@$$CBV?$basic_string@DU?$char_traits@D@std@@V?$allocator@D@2@@std@@V12@@std@@@std@@@std@@@std@@V?$allocator@V?$_List_unchecked_iterator@V?$_List_val@U?$_List_simple_types@U?$pair@$$CBV?$basic_string@DU?$char_traits@D@std@@V?$allocator@D@2@@std@@V12@@std@@@std@@@std@@@std@@@2@@std@@QBEIXZ 10028060 f i Configuration.obj
 0001:00027060       ?size@?$vector@V?$_List_unchecked_iterator@V?$_List_val@U?$_List_simple_types@U?$pair@$$CBV?$basic_string@DU?$char_traits@D@std@@V?$allocator@D@2@@std@@V?$set@V?$basic_string@DU?$char_traits@D@std@@V?$allocator@D@2@@std@@U?$less@V?$basic_string@DU?$char_traits@D@std@@V?$allocator@D@2@@std@@@2@V?$allocator@V?$basic_string@DU?$char_traits@D@std@@V?$allocator@D@2@@std@@@2@@2@@std@@@std@@@std@@@std@@V?$allocator@V?$_List_unchecked_iterator@V?$_List_val@U?$_List_simple_types@U?$pair@$$CBV?$basic_string@DU?$char_traits@D@std@@V?$allocator@D@2@@std@@V?$set@V?$basic_string@DU?$char_traits@D@std@@V?$allocator@D@2@@std@@U?$less@V?$basic_string@DU?$char_traits@D@std@@V?$allocator@D@2@@std@@@2@V?$allocator@V?$basic_string@DU?$char_traits@D@std@@V?$allocator@D@2@@std@@@2@@2@@std@@@std@@@std@@@std@@@2@@std@@QBEIXZ 10028060 f i Configuration.obj
 0001:00027060       ?size@?$vector@V?$_List_unchecked_iterator@V?$_List_val@U?$_List_simple_types@U?$pair@$$CBV?$basic_string@DU?$char_traits@D@std@@V?$allocator@D@2@@std@@UskinInfo@@@std@@@std@@@std@@@std@@V?$allocator@V?$_List_unchecked_iterator@V?$_List_val@U?$_List_simple_types@U?$pair@$$CBV?$basic_string@DU?$char_traits@D@std@@V?$allocator@D@2@@std@@UskinInfo@@@std@@@std@@@std@@@std@@@2@@std@@QBEIXZ 10028060 f i Configuration.obj
 0001:00027060       ?size@?$vector@PAURecvTable@@V?$allocator@PAURecvTable@@@std@@@std@@QBEIXZ 10028060 f i NetVarManager.obj
 0001:00027090       ?to_string@std@@YA?AV?$basic_string@DU?$char_traits@D@std@@V?$allocator@D@2@@1@H@Z 10028090 f i Configuration.obj
 0001:000270c0       ?to_string@std@@YA?AV?$basic_string@DU?$char_traits@D@std@@V?$allocator@D@2@@1@M@Z 100280c0 f i Configuration.obj
 0001:00027100       __scprintf                 10028100 f i Configuration.obj
 0001:00027140       __vscprintf_l              10028140 f i Configuration.obj
 0001:00027190       ?on_dll_attach@@YA_NPAX@Z  10028190 f   DLLMain.obj
 0001:00027210       ?on_dll_detach@@YA_NXZ     10028210 f   DLLMain.obj
 0001:00027230       _DllMain@12                10028230 f   DLLMain.obj
 0001:00027280       ?StartPrediction@@YAXPAVCUserCmd@CInput@@@Z 10028280 f   EnginePrediction.obj
 0001:00027400       ?EndPrediction@@YAXPAVCUserCmd@CInput@@@Z 10028400 f   EnginePrediction.obj
 0001:00027490       ??0CMoveData@@QAE@XZ       10028490 f i EnginePrediction.obj
 0001:00027520       ?GetTickBase@C_BaseEntity@@QAEHXZ 10028520 f i EnginePrediction.obj
 0001:00027540       ??0visuals@@QAE@XZ         10028540 f   ESP.obj
 0001:00027560       ?OnPaintTraverse@visuals@@QAEXPAVC_BaseEntity@@@Z 10028560 f   ESP.obj
 0001:000288f0       ?DrawBox@visuals@@AAEXUtagRECT@@VColor@@@Z 100298f0 f   ESP.obj
 0001:000289b0       ?DrawCorners@visuals@@AAEXUtagRECT@@VColor@@@Z 100299b0 f   ESP.obj
 0001:00028dc0       ?ThreeDBox@visuals@@AAEXVVector@@00VColor@@@Z 10029dc0 f   ESP.obj
 0001:00029140       ?DrawInfo@visuals@@AAEXUtagRECT@@PAVC_BaseEntity@@1@Z 1002a140 f   ESP.obj
 0001:0002a000       ?BulletTrace@visuals@@AAEXPAVC_BaseEntity@@VColor@@@Z 1002b000 f   ESP.obj
 0001:0002a1d0       ?Skeleton@visuals@@AAEXPAVC_BaseEntity@@VColor@@@Z 1002b1d0 f   ESP.obj
 0001:0002a340       ?DrawSnapLine@visuals@@AAEXVVector@@VColor@@@Z 1002b340 f   ESP.obj
 0001:0002a3d0       ?DrawHealth@visuals@@AAEXUtagRECT@@PAVC_BaseEntity@@@Z 1002b3d0 f   ESP.obj
 0001:0002a5e0       ?DrawAngles@visuals@@AAEXXZ 1002b5e0 f   ESP.obj
 0001:0002a920       ?DrawAwall@visuals@@AAEXXZ 1002b920 f   ESP.obj
 0001:0002aa70       ?DynamicBox@visuals@@AAE?AUtagRECT@@PAVC_BaseEntity@@AA_N0@Z 1002ba70 f   ESP.obj
 0001:0002b1f0       ?DLight@visuals@@AAEXPAVC_BaseEntity@@0@Z 1002c1f0 f   ESP.obj
 0001:0002b420       ?Crosshair@visuals@@AAEXPAVC_BaseEntity@@@Z 1002c420 f   ESP.obj
 0001:0002b6d0       ?NightMode@visuals@@AAEXXZ 1002c6d0 f   ESP.obj
 0001:0002bb50       ?Hitmarker@visuals@@AAEXXZ 1002cb50 f   ESP.obj
 0001:0002bd90       ??$?0$0A@$00$01$02$03$04$05$06$07$08@?$XorString@$09$0A@@XorCompileTime@@QAE@PBDU?$integer_sequence@I$0A@$00$01$02$03$04$05$06$07$08@std@@@Z 1002cd90 f i ESP.obj
 0001:0002bee0       ??$?0$0A@$00$01$02$03$04$05@?$XorString@$06$01@XorCompileTime@@QAE@PBDU?$integer_sequence@I$0A@$00$01$02$03$04$05@std@@@Z 1002cee0 f i ESP.obj
 0001:0002bfe0       ??$?0$0A@$00$01$02$03$04@?$XorString@$05$00@XorCompileTime@@QAE@PBDU?$integer_sequence@I$0A@$00$01$02$03$04@std@@@Z 1002cfe0 f i ESP.obj
 0001:0002c0c0       ??$?HDU?$char_traits@D@std@@V?$allocator@D@1@@std@@YA?AV?$basic_string@DU?$char_traits@D@std@@V?$allocator@D@2@@0@QBD$$QAV10@@Z 1002d0c0 f i ESP.obj
 0001:0002c520       ??$max@H@std@@YAABHABH0@Z  1002d520 f i ESP.obj
 0001:0002c550       ??$sprintf_s@$0EA@@@YAHAAY0EA@DPBDZZ 1002d550 f i ESP.obj
 0001:0002c5e0       ??0Color@@QAE@HHH@Z        1002d5e0 f i ESP.obj
 0001:0002c610       ??0Color@@QAE@HHHH@Z       1002d610 f i ESP.obj
 0001:0002c640       ??0Ray_t@@QAE@XZ           1002d640 f i ESP.obj
 0001:0002c780       ??0Vector@@QAE@MMM@Z       1002d780 f i ESP.obj
 0001:0002c7c0       ??0VectorAligned@@QAE@ABVVector@@@Z 1002d7c0 f i ESP.obj
 0001:0002c800       ??0VectorAligned@@QAE@XZ   1002d800 f i ESP.obj
 0001:0002c840       ??0grenade_prediction@@QAE@XZ 1002d840 f i ESP.obj
 0001:0002c8c0       ??1?$vector@VVector@@V?$allocator@VVector@@@std@@@std@@QAE@XZ 1002d8c0 f i ESP.obj
 0001:0002c920       ??1grenade_prediction@@QAE@XZ 1002d920 f i ESP.obj
 0001:0002c940       ??4Color@@QAEAAV0@ABV0@@Z  1002d940 f i ESP.obj
 0001:0002c970       ??4VectorAligned@@QAEAAV0@$$QAV0@@Z 1002d970 f i ESP.obj
 0001:0002c9a0       ??AVector@@QAEAAMH@Z       1002d9a0 f i ESP.obj
 0001:0002c9c0       ??XVector@@QAEAAV0@M@Z     1002d9c0 f i ESP.obj
 0001:0002ca10       ??YVector@@QAEAAV0@ABV0@@Z 1002da10 f i ESP.obj
 0001:0002ca70       ??_GText@?1??DrawInfo@visuals@@AAEXUtagRECT@@PAVC_BaseEntity@@1@Z@QAEPAXI@Z 1002da70 f i ESP.obj
 0001:0002caa0       ?Black@Color@@SA?AV1@XZ    1002daa0 f i ESP.obj
 0001:0002cac0       ?GetClientEntityFromHandle@C_BaseEntityList@@QAEPAVC_BaseEntity@@K@Z 1002dac0 f i Hooks.obj
 0001:0002cac0       ?CL_AllocDlight@IVEffects@@QAEPAUdlight_t@@H@Z 1002dac0 f i ESP.obj
 0001:0002caf0       ?CL_AllocElight@IVEffects@@QAEPAUdlight_t@@H@Z 1002daf0 f i ESP.obj
 0001:0002caf0       ?GetSurfaceData@IPhysicsSurfaceProps@@QAEPAUsurfacedata_t@@H@Z 1002daf0 f i Autowall.obj
 0001:0002cb20       ?CSGO_Armor@@YAMMH@Z       1002db20 f i ESP.obj
 0001:0002cbc0       ?ColorModulate@IMaterial@@QAEXMMM@Z 1002dbc0 f i ESP.obj
 0001:0002cc10       ?DistTo@Vector@@QBEMABV1@@Z 1002dc10 f i ESP.obj
 0001:0002cc50       ?DrawLine@ISurface@@QAEXHHHH@Z 1002dc50 f i ESP.obj
 0001:0002cc80       ?DrawOutlinedRect@ISurface@@QAEXHHHH@Z 1002dc80 f i ESP.obj
 0001:0002ccb0       ?DrawSetColor@ISurface@@QAEXHHHH@Z 1002dcb0 f i ESP.obj
 0001:0002cce0       ?FirstMaterial@CMaterialSystem@@QAEGXZ 1002dce0 f i ESP.obj
 0001:0002cd00       ?GetAimPunchAngle@CLocalPlayerExclusive@@QAE?AVVector@@XZ 1002dd00 f i ESP.obj
 0001:0002cd30       ?GetArmorName@C_BaseEntity@@QAEPADXZ 1002dd30 f i ESP.obj
 0001:0002cd70       ?GetBombDefuser@CCSBomb@@QAEHXZ 1002dd70 f i ESP.obj
 0001:0002cd90       ?GetBone@studiohdr_t@@QBEPAUmstudiobone_t@@H@Z 1002dd90 f i ESP.obj
 0001:0002cdc0       ?GetBonePos@C_BaseEntity@@QAE?AVVector@@H@Z 1002ddc0 f i ESP.obj
 0001:0002cec0       ?GetC4BlowTime@CCSBomb@@QAEMXZ 1002dec0 f i ESP.obj
 0001:0002cee0       ?GetC4DefuseCountDown@CCSBomb@@QAEMXZ 1002dee0 f i ESP.obj
 0001:0002cf00       ?GetCallout@C_BaseEntity@@QAEPADXZ 1002df00 f i ESP.obj
 0001:0002cf20       ?GetCollideable@IClientUnknown@@QAEPAVICollideable@@XZ 1002df20 f i ESP.obj
 0001:0002cf40       ?GetColor@Color@@QBEXAAH000@Z 1002df40 f i ESP.obj
 0001:0002cfa0       ?GetEyeAngles@C_BaseEntity@@QAEPAVVector@@XZ 1002dfa0 f i ESP.obj
 0001:0002cfc0       ?GetFlashDuration@C_BaseEntity@@QAEMXZ 1002dfc0 f i ESP.obj
 0001:0002cfe0       ?GetGunName@CBaseCombatWeapon@@QAEPADXZ 1002dfe0 f i ESP.obj
 0001:0002d350       ?GetInaccuracy@CBaseCombatWeapon@@QAEMXZ 1002e350 f i ESP.obj
 0001:0002d380       ?GetItemDefinitionIndex@CBaseAttributableItem@@QAEHXZ 1002e380 f i ESP.obj
 0001:0002d3a0       ?GetMaterial@CMaterialSystem@@QAEPAVIMaterial@@G@Z 1002e3a0 f i ESP.obj
 0001:0002d3d0       ?GetModelMaterials@CModelInfo@@QAEXPBUmodel_t@@HPAPAVIMaterial@@@Z 1002e3d0 f i ESP.obj
 0001:0002d400       ?GetName@IMaterial@@QAEPBDXZ 1002e400 f i ESP.obj
 0001:0002d420       ?GetPlayerInfo@IVEngineClient@@QAE_NHPAUplayer_info_s@@@Z 1002e420 f i ESP.obj
 0001:0002d450       ?GetScreenSize@IVEngineClient@@QAEXAAH0@Z 1002e450 f i ESP.obj
 0001:0002d480       ?GetSimulationTime@C_BaseEntity@@QAEMXZ 1002e480 f i ESP.obj
 0001:0002d4a0       ?GetSpread@CBaseCombatWeapon@@QAEMXZ 1002e4a0 f i ESP.obj
 0001:0002d4d0       ?GetStudiomodel@CModelInfo@@QAEPAUstudiohdr_t@@PBUmodel_t@@@Z 1002e4d0 f i ESP.obj
 0001:0002d500       ?GetName@IGameEvent@@QAEPBDXZ 1002e500 f i Hooks.obj
 0001:0002d500       ?GetTextureGroupName@IMaterial@@QAEPBDXZ 1002e500 f i ESP.obj
 0001:0002d520       ?Green@Color@@SA?AV1@XZ    1002e520 f i ESP.obj
 0001:0002d540       ?Init@Ray_t@@QAEXABVVector@@0@Z 1002e540 f i ESP.obj
 0001:0002d620       ?InvalidMaterial@CMaterialSystem@@QAEGXZ 1002e620 f i ESP.obj
 0001:0002d640       ?IsBombDefused@CCSBomb@@QAE_NXZ 1002e640 f i ESP.obj
 0001:0002d660       ?IsFlashed@C_BaseEntity@@QAE_NXZ 1002e660 f i ESP.obj
 0001:0002d6a0       ?IsInReload@CBaseCombatWeapon@@QAE_NXZ 1002e6a0 f i ESP.obj
 0001:0002d6c0       ?IsKnife@CBaseCombatWeapon@@QAE_NXZ 1002e6c0 f i ESP.obj
 0001:0002d750       ?IsScoped@C_BaseEntity@@QAE_NXZ 1002e750 f i ESP.obj
 0001:0002d770       ?LengthSqr@Vector@@QBEMXZ  1002e770 f i ESP.obj
 0001:0002d7c0       ?NextMaterial@CMaterialSystem@@QAEGG@Z 1002e7c0 f i ESP.obj
 0001:0002d7f0       ?ScreenPosition@IVDebugOverlay@@QAEHABVVector@@AAV2@@Z 1002e7f0 f i ESP.obj
 0001:0002d820       ?SetColor@Color@@QAEXHHHH@Z 1002e820 f i ESP.obj
 0001:0002d870       ?SetMaterialVarFlag@IMaterial@@QAEXW4MaterialVarFlags_t@@_N@Z 1002e870 f i ESP.obj
 0001:0002d8a0       ?SetRawColor@Color@@QAEXH@Z 1002e8a0 f i ESP.obj
 0001:0002d8c0       ?SetValue@ConVar@@QAEXH@Z  1002e8c0 f i ESP.obj
 0001:0002d8f0       ?SetValue@ConVar@@QAEXPBD@Z 1002e8f0 f i ESP.obj
 0001:0002d8f0       ?DrawSetColor@ISurface@@QAEXVColor@@@Z 1002e8f0 f i ESP.obj
 0001:0002d920       ?SetupBones@IClientRenderable@@QAE_NPAY123MHHM@Z 1002e920 f i ESP.obj
 0001:0002d960       ?TraceRay@IEngineTrace@@QAEXABURay_t@@IPAVITraceFilter@@PAVCGameTrace@@@Z 1002e960 f i ESP.obj
 0001:0002dc20       ?_Tidy@?$vector@VVector@@V?$allocator@VVector@@@std@@@std@@AAEXXZ 1002ec20 f i ESP.obj
 0001:0002dd50       ?allocate@?$allocator@U?$_Tree_node@U?$pair@$$CBW4ItemDefinitionIndexx@@UDefItem_t@@@std@@PAX@std@@@std@@QAEPAU?$_Tree_node@U?$pair@$$CBW4ItemDefinitionIndexx@@UDefItem_t@@@std@@PAX@2@I@Z 1002ed50 f   recvproxy.obj
 0001:0002dd70       ?ammo2@CBaseCombatWeapon@@QAEHXZ 1002ed70 f i ESP.obj
 0001:0002dd90       ?ammo@CBaseCombatWeapon@@QAEHXZ 1002ed90 f i ESP.obj
 0001:0002dde0       ?capacity@?$vector@VVector@@V?$allocator@VVector@@@std@@@std@@QBEIXZ 1002ede0 f i ESP.obj
 0001:0002de10       ?deallocate@?$allocator@U?$_Tree_node@U?$pair@$$CBW4ItemDefinitionIndexx@@UDefItem_t@@@std@@PAX@std@@@std@@QAEXQAU?$_Tree_node@U?$pair@$$CBW4ItemDefinitionIndexx@@UDefItem_t@@@std@@PAX@2@I@Z 1002ee10 f   recvproxy.obj
 0001:0002de30       ?deallocate@?$allocator@VVector@@@std@@QAEXQAVVector@@I@Z 1002ee30 f i ESP.obj
 0001:0002de50       ?exp@@YAMM@Z               1002ee50 f i ESP.obj
 0001:0002de70       ?flGetDistance@@YAHVVector@@0@Z 1002ee70 f i ESP.obj
 0001:0002df10       ?floor@@YAMM@Z             1002ef10 f i ESP.obj
 0001:0002df30       ?iAccount@C_BaseEntity@@QAEHXZ 1002ef30 f i ESP.obj
 0001:0002df50       ?insert@?$basic_string@DU?$char_traits@D@std@@V?$allocator@D@2@@std@@QAEAAV12@IQBD@Z 1002ef50 f i ESP.obj
 0001:0002dfa0       ?instance@?$singleton@Vgrenade_prediction@@@@SAAAVgrenade_prediction@@XZ 1002efa0 f i ESP.obj
 0001:0002e050       ?localPlayerExclusive@C_BaseEntity@@QAEPAVCLocalPlayerExclusive@@XZ 1002f050 f i ESP.obj
 0001:0002e070       ?m_AttributeManager@CBaseCombatWeapon@@QAEPAVAttributeContainer@@XZ 1002f070 f i ESP.obj
 0001:0002e090       ?m_Item@AttributeContainer@@QAEPAVCBaseAttributableItem@@XZ 1002f090 f i ESP.obj
 0001:0002e0b0       ?max_size@?$_Default_allocator_traits@V?$allocator@U?$_Tree_node@U?$pair@$$CBW4ItemDefinitionIndexx@@UDefItem_t@@@std@@PAX@std@@@std@@@std@@SAIABV?$allocator@U?$_Tree_node@U?$pair@$$CBW4ItemDefinitionIndexx@@UDefItem_t@@@std@@PAX@std@@@2@@Z 1002f0b0 f   recvproxy.obj
 0001:0002e160       ?strstr@@YAPADQADQBD@Z     1002f160 f i ESP.obj
 0001:0002e180       __vsnprintf_l              1002f180 f i ESP.obj
 0001:0002e1d0       __vsprintf_l               1002f1d0 f i ESP.obj
 0001:0002e1f0       _ceilf                     1002f1f0 f i ESP.obj
 0001:0002e220       _expf                      1002f220 f i ESP.obj
 0001:0002e250       _floorf                    1002f250 f i ESP.obj
 0001:0002e280       _sprintf                   1002f280 f i ESP.obj
 0001:0002e2c0       _vsprintf_s                1002f2c0 f i ESP.obj
 0001:0002e2f0       ?Setup@grenade_prediction@@AAEXAAVVector@@0V2@@Z 1002f2f0 f   GrenadePrediction.obj
 0001:0002e5a0       ?Simulate@grenade_prediction@@AAEXPAUCViewSetup@@@Z 1002f5a0 f   GrenadePrediction.obj
 0001:0002e6d0       ?Step@grenade_prediction@@AAEHAAVVector@@0HM@Z 1002f6d0 f   GrenadePrediction.obj
 0001:0002e7b0       ?CheckDetonate@grenade_prediction@@AAE_NABVVector@@ABVCGameTrace@@HM@Z 1002f7b0 f   GrenadePrediction.obj
 0001:0002e8c0       ?TraceHull@grenade_prediction@@AAEXAAVVector@@0AAVCGameTrace@@@Z 1002f8c0 f   GrenadePrediction.obj
 0001:0002e990       ?AddGravityMove@grenade_prediction@@AAEXAAVVector@@0M_N@Z 1002f990 f   GrenadePrediction.obj
 0001:0002ea90       ?PushEntity@grenade_prediction@@AAEXAAVVector@@ABV2@AAVCGameTrace@@@Z 1002fa90 f   GrenadePrediction.obj
 0001:0002eae0       ?ResolveFlyCollisionCustom@grenade_prediction@@AAEXAAVCGameTrace@@AAVVector@@M@Z 1002fae0 f   GrenadePrediction.obj
 0001:0002ec30       ?PhysicsClipVelocity@grenade_prediction@@AAEHABVVector@@0AAV2@M@Z 1002fc30 f   GrenadePrediction.obj
 0001:0002ed60       ?Tick@grenade_prediction@@QAEXH@Z 1002fd60 f   GrenadePrediction.obj
 0001:0002ee00       ?View@grenade_prediction@@QAEXPAUCViewSetup@@@Z 1002fe00 f   GrenadePrediction.obj
 0001:0002eed0       ?Paint@grenade_prediction@@QAEXXZ 1002fed0 f   GrenadePrediction.obj
 0001:0002f070       ?angle_vectors2@@YAXABVVector@@PAV1@11@Z 10030070 f   GrenadePrediction.obj
 0001:0002f2a0       ??$_Emplace_back_with_unused_capacity@ABVVector@@@?$vector@VVector@@V?$allocator@VVector@@@std@@@std@@AAEXABVVector@@@Z 100302a0 f i GrenadePrediction.obj
 0001:0002f320       ??$_Uninitialized_move@PAVVector@@PAV1@V?$allocator@VVector@@@std@@@std@@YAPAVVector@@PAV1@00AAV?$allocator@VVector@@@0@@Z 10030320 f i GrenadePrediction.obj
 0001:0002f3b0       ??$_Uninitialized_move_al_unchecked@PAVVector@@PAV1@V?$allocator@VVector@@@std@@@std@@YAPAVVector@@PAV1@00AAV?$allocator@VVector@@@0@U_General_ptr_iterator_tag@0@U_Unused_parameter@0@@Z 100303b0 f i GrenadePrediction.obj
 0001:0002f480       ??$construct@VVector@@ABV1@@?$_Default_allocator_traits@V?$allocator@VVector@@@std@@@std@@SAXAAV?$allocator@VVector@@@1@QAVVector@@ABV3@@Z 10030480 f i GrenadePrediction.obj
 0001:0002f480       ??$construct@VVector@@V1@@?$_Default_allocator_traits@V?$allocator@VVector@@@std@@@std@@SAXAAV?$allocator@VVector@@@1@QAVVector@@$$QAV3@@Z 10030480 f i GrenadePrediction.obj
 0001:0002f4c0       ??$emplace_back@ABVVector@@@?$vector@VVector@@V?$allocator@VVector@@@std@@@std@@QAEXABVVector@@@Z 100304c0 f i GrenadePrediction.obj
 0001:0002f650       ??0CTraceFilterWorldAndPropsOnly@@QAE@XZ 10030650 f i GrenadePrediction.obj
 0001:0002f670       ??8?$_Vector_const_iterator@V?$_Vector_val@U?$_Simple_types@VVector@@@std@@@std@@@std@@QBE_NABV01@@Z 10030670 f i GrenadePrediction.obj
 0001:0002f670       ??8?$_Vector_const_iterator@V?$_Vector_val@U?$_Simple_types@PAURecvTable@@@std@@@std@@@std@@QBE_NABV01@@Z 10030670 f i NetVarManager.obj
 0001:0002f6b0       ??9?$_Vector_const_iterator@V?$_Vector_val@U?$_Simple_types@PAURecvTable@@@std@@@std@@@std@@QBE_NABV01@@Z 100306b0 f i NetVarManager.obj
 0001:0002f6b0       ??9?$_Vector_const_iterator@V?$_Vector_val@U?$_Simple_types@VVector@@@std@@@std@@@std@@QBE_NABV01@@Z 100306b0 f i GrenadePrediction.obj
 0001:0002f6f0       ??A?$vector@VVector@@V?$allocator@VVector@@@std@@@std@@QAEAAVVector@@I@Z 100306f0 f i GrenadePrediction.obj
 0001:0002f710       ??AVector@@QBEMH@Z         10030710 f i GrenadePrediction.obj
 0001:0002f730       ??E?$_Vector_const_iterator@V?$_Vector_val@U?$_Simple_types@VVector@@@std@@@std@@@std@@QAEAAV01@XZ 10030730 f i GrenadePrediction.obj
 0001:0002f750       ??E?$_Vector_iterator@V?$_Vector_val@U?$_Simple_types@VVector@@@std@@@std@@@std@@QAEAAV01@XZ 10030750 f i GrenadePrediction.obj
 0001:0002f770       ??ZVector@@QAEAAV0@ABV0@@Z 10030770 f i GrenadePrediction.obj
 0001:0002f7d0       ?Dot@Vector@@QBEMABV1@@Z   100307d0 f i GrenadePrediction.obj
 0001:0002f7f0       ?DotProduct@@YAMABVVector@@0@Z 100307f0 f i GrenadePrediction.obj
 0001:0002f840       ?DrawOutlinedCircle@ISurface@@QAEXHHHH@Z 10030840 f i GrenadePrediction.obj
 0001:0002f870       ?GetVelocity@C_BaseEntity@@QAE?AVVector@@XZ 10030870 f i GrenadePrediction.obj
 0001:0002f8a0       ?Init@Ray_t@@QAEXABVVector@@000@Z 100308a0 f i GrenadePrediction.obj
 0001:0002fa20       ?Length2D@Vector@@QBEMXZ   10030a20 f i GrenadePrediction.obj
 0001:0002fa60       ?ShouldHitEntity@CTraceFilterWorldAndPropsOnly@@UAE_NPAVC_BaseEntity@@H@Z 10030a60 f i GrenadePrediction.obj
 0001:0002fa70       ?_Calculate_growth@?$vector@VVector@@V?$allocator@VVector@@@std@@@std@@ABEII@Z 10030a70 f i GrenadePrediction.obj
 0001:0002fac0       ?_Change_array@?$vector@VVector@@V?$allocator@VVector@@@std@@@std@@AAEXQAVVector@@II@Z 10030ac0 f i GrenadePrediction.obj
 0001:0002fb60       ?_Umove_if_noexcept1@?$vector@VVector@@V?$allocator@VVector@@@std@@@std@@AAEXPAVVector@@00U?$integral_constant@_N$00@2@@Z 10030b60 f i GrenadePrediction.obj
 0001:0002fb90       ?_Umove_if_noexcept@?$vector@VVector@@V?$allocator@VVector@@@std@@@std@@AAEXPAVVector@@00@Z 10030b90 f i GrenadePrediction.obj
 0001:0002fbc0       ?allocate@?$allocator@VVector@@@std@@QAEPAVVector@@I@Z 10030bc0 f i GrenadePrediction.obj
 0001:0002fbe0       ?clear@?$vector@PAURecvTable@@V?$allocator@PAURecvTable@@@std@@@std@@QAEXXZ 10030be0 f i NetVarManager.obj
 0001:0002fbe0       ?clear@?$vector@VVector@@V?$allocator@VVector@@@std@@@std@@QAEXXZ 10030be0 f i GrenadePrediction.obj
 0001:0002fc50       ?fabs@@YAMM@Z              10030c50 f i GrenadePrediction.obj
 0001:0002fc50       ?abs@@YAMM@Z               10030c50 f i Hooks.obj
 0001:0002fc70       ?max_size@?$_Default_allocator_traits@V?$allocator@VVector@@@std@@@std@@SAIABV?$allocator@VVector@@@2@@Z 10030c70 f i GrenadePrediction.obj
 0001:0002fc80       ?max_size@?$vector@VVector@@V?$allocator@VVector@@@std@@@std@@QBEIXZ 10030c80 f i GrenadePrediction.obj
 0001:0002fcc0       ?push_back@?$vector@VVector@@V?$allocator@VVector@@@std@@@std@@QAEXABVVector@@@Z 10030cc0 f i GrenadePrediction.obj
 0001:0002fce0       ?size@?$vector@VVector@@V?$allocator@VVector@@@std@@@std@@QBEIXZ 10030ce0 f i GrenadePrediction.obj
 0001:0002fd10       _fabsf                     10030d10 f i GrenadePrediction.obj
 0001:0002fe30       ?RenderInterface@@YAXXZ    10030e30 f   Hooks.obj
 0001:000360e0       ?initialize@hooks@@YAXXZ   100370e0 f   Hooks.obj
 0001:00036290       ?cleanup@hooks@@YAXXZ      10037290 f   Hooks.obj
 0001:00036330       ?RotateMovement@@YAXPAVCUserCmd@CInput@@M@Z 10037330 f   Hooks.obj
 0001:00036710       ?DrawMovementRecorder@@YAXXZ 10037710 f   Hooks.obj
 0001:000368d0       ?CHLCreateMove@@YGXHM_NAA_N@Z 100378d0 f   Hooks.obj
 0001:00036d10       ?hkCreateMove@@YGXHM_N@Z   10037d10 f   Hooks.obj
 0001:00036d30       ?GetKnifeDefinitionIndex@@YAHH@Z 10037d30 f   Hooks.obj
 0001:00036dc0       ?GetCurrentKnifeModel@@YAHH@Z 10037dc0 f   Hooks.obj
 0001:00036ef0       ?SkinChanger@@YAXXZ        10037ef0 f   Hooks.obj
 0001:00037170       ?GetEstimatedServerTickCount@@YAHM@Z 10038170 f   Hooks.obj
 0001:000371f0       ?NormalizeYaw@@YAMM@Z      100381f0 f   Hooks.obj
 0001:00037240       ?Resolver3@@YAXXZ          10038240 f   Hooks.obj
 0001:00037e70       ?CL_CreateDLLEntity@@YAPAVIClientNetworkable@@HHH@Z 10038e70 f   Hooks.obj
 0001:00037ed0       ?GetGloveSkinByMenu@@YAHHH@Z 10038ed0 f   Hooks.obj
 0001:00038100       ?isKnife@@YA_NH@Z          10039100 f   Hooks.obj
 0001:000381b0       ?GloveChanger@@YAXXZ       100391b0 f   Hooks.obj
 0001:00038af0       ?hkFrameStageNotify@@YGXW4ClientFrameStage_t@@@Z 10039af0 f   Hooks.obj
 0001:00038c80       ?GetCurrentMaterial@@YAPAVIMaterial@@H@Z 10039c80 f   Hooks.obj
 0001:00038d80       ?GetCurrentZMaterial@@YAPAVIMaterial@@H@Z 10039d80 f   Hooks.obj
 0001:00038f20       ?hkDrawModelExecute@@YIXPAXH00ABUModelRenderInfo_t@@PAY123M@Z 10039f20 f   Hooks.obj
 0001:00039980       ?hkPaintTraverse@@YIXPAXHI_N1@Z 1003a980 f   Hooks.obj
 0001:0003a0b0       ?hkInPrediction@@YG_NXZ    1003b0b0 f   Hooks.obj
 0001:0003a370       ?hkGetViewModelFOV@@YIMPAX0@Z 1003b370 f   Hooks.obj
 0001:0003a410       ?hkOverrideView@@YIXPAX0PAUCViewSetup@@@Z 1003b410 f   Hooks.obj
 0001:0003a680       ?OnScreenSizeChanged@@YGXHH@Z 1003b680 f   Hooks.obj
 0001:0003a6b0       ?hkFireEventClientSide@@YI_NPAX0PAVIGameEvent@@@Z 1003b6b0 f   Hooks.obj
 0001:0003a750       ?hkSvCheatsGetBool@@YI_NPAX0@Z 1003b750 f   Hooks.obj
 0001:0003a810       ?RenderDefault@@YAXPAUIDirect3DDevice9@@@Z 1003b810 f   Hooks.obj
 0001:0003bd60       ?FullUpdate@@YAXXZ         1003cd60 f   Hooks.obj
 0001:0003be10       ?weaponnames@@YAPBDH@Z     1003ce10 f   Hooks.obj
 0001:0003c0f0       ?IsUtility@@YA_NW4ItemDefinitionIndexx@@@Z 1003d0f0 f   Hooks.obj
 0001:0003c140       ?Contains@@YA_NABV?$basic_string@DU?$char_traits@D@std@@V?$allocator@D@2@@std@@0@Z 1003d140 f   Hooks.obj
 0001:0003c1b0       ?ToLower@@YA?AV?$basic_string@DU?$char_traits@D@std@@V?$allocator@D@2@@std@@V12@@Z 1003d1b0 f   Hooks.obj
 0001:0003c250       ?doknives@@YAXPA_N@Z       1003d250 f   Hooks.obj
 0001:0003c2b0       ?ParseSkins@@YAHXZ         1003d2b0 f   Hooks.obj
 0001:0003d1e0       ?hkReset@@YGJPAUIDirect3DDevice9@@PAU_D3DPRESENT_PARAMETERS_@@@Z 1003e1e0 f   Hooks.obj
 0001:0003d270       ?hkPresent@@YGJPAUIDirect3DDevice9@@PAUtagRECT@@1PAUHWND__@@PAU_RGNDATA@@@Z 1003e270 f   Hooks.obj
 0001:0003d3a0       ?hkPlaySound@@YGXPBD@Z     1003e3a0 f   Hooks.obj
 0001:0003d4e0       ?hkDoPostScreenSpaceEffects@@YI_NPAX0PAUCViewSetup@@@Z 1003e4e0 f   Hooks.obj
 0001:0003dad0       ?hkFindMDL@@YIGPAX0PBD@Z   1003ead0 f   Hooks.obj
 0001:0003db80       ?hkIsHltv@@YI_NPAX0@Z      1003eb80 f   Hooks.obj
 0001:0003dcd0       ?hkIsConnected@@YG_NXZ     1003ecd0 f   Hooks.obj
 0001:0003ddf0       ??$?0$$V@?$_Compressed_pair@V?$allocator@U?$_Tree_node@V?$basic_string@DU?$char_traits@D@std@@V?$allocator@D@2@@std@@PAX@std@@@std@@V?$_Tree_val@U?$_Tree_simple_types@V?$basic_string@DU?$char_traits@D@std@@V?$allocator@D@2@@std@@@std@@@2@$00@std@@QAE@U_Zero_then_variadic_args_t@1@@Z 1003edf0 f i Hooks.obj
 0001:0003ddf0       ??$?0$$V@?$_Compressed_pair@V?$allocator@U?$_Tree_node@U?$pair@$$CBW4ItemDefinitionIndexx@@UDefItem_t@@@std@@PAX@std@@@std@@V?$_Tree_val@U?$_Tree_simple_types@U?$pair@$$CBW4ItemDefinitionIndexx@@UDefItem_t@@@std@@@std@@@2@$00@std@@QAE@U_Zero_then_variadic_args_t@1@@Z 1003edf0 f i recvproxy.obj
 0001:0003de10       ??$?0$$V@?$_Compressed_pair@V?$allocator@V?$shared_ptr@VNode@valve_parser@@@std@@@std@@V?$_Deque_val@U?$_Deque_simple_types@V?$shared_ptr@VNode@valve_parser@@@std@@@std@@@2@$00@std@@QAE@U_Zero_then_variadic_args_t@1@@Z 1003ee10 f i Hooks.obj
 0001:0003de30       ??$?0$0A@$00$01$02$03$04$05$06$07$08$09$0L@$0M@$0N@$0O@$0P@$0BA@$0BB@$0BC@$0BD@$0BE@$0BF@$0BG@$0BH@$0BI@$0BJ@$0BK@$0BL@$0BM@$0BN@$0BO@$0BP@$0CA@@?$XorString@$0CB@$01@XorCompileTime@@QAE@PBDU?$integer_sequence@I$0A@$00$01$02$03$04$05$06$07$08$09$0L@$0M@$0N@$0O@$0P@$0BA@$0BB@$0BC@$0BD@$0BE@$0BF@$0BG@$0BH@$0BI@$0BJ@$0BK@$0BL@$0BM@$0BN@$0BO@$0BP@$0CA@@std@@@Z 1003ee30 f i Hooks.obj
 0001:0003e230       ??$?0$0A@$00$01$02$03$04$05$06$07$08$09$0L@$0M@$0N@$0O@$0P@$0BA@$0BB@$0BC@$0BD@$0BE@$0BF@$0BG@$0BH@$0BI@$0BJ@$0BK@@?$XorString@$0BL@$0BI@@XorCompileTime@@QAE@PBDU?$integer_sequence@I$0A@$00$01$02$03$04$05$06$07$08$09$0L@$0M@$0N@$0O@$0P@$0BA@$0BB@$0BC@$0BD@$0BE@$0BF@$0BG@$0BH@$0BI@$0BJ@$0BK@@std@@@Z 1003f230 f i Hooks.obj
 0001:0003e580       ??$?0$0A@$00$01$02$03$04$05$06$07$08$09$0L@$0M@$0N@$0O@$0P@$0BA@$0BB@$0BC@$0BD@$0BE@@?$XorString@$0BF@$0KA@@XorCompileTime@@QAE@PBDU?$integer_sequence@I$0A@$00$01$02$03$04$05$06$07$08$09$0L@$0M@$0N@$0O@$0P@$0BA@$0BB@$0BC@$0BD@$0BE@@std@@@Z 1003f580 f i Hooks.obj
 0001:0003e820       ??$?0$0A@$00$01$02$03$04$05$06$07$08$09$0L@$0M@$0N@$0O@$0P@$0BA@$0BB@@?$XorString@$0BC@$0DB@@XorCompileTime@@QAE@PBDU?$integer_sequence@I$0A@$00$01$02$03$04$05$06$07$08$09$0L@$0M@$0N@$0O@$0P@$0BA@$0BB@@std@@@Z 1003f820 f i Hooks.obj
 0001:0003ea60       ??$?0$0A@$00$01$02$03$04$05$06$07$08$09$0L@$0M@$0N@$0O@$0P@$0BA@$0BB@@?$XorString@$0BC@$0DD@@XorCompileTime@@QAE@PBDU?$integer_sequence@I$0A@$00$01$02$03$04$05$06$07$08$09$0L@$0M@$0N@$0O@$0P@$0BA@$0BB@@std@@@Z 1003fa60 f i Hooks.obj
 0001:0003eca0       ??$?0$0A@$00$01$02$03$04$05$06$07$08$09$0L@$0M@$0N@$0O@$0P@$0BA@$0BB@@?$XorString@$0BC@$0EC@@XorCompileTime@@QAE@PBDU?$integer_sequence@I$0A@$00$01$02$03$04$05$06$07$08$09$0L@$0M@$0N@$0O@$0P@$0BA@$0BB@@std@@@Z 1003fca0 f i Hooks.obj
 0001:0003eee0       ??$?0$0A@$00$01$02$03$04$05$06$07$08$09$0L@$0M@$0N@$0O@$0P@$0BA@$0BB@@?$XorString@$0BC@$0EE@@XorCompileTime@@QAE@PBDU?$integer_sequence@I$0A@$00$01$02$03$04$05$06$07$08$09$0L@$0M@$0N@$0O@$0P@$0BA@$0BB@@std@@@Z 1003fee0 f i Hooks.obj
 0001:0003f120       ??$?0$0A@$00$01$02$03$04$05$06$07$08$09$0L@$0M@$0N@$0O@$0P@$0BA@$0BB@@?$XorString@$0BC@$0FD@@XorCompileTime@@QAE@PBDU?$integer_sequence@I$0A@$00$01$02$03$04$05$06$07$08$09$0L@$0M@$0N@$0O@$0P@$0BA@$0BB@@std@@@Z 10040120 f i Hooks.obj
 0001:0003f360       ??$?0$0A@$00$01$02$03$04$05$06$07$08$09$0L@$0M@$0N@$0O@$0P@$0BA@$0BB@@?$XorString@$0BC@$0FF@@XorCompileTime@@QAE@PBDU?$integer_sequence@I$0A@$00$01$02$03$04$05$06$07$08$09$0L@$0M@$0N@$0O@$0P@$0BA@$0BB@@std@@@Z 10040360 f i Hooks.obj
 0001:0003f5a0       ??$?0$0A@$00$01$02$03$04$05$06$07$08$09$0L@$0M@$0N@$0O@$0P@$0BA@$0BB@@?$XorString@$0BC@$0GE@@XorCompileTime@@QAE@PBDU?$integer_sequence@I$0A@$00$01$02$03$04$05$06$07$08$09$0L@$0M@$0N@$0O@$0P@$0BA@$0BB@@std@@@Z 100405a0 f i Hooks.obj
 0001:0003f7e0       ??$?0$0A@$00$01$02$03$04$05$06$07$08$09$0L@$0M@$0N@$0O@$0P@$0BA@$0BB@@?$XorString@$0BC@$0GG@@XorCompileTime@@QAE@PBDU?$integer_sequence@I$0A@$00$01$02$03$04$05$06$07$08$09$0L@$0M@$0N@$0O@$0P@$0BA@$0BB@@std@@@Z 100407e0 f i Hooks.obj
 0001:0003fa20       ??$?0$0A@$00$01$02$03$04$05$06$07$08$09$0L@$0M@$0N@$0O@$0P@$0BA@$0BB@@?$XorString@$0BC@$0HF@@XorCompileTime@@QAE@PBDU?$integer_sequence@I$0A@$00$01$02$03$04$05$06$07$08$09$0L@$0M@$0N@$0O@$0P@$0BA@$0BB@@std@@@Z 10040a20 f i Hooks.obj
 0001:0003fc60       ??$?0$0A@$00$01$02$03$04$05$06$07$08$09$0L@$0M@$0N@$0O@$0P@$0BA@$0BB@@?$XorString@$0BC@$0HH@@XorCompileTime@@QAE@PBDU?$integer_sequence@I$0A@$00$01$02$03$04$05$06$07$08$09$0L@$0M@$0N@$0O@$0P@$0BA@$0BB@@std@@@Z 10040c60 f i Hooks.obj
 0001:0003fea0       ??$?0$0A@$00$01$02$03$04$05$06$07$08$09$0L@$0M@$0N@$0O@$0P@$0BA@$0BB@@?$XorString@$0BC@$0IO@@XorCompileTime@@QAE@PBDU?$integer_sequence@I$0A@$00$01$02$03$04$05$06$07$08$09$0L@$0M@$0N@$0O@$0P@$0BA@$0BB@@std@@@Z 10040ea0 f i Hooks.obj
 0001:000400e0       ??$?0$0A@$00$01$02$03$04$05$06$07$08$09$0L@$0M@$0N@$0O@$0P@$0BA@@?$XorString@$0BB@$0BG@@XorCompileTime@@QAE@PBDU?$integer_sequence@I$0A@$00$01$02$03$04$05$06$07$08$09$0L@$0M@$0N@$0O@$0P@$0BA@@std@@@Z 100410e0 f i Hooks.obj
 0001:00040300       ??$?0$0A@$00$01$02$03$04$05$06$07$08$09$0L@$0M@$0N@$0O@$0P@@?$XorString@$0BA@$0BN@@XorCompileTime@@QAE@PBDU?$integer_sequence@I$0A@$00$01$02$03$04$05$06$07$08$09$0L@$0M@$0N@$0O@$0P@@std@@@Z 10041300 f i Hooks.obj
 0001:00040500       ??$?0$0A@$00$01$02$03$04$05$06$07$08$09$0L@$0M@$0N@$0O@$0P@@?$XorString@$0BA@$0KB@@XorCompileTime@@QAE@PBDU?$integer_sequence@I$0A@$00$01$02$03$04$05$06$07$08$09$0L@$0M@$0N@$0O@$0P@@std@@@Z 10041500 f i Hooks.obj
 0001:00040700       ??$?0$0A@$00$01$02$03$04$05$06$07$08$09$0L@$0M@$0N@$0O@$0P@@?$XorString@$0BA@$0O@@XorCompileTime@@QAE@PBDU?$integer_sequence@I$0A@$00$01$02$03$04$05$06$07$08$09$0L@$0M@$0N@$0O@$0P@@std@@@Z 10041700 f i Hooks.obj
 0001:00040900       ??$?0$0A@$00$01$02$03$04$05$06$07$08$09$0L@$0M@$0N@$0O@@?$XorString@$0P@$0DE@@XorCompileTime@@QAE@PBDU?$integer_sequence@I$0A@$00$01$02$03$04$05$06$07$08$09$0L@$0M@$0N@$0O@@std@@@Z 10041900 f i Hooks.obj
 0001:00040900       ??$?0$0A@$00$01$02$03$04$05$06$07$08$09$0L@$0M@$0N@$0O@@?$XorString@$0P@$0CE@@XorCompileTime@@QAE@PBDU?$integer_sequence@I$0A@$00$01$02$03$04$05$06$07$08$09$0L@$0M@$0N@$0O@@std@@@Z 10041900 f i Hooks.obj
 0001:00040900       ??$?0$0A@$00$01$02$03$04$05$06$07$08$09$0L@$0M@$0N@$0O@@?$XorString@$0P@$0KH@@XorCompileTime@@QAE@PBDU?$integer_sequence@I$0A@$00$01$02$03$04$05$06$07$08$09$0L@$0M@$0N@$0O@@std@@@Z 10041900 f i Hooks.obj
 0001:00040af0       ??$?0$0A@$00$01$02$03$04$05$06$07$08$09$0L@$0M@$0N@$0O@@?$XorString@$0P@$0EF@@XorCompileTime@@QAE@PBDU?$integer_sequence@I$0A@$00$01$02$03$04$05$06$07$08$09$0L@$0M@$0N@$0O@@std@@@Z 10041af0 f i Hooks.obj
 0001:00040ce0       ??$?0$0A@$00$01$02$03$04$05$06$07$08$09$0L@$0M@$0N@$0O@@?$XorString@$0P@$0FG@@XorCompileTime@@QAE@PBDU?$integer_sequence@I$0A@$00$01$02$03$04$05$06$07$08$09$0L@$0M@$0N@$0O@@std@@@Z 10041ce0 f i Hooks.obj
 0001:00040ed0       ??$?0$0A@$00$01$02$03$04$05$06$07$08$09$0L@$0M@$0N@$0O@@?$XorString@$0P@$0GH@@XorCompileTime@@QAE@PBDU?$integer_sequence@I$0A@$00$01$02$03$04$05$06$07$08$09$0L@$0M@$0N@$0O@@std@@@Z 10041ed0 f i Hooks.obj
 0001:000410c0       ??$?0$0A@$00$01$02$03$04$05$06$07$08$09$0L@$0M@$0N@$0O@@?$XorString@$0P@$0HI@@XorCompileTime@@QAE@PBDU?$integer_sequence@I$0A@$00$01$02$03$04$05$06$07$08$09$0L@$0M@$0N@$0O@@std@@@Z 100420c0 f i Hooks.obj
 0001:000412b0       ??$?0$0A@$00$01$02$03$04$05$06$07$08$09$0L@$0M@$0N@$0O@@?$XorString@$0P@$0IE@@XorCompileTime@@QAE@PBDU?$integer_sequence@I$0A@$00$01$02$03$04$05$06$07$08$09$0L@$0M@$0N@$0O@@std@@@Z 100422b0 f i Hooks.obj
 0001:000414a0       ??$?0$0A@$00$01$02$03$04$05$06$07$08$09$0L@$0M@$0N@$0O@@?$XorString@$0P@$0JJ@@XorCompileTime@@QAE@PBDU?$integer_sequence@I$0A@$00$01$02$03$04$05$06$07$08$09$0L@$0M@$0N@$0O@@std@@@Z 100424a0 f i Hooks.obj
 0001:00041690       ??$?0$0A@$00$01$02$03$04$05$06$07$08$09$0L@$0M@$0N@@?$XorString@$0O@$0BK@@XorCompileTime@@QAE@PBDU?$integer_sequence@I$0A@$00$01$02$03$04$05$06$07$08$09$0L@$0M@$0N@@std@@@Z 10042690 f i Hooks.obj
 0001:00041860       ??$?0$0A@$00$01$02$03$04$05$06$07$08$09$0L@$0M@$0N@@?$XorString@$0O@$0BO@@XorCompileTime@@QAE@PBDU?$integer_sequence@I$0A@$00$01$02$03$04$05$06$07$08$09$0L@$0M@$0N@@std@@@Z 10042860 f i Hooks.obj
 0001:00041a30       ??$?0$0A@$00$01$02$03$04$05$06$07$08$09$0L@$0M@$0N@@?$XorString@$0O@$0DC@@XorCompileTime@@QAE@PBDU?$integer_sequence@I$0A@$00$01$02$03$04$05$06$07$08$09$0L@$0M@$0N@@std@@@Z 10042a30 f i Hooks.obj
 0001:00041c00       ??$?0$0A@$00$01$02$03$04$05$06$07$08$09$0L@$0M@$0N@@?$XorString@$0O@$0ED@@XorCompileTime@@QAE@PBDU?$integer_sequence@I$0A@$00$01$02$03$04$05$06$07$08$09$0L@$0M@$0N@@std@@@Z 10042c00 f i Hooks.obj
 0001:00041dd0       ??$?0$0A@$00$01$02$03$04$05$06$07$08$09$0L@$0M@$0N@@?$XorString@$0O@$0FE@@XorCompileTime@@QAE@PBDU?$integer_sequence@I$0A@$00$01$02$03$04$05$06$07$08$09$0L@$0M@$0N@@std@@@Z 10042dd0 f i Hooks.obj
 0001:00041fa0       ??$?0$0A@$00$01$02$03$04$05$06$07$08$09$0L@$0M@$0N@@?$XorString@$0O@$0FI@@XorCompileTime@@QAE@PBDU?$integer_sequence@I$0A@$00$01$02$03$04$05$06$07$08$09$0L@$0M@$0N@@std@@@Z 10042fa0 f i Hooks.obj
 0001:00042170       ??$?0$0A@$00$01$02$03$04$05$06$07$08$09$0L@$0M@$0N@@?$XorString@$0O@$0GF@@XorCompileTime@@QAE@PBDU?$integer_sequence@I$0A@$00$01$02$03$04$05$06$07$08$09$0L@$0M@$0N@@std@@@Z 10043170 f i Hooks.obj
 0001:00042340       ??$?0$0A@$00$01$02$03$04$05$06$07$08$09$0L@$0M@$0N@@?$XorString@$0O@$0HG@@XorCompileTime@@QAE@PBDU?$integer_sequence@I$0A@$00$01$02$03$04$05$06$07$08$09$0L@$0M@$0N@@std@@@Z 10043340 f i Hooks.obj
 0001:00042510       ??$?0$0A@$00$01$02$03$04$05$06$07$08$09$0L@$0M@$0N@@?$XorString@$0O@$0L@@XorCompileTime@@QAE@PBDU?$integer_sequence@I$0A@$00$01$02$03$04$05$06$07$08$09$0L@$0M@$0N@@std@@@Z 10043510 f i Hooks.obj
 0001:000426e0       ??$?0$0A@$00$01$02$03$04$05$06$07$08$09$0L@$0M@$0N@@?$XorString@$0O@$0LC@@XorCompileTime@@QAE@PBDU?$integer_sequence@I$0A@$00$01$02$03$04$05$06$07$08$09$0L@$0M@$0N@@std@@@Z 100436e0 f i Hooks.obj
 0001:000428b0       ??$?0$0A@$00$01$02$03$04$05$06$07$08$09$0L@$0M@@?$XorString@$0N@$0A@@XorCompileTime@@QAE@PBDU?$integer_sequence@I$0A@$00$01$02$03$04$05$06$07$08$09$0L@$0M@@std@@@Z 100438b0 f i Hooks.obj
 0001:00042a60       ??$?0$0A@$00$01$02$03$04$05$06$07$08$09$0L@$0M@@?$XorString@$0N@$0BL@@XorCompileTime@@QAE@PBDU?$integer_sequence@I$0A@$00$01$02$03$04$05$06$07$08$09$0L@$0M@@std@@@Z 10043a60 f i Hooks.obj
 0001:00042c10       ??$?0$0A@$00$01$02$03$04$05$06$07$08$09$0L@$0M@@?$XorString@$0N@$0CC@@XorCompileTime@@QAE@PBDU?$integer_sequence@I$0A@$00$01$02$03$04$05$06$07$08$09$0L@$0M@@std@@@Z 10043c10 f i Hooks.obj
 0001:00042dc0       ??$?0$0A@$00$01$02$03$04$05$06$07$08$09$0L@$0M@@?$XorString@$0N@$0CD@@XorCompileTime@@QAE@PBDU?$integer_sequence@I$0A@$00$01$02$03$04$05$06$07$08$09$0L@$0M@@std@@@Z 10043dc0 f i Hooks.obj
 0001:00042f70       ??$?0$0A@$00$01$02$03$04$05$06$07$08$09$0L@$0M@@?$XorString@$0N@$0CI@@XorCompileTime@@QAE@PBDU?$integer_sequence@I$0A@$00$01$02$03$04$05$06$07$08$09$0L@$0M@@std@@@Z 10043f70 f i Hooks.obj
 0001:00043120       ??$?0$0A@$00$01$02$03$04$05$06$07$08$09$0L@$0M@@?$XorString@$0N@$0CO@@XorCompileTime@@QAE@PBDU?$integer_sequence@I$0A@$00$01$02$03$04$05$06$07$08$09$0L@$0M@@std@@@Z 10044120 f i Hooks.obj
 0001:000432d0       ??$?0$0A@$00$01$02$03$04$05$06$07$08$09$0L@$0M@@?$XorString@$0N@$0DJ@@XorCompileTime@@QAE@PBDU?$integer_sequence@I$0A@$00$01$02$03$04$05$06$07$08$09$0L@$0M@@std@@@Z 100442d0 f i Hooks.obj
 0001:00043480       ??$?0$0A@$00$01$02$03$04$05$06$07$08$09$0L@$0M@@?$XorString@$0N@$0DP@@XorCompileTime@@QAE@PBDU?$integer_sequence@I$0A@$00$01$02$03$04$05$06$07$08$09$0L@$0M@@std@@@Z 10044480 f i Hooks.obj
 0001:00043630       ??$?0$0A@$00$01$02$03$04$05$06$07$08$09$0L@$0M@@?$XorString@$0N@$0EK@@XorCompileTime@@QAE@PBDU?$integer_sequence@I$0A@$00$01$02$03$04$05$06$07$08$09$0L@$0M@@std@@@Z 10044630 f i Hooks.obj
 0001:000437e0       ??$?0$0A@$00$01$02$03$04$05$06$07$08$09$0L@$0M@@?$XorString@$0N@$0FA@@XorCompileTime@@QAE@PBDU?$integer_sequence@I$0A@$00$01$02$03$04$05$06$07$08$09$0L@$0M@@std@@@Z 100447e0 f i Hooks.obj
 0001:00043990       ??$?0$0A@$00$01$02$03$04$05$06$07$08$09$0L@$0M@@?$XorString@$0N@$0FL@@XorCompileTime@@QAE@PBDU?$integer_sequence@I$0A@$00$01$02$03$04$05$06$07$08$09$0L@$0M@@std@@@Z 10044990 f i Hooks.obj
 0001:00043b40       ??$?0$0A@$00$01$02$03$04$05$06$07$08$09$0L@$0M@@?$XorString@$0N@$0GB@@XorCompileTime@@QAE@PBDU?$integer_sequence@I$0A@$00$01$02$03$04$05$06$07$08$09$0L@$0M@@std@@@Z 10044b40 f i Hooks.obj
 0001:00043cf0       ??$?0$0A@$00$01$02$03$04$05$06$07$08$09$0L@$0M@@?$XorString@$0N@$0GM@@XorCompileTime@@QAE@PBDU?$integer_sequence@I$0A@$00$01$02$03$04$05$06$07$08$09$0L@$0M@@std@@@Z 10044cf0 f i Hooks.obj
 0001:00043ea0       ??$?0$0A@$00$01$02$03$04$05$06$07$08$09$0L@$0M@@?$XorString@$0N@$0HC@@XorCompileTime@@QAE@PBDU?$integer_sequence@I$0A@$00$01$02$03$04$05$06$07$08$09$0L@$0M@@std@@@Z 10044ea0 f i Hooks.obj
 0001:00044050       ??$?0$0A@$00$01$02$03$04$05$06$07$08$09$0L@$0M@@?$XorString@$0N@$0JK@@XorCompileTime@@QAE@PBDU?$integer_sequence@I$0A@$00$01$02$03$04$05$06$07$08$09$0L@$0M@@std@@@Z 10045050 f i Hooks.obj
 0001:00044200       ??$?0$0A@$00$01$02$03$04$05$06$07$08$09$0L@@?$XorString@$0M@$0CK@@XorCompileTime@@QAE@PBDU?$integer_sequence@I$0A@$00$01$02$03$04$05$06$07$08$09$0L@@std@@@Z 10045200 f i Hooks.obj
 0001:00044390       ??$?0$0A@$00$01$02$03$04$05$06$07$08$09$0L@@?$XorString@$0M@$0CM@@XorCompileTime@@QAE@PBDU?$integer_sequence@I$0A@$00$01$02$03$04$05$06$07$08$09$0L@@std@@@Z 10045390 f i Hooks.obj
 0001:00044520       ??$?0$0A@$00$01$02$03$04$05$06$07$08$09$0L@@?$XorString@$0M@$0CP@@XorCompileTime@@QAE@PBDU?$integer_sequence@I$0A@$00$01$02$03$04$05$06$07$08$09$0L@@std@@@Z 10045520 f i Hooks.obj
 0001:000446b0       ??$?0$0A@$00$01$02$03$04$05$06$07$08$09$0L@@?$XorString@$0M@$0DL@@XorCompileTime@@QAE@PBDU?$integer_sequence@I$0A@$00$01$02$03$04$05$06$07$08$09$0L@@std@@@Z 100456b0 f i Hooks.obj
 0001:00044840       ??$?0$0A@$00$01$02$03$04$05$06$07$08$09$0L@@?$XorString@$0M@$0EA@@XorCompileTime@@QAE@PBDU?$integer_sequence@I$0A@$00$01$02$03$04$05$06$07$08$09$0L@@std@@@Z 10045840 f i Hooks.obj
 0001:000449d0       ??$?0$0A@$00$01$02$03$04$05$06$07$08$09$0L@@?$XorString@$0M@$0EB@@XorCompileTime@@QAE@PBDU?$integer_sequence@I$0A@$00$01$02$03$04$05$06$07$08$09$0L@@std@@@Z 100459d0 f i Hooks.obj
 0001:00044b60       ??$?0$0A@$00$01$02$03$04$05$06$07$08$09$0L@@?$XorString@$0M@$0EM@@XorCompileTime@@QAE@PBDU?$integer_sequence@I$0A@$00$01$02$03$04$05$06$07$08$09$0L@@std@@@Z 10045b60 f i Hooks.obj
 0001:00044cf0       ??$?0$0A@$00$01$02$03$04$05$06$07$08$09$0L@@?$XorString@$0M@$0EO@@XorCompileTime@@QAE@PBDU?$integer_sequence@I$0A@$00$01$02$03$04$05$06$07$08$09$0L@@std@@@Z 10045cf0 f i Hooks.obj
 0001:00044e80       ??$?0$0A@$00$01$02$03$04$05$06$07$08$09$0L@@?$XorString@$0M@$0FB@@XorCompileTime@@QAE@PBDU?$integer_sequence@I$0A@$00$01$02$03$04$05$06$07$08$09$0L@@std@@@Z 10045e80 f i Hooks.obj
 0001:00045010       ??$?0$0A@$00$01$02$03$04$05$06$07$08$09$0L@@?$XorString@$0M@$0FC@@XorCompileTime@@QAE@PBDU?$integer_sequence@I$0A@$00$01$02$03$04$05$06$07$08$09$0L@@std@@@Z 10046010 f i Hooks.obj
 0001:000451a0       ??$?0$0A@$00$01$02$03$04$05$06$07$08$09$0L@@?$XorString@$0M@$0FN@@XorCompileTime@@QAE@PBDU?$integer_sequence@I$0A@$00$01$02$03$04$05$06$07$08$09$0L@@std@@@Z 100461a0 f i Hooks.obj
 0001:00045330       ??$?0$0A@$00$01$02$03$04$05$06$07$08$09$0L@@?$XorString@$0M@$0FP@@XorCompileTime@@QAE@PBDU?$integer_sequence@I$0A@$00$01$02$03$04$05$06$07$08$09$0L@@std@@@Z 10046330 f i Hooks.obj
 0001:000454c0       ??$?0$0A@$00$01$02$03$04$05$06$07$08$09$0L@@?$XorString@$0M@$0GC@@XorCompileTime@@QAE@PBDU?$integer_sequence@I$0A@$00$01$02$03$04$05$06$07$08$09$0L@@std@@@Z 100464c0 f i Hooks.obj
 0001:00045650       ??$?0$0A@$00$01$02$03$04$05$06$07$08$09$0L@@?$XorString@$0M@$0GD@@XorCompileTime@@QAE@PBDU?$integer_sequence@I$0A@$00$01$02$03$04$05$06$07$08$09$0L@@std@@@Z 10046650 f i Hooks.obj
 0001:000457e0       ??$?0$0A@$00$01$02$03$04$05$06$07$08$09$0L@@?$XorString@$0M@$0GJ@@XorCompileTime@@QAE@PBDU?$integer_sequence@I$0A@$00$01$02$03$04$05$06$07$08$09$0L@@std@@@Z 100467e0 f i Hooks.obj
 0001:000457e0       ??$?0$0A@$00$01$02$03$04$05$06$07$08$09$0L@@?$XorString@$0M@$0DA@@XorCompileTime@@QAE@PBDU?$integer_sequence@I$0A@$00$01$02$03$04$05$06$07$08$09$0L@@std@@@Z 100467e0 f i Hooks.obj
 0001:00045970       ??$?0$0A@$00$01$02$03$04$05$06$07$08$09$0L@@?$XorString@$0M@$0GO@@XorCompileTime@@QAE@PBDU?$integer_sequence@I$0A@$00$01$02$03$04$05$06$07$08$09$0L@@std@@@Z 10046970 f i Hooks.obj
 0001:00045970       ??$?0$0A@$00$01$02$03$04$05$06$07$08$09$0L@@?$XorString@$0M@$0DN@@XorCompileTime@@QAE@PBDU?$integer_sequence@I$0A@$00$01$02$03$04$05$06$07$08$09$0L@@std@@@Z 10046970 f i Hooks.obj
 0001:00045b00       ??$?0$0A@$00$01$02$03$04$05$06$07$08$09$0L@@?$XorString@$0M@$0HA@@XorCompileTime@@QAE@PBDU?$integer_sequence@I$0A@$00$01$02$03$04$05$06$07$08$09$0L@@std@@@Z 10046b00 f i Hooks.obj
 0001:00045c90       ??$?0$0A@$00$01$02$03$04$05$06$07$08$09$0L@@?$XorString@$0M@$0HD@@XorCompileTime@@QAE@PBDU?$integer_sequence@I$0A@$00$01$02$03$04$05$06$07$08$09$0L@@std@@@Z 10046c90 f i Hooks.obj
 0001:00045e20       ??$?0$0A@$00$01$02$03$04$05$06$07$08$09$0L@@?$XorString@$0M@$0HE@@XorCompileTime@@QAE@PBDU?$integer_sequence@I$0A@$00$01$02$03$04$05$06$07$08$09$0L@@std@@@Z 10046e20 f i Hooks.obj
 0001:00045fb0       ??$?0$0A@$00$01$02$03$04$05$06$07$08$09$0L@@?$XorString@$0M@$0KG@@XorCompileTime@@QAE@PBDU?$integer_sequence@I$0A@$00$01$02$03$04$05$06$07$08$09$0L@@std@@@Z 10046fb0 f i Hooks.obj
 0001:00046140       ??$?0$0A@$00$01$02$03$04$05$06$07$08$09@?$XorString@$0L@$0CA@@XorCompileTime@@QAE@PBDU?$integer_sequence@I$0A@$00$01$02$03$04$05$06$07$08$09@std@@@Z 10047140 f i Hooks.obj
 0001:000462b0       ??$?0$0A@$00$01$02$03$04$05$06$07$08$09@?$XorString@$0L@$0DF@@XorCompileTime@@QAE@PBDU?$integer_sequence@I$0A@$00$01$02$03$04$05$06$07$08$09@std@@@Z 100472b0 f i Hooks.obj
 0001:00046420       ??$?0$0A@$00$01$02$03$04$05$06$07$08$09@?$XorString@$0L@$0EG@@XorCompileTime@@QAE@PBDU?$integer_sequence@I$0A@$00$01$02$03$04$05$06$07$08$09@std@@@Z 10047420 f i Hooks.obj
 0001:00046590       ??$?0$0A@$00$01$02$03$04$05$06$07$08$09@?$XorString@$0L@$0EH@@XorCompileTime@@QAE@PBDU?$integer_sequence@I$0A@$00$01$02$03$04$05$06$07$08$09@std@@@Z 10047590 f i Hooks.obj
 0001:00046700       ??$?0$0A@$00$01$02$03$04$05$06$07$08$09@?$XorString@$0L@$0FH@@XorCompileTime@@QAE@PBDU?$integer_sequence@I$0A@$00$01$02$03$04$05$06$07$08$09@std@@@Z 10047700 f i Hooks.obj
 0001:00046870       ??$?0$0A@$00$01$02$03$04$05$06$07$08$09@?$XorString@$0L@$0GI@@XorCompileTime@@QAE@PBDU?$integer_sequence@I$0A@$00$01$02$03$04$05$06$07$08$09@std@@@Z 10047870 f i Hooks.obj
 0001:000469e0       ??$?0$0A@$00$01$02$03$04$05$06$07$08$09@?$XorString@$0L@$0HJ@@XorCompileTime@@QAE@PBDU?$integer_sequence@I$0A@$00$01$02$03$04$05$06$07$08$09@std@@@Z 100479e0 f i Hooks.obj
 0001:00046b50       ??$?0$0A@$00$01$02$03$04$05$06$07$08$09@?$XorString@$0L@$0JF@@XorCompileTime@@QAE@PBDU?$integer_sequence@I$0A@$00$01$02$03$04$05$06$07$08$09@std@@@Z 10047b50 f i Hooks.obj
 0001:00046cc0       ??$?0$0A@$00$01$02$03$04$05$06$07$08$09@?$XorString@$0L@$0JI@@XorCompileTime@@QAE@PBDU?$integer_sequence@I$0A@$00$01$02$03$04$05$06$07$08$09@std@@@Z 10047cc0 f i Hooks.obj
 0001:00046e30       ??$?0$0A@$00$01$02$03$04$05$06$07$08$09@?$XorString@$0L@$0JM@@XorCompileTime@@QAE@PBDU?$integer_sequence@I$0A@$00$01$02$03$04$05$06$07$08$09@std@@@Z 10047e30 f i Hooks.obj
 0001:00046fa0       ??$?0$0A@$00$01$02$03$04$05$06$07$08$09@?$XorString@$0L@$0M@@XorCompileTime@@QAE@PBDU?$integer_sequence@I$0A@$00$01$02$03$04$05$06$07$08$09@std@@@Z 10047fa0 f i Hooks.obj
 0001:00047110       ??$?0$0A@$00$01$02$03$04$05$06$07$08@?$XorString@$09$06@XorCompileTime@@QAE@PBDU?$integer_sequence@I$0A@$00$01$02$03$04$05$06$07$08@std@@@Z 10048110 f i Hooks.obj
 0001:00047260       ??$?0$0A@$00$01$02$03$04$05$06$07$08@?$XorString@$09$07@XorCompileTime@@QAE@PBDU?$integer_sequence@I$0A@$00$01$02$03$04$05$06$07$08@std@@@Z 10048260 f i Hooks.obj
 0001:000473b0       ??$?0$0A@$00$01$02$03$04$05$06$07$08@?$XorString@$09$0DG@@XorCompileTime@@QAE@PBDU?$integer_sequence@I$0A@$00$01$02$03$04$05$06$07$08@std@@@Z 100483b0 f i Hooks.obj
 0001:00047500       ??$?0$0A@$00$01$02$03$04$05$06$07$08@?$XorString@$09$0HN@@XorCompileTime@@QAE@PBDU?$integer_sequence@I$0A@$00$01$02$03$04$05$06$07$08@std@@@Z 10048500 f i Hooks.obj
 0001:00047650       ??$?0$0A@$00$01$02$03$04$05$06$07$08@?$XorString@$09$0HO@@XorCompileTime@@QAE@PBDU?$integer_sequence@I$0A@$00$01$02$03$04$05$06$07$08@std@@@Z 10048650 f i Hooks.obj
 0001:000477a0       ??$?0$0A@$00$01$02$03$04$05$06$07$08@?$XorString@$09$0IC@@XorCompileTime@@QAE@PBDU?$integer_sequence@I$0A@$00$01$02$03$04$05$06$07$08@std@@@Z 100487a0 f i Hooks.obj
 0001:000478f0       ??$?0$0A@$00$01$02$03$04$05$06$07$08@?$XorString@$09$0ID@@XorCompileTime@@QAE@PBDU?$integer_sequence@I$0A@$00$01$02$03$04$05$06$07$08@std@@@Z 100488f0 f i Hooks.obj
 0001:00047a40       ??$?0$0A@$00$01$02$03$04$05$06$07$08@?$XorString@$09$0IJ@@XorCompileTime@@QAE@PBDU?$integer_sequence@I$0A@$00$01$02$03$04$05$06$07$08@std@@@Z 10048a40 f i Hooks.obj
 0001:00047b90       ??$?0$0A@$00$01$02$03$04$05$06$07$08@?$XorString@$09$0IK@@XorCompileTime@@QAE@PBDU?$integer_sequence@I$0A@$00$01$02$03$04$05$06$07$08@std@@@Z 10048b90 f i Hooks.obj
 0001:00047ce0       ??$?0$0A@$00$01$02$03$04$05$06$07$08@?$XorString@$09$0KO@@XorCompileTime@@QAE@PBDU?$integer_sequence@I$0A@$00$01$02$03$04$05$06$07$08@std@@@Z 10048ce0 f i Hooks.obj
 0001:00047e30       ??$?0$0A@$00$01$02$03$04$05$06$07$08@?$XorString@$09$0N@@XorCompileTime@@QAE@PBDU?$integer_sequence@I$0A@$00$01$02$03$04$05$06$07$08@std@@@Z 10048e30 f i Hooks.obj
 0001:00047f80       ??$?0$0A@$00$01$02$03$04$05$06$07@?$XorString@$08$09@XorCompileTime@@QAE@PBDU?$integer_sequence@I$0A@$00$01$02$03$04$05$06$07@std@@@Z 10048f80 f i Hooks.obj
 0001:000480b0       ??$?0$0A@$00$01$02$03$04$05$06$07@?$XorString@$08$0BA@@XorCompileTime@@QAE@PBDU?$integer_sequence@I$0A@$00$01$02$03$04$05$06$07@std@@@Z 100490b0 f i Hooks.obj
 0001:000481e0       ??$?0$0A@$00$01$02$03$04$05$06$07@?$XorString@$08$0CF@@XorCompileTime@@QAE@PBDU?$integer_sequence@I$0A@$00$01$02$03$04$05$06$07@std@@@Z 100491e0 f i Hooks.obj
 0001:00048310       ??$?0$0A@$00$01$02$03$04$05$06$07@?$XorString@$08$0HL@@XorCompileTime@@QAE@PBDU?$integer_sequence@I$0A@$00$01$02$03$04$05$06$07@std@@@Z 10049310 f i Hooks.obj
 0001:00048440       ??$?0$0A@$00$01$02$03$04$05$06$07@?$XorString@$08$0IA@@XorCompileTime@@QAE@PBDU?$integer_sequence@I$0A@$00$01$02$03$04$05$06$07@std@@@Z 10049440 f i Hooks.obj
 0001:00048570       ??$?0$0A@$00$01$02$03$04$05$06$07@?$XorString@$08$0IH@@XorCompileTime@@QAE@PBDU?$integer_sequence@I$0A@$00$01$02$03$04$05$06$07@std@@@Z 10049570 f i Hooks.obj
 0001:000486a0       ??$?0$0A@$00$01$02$03$04$05$06$07@?$XorString@$08$0JL@@XorCompileTime@@QAE@PBDU?$integer_sequence@I$0A@$00$01$02$03$04$05$06$07@std@@@Z 100496a0 f i Hooks.obj
 0001:000487d0       ??$?0$0A@$00$01$02$03$04$05$06$07@?$XorString@$08$0JO@@XorCompileTime@@QAE@PBDU?$integer_sequence@I$0A@$00$01$02$03$04$05$06$07@std@@@Z 100497d0 f i Hooks.obj
 0001:00048900       ??$?0$0A@$00$01$02$03$04$05$06$07@?$XorString@$08$0JP@@XorCompileTime@@QAE@PBDU?$integer_sequence@I$0A@$00$01$02$03$04$05$06$07@std@@@Z 10049900 f i Hooks.obj
 0001:00048a30       ??$?0$0A@$00$01$02$03$04$05$06$07@?$XorString@$08$0KN@@XorCompileTime@@QAE@PBDU?$integer_sequence@I$0A@$00$01$02$03$04$05$06$07@std@@@Z 10049a30 f i Hooks.obj
 0001:00048b60       ??$?0$0A@$00$01$02$03$04$05$06$07@?$XorString@$08$0LA@@XorCompileTime@@QAE@PBDU?$integer_sequence@I$0A@$00$01$02$03$04$05$06$07@std@@@Z 10049b60 f i Hooks.obj
 0001:00048c90       ??$?0$0A@$00$01$02$03$04$05$06$07@?$XorString@$08$0P@@XorCompileTime@@QAE@PBDU?$integer_sequence@I$0A@$00$01$02$03$04$05$06$07@std@@@Z 10049c90 f i Hooks.obj
 0001:00048dc0       ??$?0$0A@$00$01$02$03$04$05$06@?$XorString@$07$00@XorCompileTime@@QAE@PBDU?$integer_sequence@I$0A@$00$01$02$03$04$05$06@std@@@Z 10049dc0 f i Hooks.obj
 0001:00048ed0       ??$?0$0A@$00$01$02$03$04$05$06@?$XorString@$07$08@XorCompileTime@@QAE@PBDU?$integer_sequence@I$0A@$00$01$02$03$04$05$06@std@@@Z 10049ed0 f i Hooks.obj
 0001:00048fe0       ??$?0$0A@$00$01$02$03$04$05$06@?$XorString@$07$0BH@@XorCompileTime@@QAE@PBDU?$integer_sequence@I$0A@$00$01$02$03$04$05$06@std@@@Z 10049fe0 f i Hooks.obj
 0001:000490f0       ??$?0$0A@$00$01$02$03$04$05$06@?$XorString@$07$0CL@@XorCompileTime@@QAE@PBDU?$integer_sequence@I$0A@$00$01$02$03$04$05$06@std@@@Z 1004a0f0 f i Hooks.obj
 0001:00049200       ??$?0$0A@$00$01$02$03$04$05$06@?$XorString@$07$0DM@@XorCompileTime@@QAE@PBDU?$integer_sequence@I$0A@$00$01$02$03$04$05$06@std@@@Z 1004a200 f i Hooks.obj
 0001:00049310       ??$?0$0A@$00$01$02$03$04$05$06@?$XorString@$07$0EN@@XorCompileTime@@QAE@PBDU?$integer_sequence@I$0A@$00$01$02$03$04$05$06@std@@@Z 1004a310 f i Hooks.obj
 0001:00049420       ??$?0$0A@$00$01$02$03$04$05$06@?$XorString@$07$0FO@@XorCompileTime@@QAE@PBDU?$integer_sequence@I$0A@$00$01$02$03$04$05$06@std@@@Z 1004a420 f i Hooks.obj
 0001:00049530       ??$?0$0A@$00$01$02$03$04$05$06@?$XorString@$07$0GP@@XorCompileTime@@QAE@PBDU?$integer_sequence@I$0A@$00$01$02$03$04$05$06@std@@@Z 1004a530 f i Hooks.obj
 0001:00049640       ??$?0$0A@$00$01$02$03$04$05$06@?$XorString@$07$0IL@@XorCompileTime@@QAE@PBDU?$integer_sequence@I$0A@$00$01$02$03$04$05$06@std@@@Z 1004a640 f i Hooks.obj
 0001:00049750       ??$?0$0A@$00$01$02$03$04$05$06@?$XorString@$07$0IN@@XorCompileTime@@QAE@PBDU?$integer_sequence@I$0A@$00$01$02$03$04$05$06@std@@@Z 1004a750 f i Hooks.obj
 0001:00049860       ??$?0$0A@$00$01$02$03$04$05$06@?$XorString@$07$0JH@@XorCompileTime@@QAE@PBDU?$integer_sequence@I$0A@$00$01$02$03$04$05$06@std@@@Z 1004a860 f i Hooks.obj
 0001:00049970       ??$?0$0A@$00$01$02$03$04$05$06@?$XorString@$07$0JN@@XorCompileTime@@QAE@PBDU?$integer_sequence@I$0A@$00$01$02$03$04$05$06@std@@@Z 1004a970 f i Hooks.obj
 0001:00049a80       ??$?0$0A@$00$01$02$03$04$05$06@?$XorString@$07$0KE@@XorCompileTime@@QAE@PBDU?$integer_sequence@I$0A@$00$01$02$03$04$05$06@std@@@Z 1004aa80 f i Hooks.obj
 0001:00049b90       ??$?0$0A@$00$01$02$03$04$05$06@?$XorString@$07$0KF@@XorCompileTime@@QAE@PBDU?$integer_sequence@I$0A@$00$01$02$03$04$05$06@std@@@Z 1004ab90 f i Hooks.obj
 0001:00049ca0       ??$?0$0A@$00$01$02$03$04$05$06@?$XorString@$07$0KI@@XorCompileTime@@QAE@PBDU?$integer_sequence@I$0A@$00$01$02$03$04$05$06@std@@@Z 1004aca0 f i Hooks.obj
 0001:00049ca0       ??$?0$0A@$00$01$02$03$04$05$06@?$XorString@$07$0JG@@XorCompileTime@@QAE@PBDU?$integer_sequence@I$0A@$00$01$02$03$04$05$06@std@@@Z 1004aca0 f i Hooks.obj
 0001:00049db0       ??$?0$0A@$00$01$02$03$04$05$06@?$XorString@$07$0KJ@@XorCompileTime@@QAE@PBDU?$integer_sequence@I$0A@$00$01$02$03$04$05$06@std@@@Z 1004adb0 f i Hooks.obj
 0001:00049ec0       ??$?0$0A@$00$01$02$03$04$05$06@?$XorString@$07$0KK@@XorCompileTime@@QAE@PBDU?$integer_sequence@I$0A@$00$01$02$03$04$05$06@std@@@Z 1004aec0 f i Hooks.obj
 0001:00049fd0       ??$?0$0A@$00$01$02$03$04$05$06@?$XorString@$07$0KP@@XorCompileTime@@QAE@PBDU?$integer_sequence@I$0A@$00$01$02$03$04$05$06@std@@@Z 1004afd0 f i Hooks.obj
 0001:0004a0e0       ??$?0$0A@$00$01$02$03$04$05$06@?$XorString@$07$0LB@@XorCompileTime@@QAE@PBDU?$integer_sequence@I$0A@$00$01$02$03$04$05$06@std@@@Z 1004b0e0 f i Hooks.obj
 0001:0004a1f0       ??$?0$0A@$00$01$02$03$04$05@?$XorString@$06$0BB@@XorCompileTime@@QAE@PBDU?$integer_sequence@I$0A@$00$01$02$03$04$05@std@@@Z 1004b1f0 f i Hooks.obj
 0001:0004a2f0       ??$?0$0A@$00$01$02$03$04$05@?$XorString@$06$04@XorCompileTime@@QAE@PBDU?$integer_sequence@I$0A@$00$01$02$03$04$05@std@@@Z 1004b2f0 f i Hooks.obj
 0001:0004a2f0       ??$?0$0A@$00$01$02$03$04$05@?$XorString@$06$0BD@@XorCompileTime@@QAE@PBDU?$integer_sequence@I$0A@$00$01$02$03$04$05@std@@@Z 1004b2f0 f i Hooks.obj
 0001:0004a3f0       ??$?0$0A@$00$01$02$03$04$05@?$XorString@$06$0BF@@XorCompileTime@@QAE@PBDU?$integer_sequence@I$0A@$00$01$02$03$04$05@std@@@Z 1004b3f0 f i Hooks.obj
 0001:0004a4f0       ??$?0$0A@$00$01$02$03$04$05@?$XorString@$06$0BJ@@XorCompileTime@@QAE@PBDU?$integer_sequence@I$0A@$00$01$02$03$04$05@std@@@Z 1004b4f0 f i Hooks.obj
 0001:0004a5f0       ??$?0$0A@$00$01$02$03$04$05@?$XorString@$06$0CB@@XorCompileTime@@QAE@PBDU?$integer_sequence@I$0A@$00$01$02$03$04$05@std@@@Z 1004b5f0 f i Hooks.obj
 0001:0004a6f0       ??$?0$0A@$00$01$02$03$04$05@?$XorString@$06$0IF@@XorCompileTime@@QAE@PBDU?$integer_sequence@I$0A@$00$01$02$03$04$05@std@@@Z 1004b6f0 f i Hooks.obj
 0001:0004a7f0       ??$?0$0A@$00$01$02$03$04$05@?$XorString@$06$0JE@@XorCompileTime@@QAE@PBDU?$integer_sequence@I$0A@$00$01$02$03$04$05@std@@@Z 1004b7f0 f i Hooks.obj
 0001:0004a8f0       ??$?0$0A@$00$01$02$03$04$05@?$XorString@$06$0KM@@XorCompileTime@@QAE@PBDU?$integer_sequence@I$0A@$00$01$02$03$04$05@std@@@Z 1004b8f0 f i Hooks.obj
 0001:0004a9f0       ??$?0$0A@$00$01$02$03$04@?$XorString@$05$03@XorCompileTime@@QAE@PBDU?$integer_sequence@I$0A@$00$01$02$03$04@std@@@Z 1004b9f0 f i Hooks.obj
 0001:0004aad0       ??$?0$0A@$00$01$02$03$04@?$XorString@$05$0BC@@XorCompileTime@@QAE@PBDU?$integer_sequence@I$0A@$00$01$02$03$04@std@@@Z 1004bad0 f i Hooks.obj
 0001:0004abb0       ??$?0$0A@$00$01$02$03$04@?$XorString@$05$0BP@@XorCompileTime@@QAE@PBDU?$integer_sequence@I$0A@$00$01$02$03$04@std@@@Z 1004bbb0 f i Hooks.obj
 0001:0004ac90       ??$?0$0A@$00$01$02$03$04@?$XorString@$05$0CG@@XorCompileTime@@QAE@PBDU?$integer_sequence@I$0A@$00$01$02$03$04@std@@@Z 1004bc90 f i Hooks.obj
 0001:0004ad70       ??$?0$0A@$00$01$02$03$04@?$XorString@$05$0CN@@XorCompileTime@@QAE@PBDU?$integer_sequence@I$0A@$00$01$02$03$04@std@@@Z 1004bd70 f i Hooks.obj
 0001:0004ae50       ??$?0$0A@$00$01$02$03$04@?$XorString@$05$0DH@@XorCompileTime@@QAE@PBDU?$integer_sequence@I$0A@$00$01$02$03$04@std@@@Z 1004be50 f i Hooks.obj
 0001:0004af30       ??$?0$0A@$00$01$02$03$04@?$XorString@$05$0DO@@XorCompileTime@@QAE@PBDU?$integer_sequence@I$0A@$00$01$02$03$04@std@@@Z 1004bf30 f i Hooks.obj
 0001:0004b010       ??$?0$0A@$00$01$02$03$04@?$XorString@$05$0HB@@XorCompileTime@@QAE@PBDU?$integer_sequence@I$0A@$00$01$02$03$04@std@@@Z 1004c010 f i Hooks.obj
 0001:0004b010       ??$?0$0A@$00$01$02$03$04@?$XorString@$05$0EI@@XorCompileTime@@QAE@PBDU?$integer_sequence@I$0A@$00$01$02$03$04@std@@@Z 1004c010 f i Hooks.obj
 0001:0004b010       ??$?0$0A@$00$01$02$03$04@?$XorString@$05$0EP@@XorCompileTime@@QAE@PBDU?$integer_sequence@I$0A@$00$01$02$03$04@std@@@Z 1004c010 f i Hooks.obj
 0001:0004b0f0       ??$?0$0A@$00$01$02$03$04@?$XorString@$05$0FJ@@XorCompileTime@@QAE@PBDU?$integer_sequence@I$0A@$00$01$02$03$04@std@@@Z 1004c0f0 f i Hooks.obj
 0001:0004b1d0       ??$?0$0A@$00$01$02$03$04@?$XorString@$05$0GA@@XorCompileTime@@QAE@PBDU?$integer_sequence@I$0A@$00$01$02$03$04@std@@@Z 1004c1d0 f i Hooks.obj
 0001:0004b2b0       ??$?0$0A@$00$01$02$03$04@?$XorString@$05$0HK@@XorCompileTime@@QAE@PBDU?$integer_sequence@I$0A@$00$01$02$03$04@std@@@Z 1004c2b0 f i Hooks.obj
 0001:0004b2b0       ??$?0$0A@$00$01$02$03$04@?$XorString@$05$0GK@@XorCompileTime@@QAE@PBDU?$integer_sequence@I$0A@$00$01$02$03$04@std@@@Z 1004c2b0 f i Hooks.obj
 0001:0004b390       ??$?0$0A@$00$01$02$03$04@?$XorString@$05$0HM@@XorCompileTime@@QAE@PBDU?$integer_sequence@I$0A@$00$01$02$03$04@std@@@Z 1004c390 f i Hooks.obj
 0001:0004b470       ??$?0$0A@$00$01$02$03$04@?$XorString@$05$0HP@@XorCompileTime@@QAE@PBDU?$integer_sequence@I$0A@$00$01$02$03$04@std@@@Z 1004c470 f i Hooks.obj
 0001:0004b550       ??$?0$0A@$00$01$02$03$04@?$XorString@$05$0IB@@XorCompileTime@@QAE@PBDU?$integer_sequence@I$0A@$00$01$02$03$04@std@@@Z 1004c550 f i Hooks.obj
 0001:0004b630       ??$?0$0A@$00$01$02$03$04@?$XorString@$05$0IG@@XorCompileTime@@QAE@PBDU?$integer_sequence@I$0A@$00$01$02$03$04@std@@@Z 1004c630 f i Hooks.obj
 0001:0004b710       ??$?0$0A@$00$01$02$03$04@?$XorString@$05$0II@@XorCompileTime@@QAE@PBDU?$integer_sequence@I$0A@$00$01$02$03$04@std@@@Z 1004c710 f i Hooks.obj
 0001:0004b7f0       ??$?0$0A@$00$01$02$03$04@?$XorString@$05$0JA@@XorCompileTime@@QAE@PBDU?$integer_sequence@I$0A@$00$01$02$03$04@std@@@Z 1004c7f0 f i Hooks.obj
 0001:0004b8d0       ??$?0$0A@$00$01$02$03$04@?$XorString@$05$0JC@@XorCompileTime@@QAE@PBDU?$integer_sequence@I$0A@$00$01$02$03$04@std@@@Z 1004c8d0 f i Hooks.obj
 0001:0004b9b0       ??$?0$0A@$00$01$02$03$04@?$XorString@$05$0KL@@XorCompileTime@@QAE@PBDU?$integer_sequence@I$0A@$00$01$02$03$04@std@@@Z 1004c9b0 f i Hooks.obj
 0001:0004ba90       ??$?0$0A@$00$01$02$03@?$XorString@$04$0CH@@XorCompileTime@@QAE@PBDU?$integer_sequence@I$0A@$00$01$02$03@std@@@Z 1004ca90 f i Hooks.obj
 0001:0004bb50       ??$?0$0A@$00$01$02$03@?$XorString@$04$0DI@@XorCompileTime@@QAE@PBDU?$integer_sequence@I$0A@$00$01$02$03@std@@@Z 1004cb50 f i Hooks.obj
 0001:0004bc10       ??$?0$0A@$00$01$02$03@?$XorString@$04$0EJ@@XorCompileTime@@QAE@PBDU?$integer_sequence@I$0A@$00$01$02$03@std@@@Z 1004cc10 f i Hooks.obj
 0001:0004bcd0       ??$?0$0A@$00$01$02$03@?$XorString@$04$0FK@@XorCompileTime@@QAE@PBDU?$integer_sequence@I$0A@$00$01$02$03@std@@@Z 1004ccd0 f i Hooks.obj
 0001:0004bd90       ??$?0$0A@$00$01$02$03@?$XorString@$04$0GL@@XorCompileTime@@QAE@PBDU?$integer_sequence@I$0A@$00$01$02$03@std@@@Z 1004cd90 f i Hooks.obj
 0001:0004be50       ??$?0$0A@$00$01$02$03@?$XorString@$04$0JB@@XorCompileTime@@QAE@PBDU?$integer_sequence@I$0A@$00$01$02$03@std@@@Z 1004ce50 f i Hooks.obj
 0001:0004bf10       ??$?0$0A@$00$01$02$03@?$XorString@$04$0JD@@XorCompileTime@@QAE@PBDU?$integer_sequence@I$0A@$00$01$02$03@std@@@Z 1004cf10 f i Hooks.obj
 0001:0004bfd0       ??$?0$0A@$00$01$02@?$XorString@$03$0BE@@XorCompileTime@@QAE@PBDU?$integer_sequence@I$0A@$00$01$02@std@@@Z 1004cfd0 f i Hooks.obj
 0001:0004c070       ??$?0$0A@$00$01$02@?$XorString@$03$0BM@@XorCompileTime@@QAE@PBDU?$integer_sequence@I$0A@$00$01$02@std@@@Z 1004d070 f i Hooks.obj
 0001:0004c110       ??$?0$0A@$00$01$02@?$XorString@$03$0IP@@XorCompileTime@@QAE@PBDU?$integer_sequence@I$0A@$00$01$02@std@@@Z 1004d110 f i Hooks.obj
 0001:0004c1b0       ??$?0$0A@$00$01$02@?$XorString@$03$0KD@@XorCompileTime@@QAE@PBDU?$integer_sequence@I$0A@$00$01$02@std@@@Z 1004d1b0 f i Hooks.obj
 0001:0004c250       ??$?0$0A@$00$01@?$XorString@$02$02@XorCompileTime@@QAE@PBDU?$integer_sequence@I$0A@$00$01@std@@@Z 1004d250 f i Hooks.obj
 0001:0004c2d0       ??$?0$0A@$00$01@?$XorString@$02$05@XorCompileTime@@QAE@PBDU?$integer_sequence@I$0A@$00$01@std@@@Z 1004d2d0 f i Hooks.obj
 0001:0004c350       ??$?0$0A@$00$01@?$XorString@$02$0CJ@@XorCompileTime@@QAE@PBDU?$integer_sequence@I$0A@$00$01@std@@@Z 1004d350 f i Hooks.obj
 0001:0004c3d0       ??$?0$0A@$00$01@?$XorString@$02$0DK@@XorCompileTime@@QAE@PBDU?$integer_sequence@I$0A@$00$01@std@@@Z 1004d3d0 f i Hooks.obj
 0001:0004c450       ??$?0$0A@$00$01@?$XorString@$02$0EL@@XorCompileTime@@QAE@PBDU?$integer_sequence@I$0A@$00$01@std@@@Z 1004d450 f i Hooks.obj
 0001:0004c4d0       ??$?0$0A@$00$01@?$XorString@$02$0FM@@XorCompileTime@@QAE@PBDU?$integer_sequence@I$0A@$00$01@std@@@Z 1004d4d0 f i Hooks.obj
 0001:0004c550       ??$?0$0A@$00$01@?$XorString@$02$0GN@@XorCompileTime@@QAE@PBDU?$integer_sequence@I$0A@$00$01@std@@@Z 1004d550 f i Hooks.obj
 0001:0004c5d0       ??$?0$0A@$00$01@?$XorString@$02$0IM@@XorCompileTime@@QAE@PBDU?$integer_sequence@I$0A@$00$01@std@@@Z 1004d5d0 f i Hooks.obj
 0001:0004c650       ??$?0$0A@$00$01@?$XorString@$02$0KC@@XorCompileTime@@QAE@PBDU?$integer_sequence@I$0A@$00$01@std@@@Z 1004d650 f i Hooks.obj
 0001:0004c6d0       ??$?0V?$_List_iterator@V?$_List_val@U?$_List_simple_types@U?$pair@$$CBV?$basic_string@DU?$char_traits@D@std@@V?$allocator@D@2@@std@@V12@@std@@@std@@@std@@@std@@_NX$0A@@?$pair@V?$_List_iterator@V?$_List_val@U?$_List_simple_types@U?$pair@$$CBV?$basic_string@DU?$char_traits@D@std@@V?$allocator@D@2@@std@@V12@@std@@@std@@@std@@@std@@_N@std@@QAE@$$QAV?$_List_iterator@V?$_List_val@U?$_List_simple_types@U?$pair@$$CBV?$basic_string@DU?$char_traits@D@std@@V?$allocator@D@2@@std@@V12@@std@@@std@@@std@@@1@$$QA_N@Z 1004d6d0 f i Hooks.obj
 0001:0004c6d0       ??$?0V?$_List_iterator@V?$_List_val@U?$_List_simple_types@U?$pair@$$CBV?$basic_string@DU?$char_traits@D@std@@V?$allocator@D@2@@std@@UskinInfo@@@std@@@std@@@std@@@std@@_NX$0A@@?$pair@V?$_List_iterator@V?$_List_val@U?$_List_simple_types@U?$pair@$$CBV?$basic_string@DU?$char_traits@D@std@@V?$allocator@D@2@@std@@UskinInfo@@@std@@@std@@@std@@@std@@_N@std@@QAE@$$QAV?$_List_iterator@V?$_List_val@U?$_List_simple_types@U?$pair@$$CBV?$basic_string@DU?$char_traits@D@std@@V?$allocator@D@2@@std@@UskinInfo@@@std@@@std@@@std@@@1@$$QA_N@Z 1004d6d0 f i Hooks.obj
 0001:0004c6d0       ??$?0AAV?$_Tree_iterator@V?$_Tree_val@U?$_Tree_simple_types@U?$pair@$$CBW4ItemDefinitionIndexx@@UDefItem_t@@@std@@@std@@@std@@@std@@_NX$0A@@?$pair@V?$_Tree_iterator@V?$_Tree_val@U?$_Tree_simple_types@U?$pair@$$CBW4ItemDefinitionIndexx@@UDefItem_t@@@std@@@std@@@std@@@std@@_N@std@@QAE@AAV?$_Tree_iterator@V?$_Tree_val@U?$_Tree_simple_types@U?$pair@$$CBW4ItemDefinitionIndexx@@UDefItem_t@@@std@@@std@@@std@@@1@$$QA_N@Z 1004d6d0 f i recvproxy.obj
 0001:0004c6d0       ??$?0V?$_List_iterator@V?$_List_val@U?$_List_simple_types@U?$pair@$$CBV?$basic_string@DU?$char_traits@D@std@@V?$allocator@D@2@@std@@V?$set@V?$basic_string@DU?$char_traits@D@std@@V?$allocator@D@2@@std@@U?$less@V?$basic_string@DU?$char_traits@D@std@@V?$allocator@D@2@@std@@@2@V?$allocator@V?$basic_string@DU?$char_traits@D@std@@V?$allocator@D@2@@std@@@2@@2@@std@@@std@@@std@@@std@@_NX$0A@@?$pair@V?$_List_iterator@V?$_List_val@U?$_List_simple_types@U?$pair@$$CBV?$basic_string@DU?$char_traits@D@std@@V?$allocator@D@2@@std@@V?$set@V?$basic_string@DU?$char_traits@D@std@@V?$allocator@D@2@@std@@U?$less@V?$basic_string@DU?$char_traits@D@std@@V?$allocator@D@2@@std@@@2@V?$allocator@V?$basic_string@DU?$char_traits@D@std@@V?$allocator@D@2@@std@@@2@@2@@std@@@std@@@std@@@std@@_N@std@@QAE@$$QAV?$_List_iterator@V?$_List_val@U?$_List_simple_types@U?$pair@$$CBV?$basic_string@DU?$char_traits@D@std@@V?$allocator@D@2@@std@@V?$set@V?$basic_string@DU?$char_traits@D@std@@V?$allocator@D@2@@std@@U?$less@V?$basic_string@DU?$char_traits@D@std@@V?$allocator@D@2@@std@@@2@V?$allocator@V?$basic_string@DU?$char_traits@D@std@@V?$allocator@D@2@@std@@@2@@2@@std@@@std@@@std@@@1@$$QA_N@Z 1004d6d0 f i Hooks.obj
 0001:0004c6d0       ??$?0AAV?$_List_iterator@V?$_List_val@U?$_List_simple_types@U?$pair@$$CBV?$basic_string@DU?$char_traits@D@std@@V?$allocator@D@2@@std@@V?$set@V?$basic_string@DU?$char_traits@D@std@@V?$allocator@D@2@@std@@U?$less@V?$basic_string@DU?$char_traits@D@std@@V?$allocator@D@2@@std@@@2@V?$allocator@V?$basic_string@DU?$char_traits@D@std@@V?$allocator@D@2@@std@@@2@@2@@std@@@std@@@std@@@std@@_NX$0A@@?$pair@V?$_List_iterator@V?$_List_val@U?$_List_simple_types@U?$pair@$$CBV?$basic_string@DU?$char_traits@D@std@@V?$allocator@D@2@@std@@V?$set@V?$basic_string@DU?$char_traits@D@std@@V?$allocator@D@2@@std@@U?$less@V?$basic_string@DU?$char_traits@D@std@@V?$allocator@D@2@@std@@@2@V?$allocator@V?$basic_string@DU?$char_traits@D@std@@V?$allocator@D@2@@std@@@2@@2@@std@@@std@@@std@@@std@@_N@std@@QAE@AAV?$_List_iterator@V?$_List_val@U?$_List_simple_types@U?$pair@$$CBV?$basic_string@DU?$char_traits@D@std@@V?$allocator@D@2@@std@@V?$set@V?$basic_string@DU?$char_traits@D@std@@V?$allocator@D@2@@std@@U?$less@V?$basic_string@DU?$char_traits@D@std@@V?$allocator@D@2@@std@@@2@V?$allocator@V?$basic_string@DU?$char_traits@D@std@@V?$allocator@D@2@@std@@@2@@2@@std@@@std@@@std@@@1@$$QA_N@Z 1004d6d0 f i Hooks.obj
 0001:0004c6d0       ??$?0V?$_Tree_const_iterator@V?$_Tree_val@U?$_Tree_simple_types@V?$basic_string@DU?$char_traits@D@std@@V?$allocator@D@2@@std@@@std@@@std@@@std@@_NX$0A@@?$pair@V?$_Tree_const_iterator@V?$_Tree_val@U?$_Tree_simple_types@V?$basic_string@DU?$char_traits@D@std@@V?$allocator@D@2@@std@@@std@@@std@@@std@@_N@std@@QAE@$$QAV?$_Tree_const_iterator@V?$_Tree_val@U?$_Tree_simple_types@V?$basic_string@DU?$char_traits@D@std@@V?$allocator@D@2@@std@@@std@@@std@@@1@$$QA_N@Z 1004d6d0 f i Hooks.obj
 0001:0004c6d0       ??$?0AAV?$_Tree_const_iterator@V?$_Tree_val@U?$_Tree_simple_types@V?$basic_string@DU?$char_traits@D@std@@V?$allocator@D@2@@std@@@std@@@std@@@std@@_NX$0A@@?$pair@V?$_Tree_const_iterator@V?$_Tree_val@U?$_Tree_simple_types@V?$basic_string@DU?$char_traits@D@std@@V?$allocator@D@2@@std@@@std@@@std@@@std@@_N@std@@QAE@AAV?$_Tree_const_iterator@V?$_Tree_val@U?$_Tree_simple_types@V?$basic_string@DU?$char_traits@D@std@@V?$allocator@D@2@@std@@@std@@@std@@@1@$$QA_N@Z 1004d6d0 f i Hooks.obj
 0001:0004c6d0       ??$?0V?$_Tree_iterator@V?$_Tree_val@U?$_Tree_simple_types@U?$pair@$$CBW4ItemDefinitionIndexx@@UDefItem_t@@@std@@@std@@@std@@@std@@_NX$0A@@?$pair@V?$_Tree_iterator@V?$_Tree_val@U?$_Tree_simple_types@U?$pair@$$CBW4ItemDefinitionIndexx@@UDefItem_t@@@std@@@std@@@std@@@std@@_N@std@@QAE@$$QAV?$_Tree_iterator@V?$_Tree_val@U?$_Tree_simple_types@U?$pair@$$CBW4ItemDefinitionIndexx@@UDefItem_t@@@std@@@std@@@std@@@1@$$QA_N@Z 1004d6d0 f i recvproxy.obj
 0001:0004c6d0       ??$?0AAV?$_List_iterator@V?$_List_val@U?$_List_simple_types@U?$pair@$$CBV?$basic_string@DU?$char_traits@D@std@@V?$allocator@D@2@@std@@UskinInfo@@@std@@@std@@@std@@@std@@_NX$0A@@?$pair@V?$_List_iterator@V?$_List_val@U?$_List_simple_types@U?$pair@$$CBV?$basic_string@DU?$char_traits@D@std@@V?$allocator@D@2@@std@@UskinInfo@@@std@@@std@@@std@@@std@@_N@std@@QAE@AAV?$_List_iterator@V?$_List_val@U?$_List_simple_types@U?$pair@$$CBV?$basic_string@DU?$char_traits@D@std@@V?$allocator@D@2@@std@@UskinInfo@@@std@@@std@@@std@@@1@$$QA_N@Z 1004d6d0 f i Hooks.obj
 0001:0004c6d0       ??$?0AAV?$_List_iterator@V?$_List_val@U?$_List_simple_types@U?$pair@$$CBV?$basic_string@DU?$char_traits@D@std@@V?$allocator@D@2@@std@@V12@@std@@@std@@@std@@@std@@_NX$0A@@?$pair@V?$_List_iterator@V?$_List_val@U?$_List_simple_types@U?$pair@$$CBV?$basic_string@DU?$char_traits@D@std@@V?$allocator@D@2@@std@@V12@@std@@@std@@@std@@@std@@_N@std@@QAE@AAV?$_List_iterator@V?$_List_val@U?$_List_simple_types@U?$pair@$$CBV?$basic_string@DU?$char_traits@D@std@@V?$allocator@D@2@@std@@V12@@std@@@std@@@std@@@1@$$QA_N@Z 1004d6d0 f i Hooks.obj
 0001:0004c710       ??$?0ABV?$allocator@U?$pair@QADPAD@std@@@std@@X@?$_List_alloc@U?$_List_base_types@U?$pair@QADPAD@std@@V?$allocator@U?$pair@QADPAD@std@@@2@@std@@@std@@QAE@ABV?$allocator@U?$pair@QADPAD@std@@@1@@Z 1004d710 f i Hooks.obj
 0001:0004c760       ??$?0ABV?$allocator@U?$pair@QADPAD@std@@@std@@X@?$_List_buy@U?$pair@QADPAD@std@@V?$allocator@U?$pair@QADPAD@std@@@2@@std@@QAE@ABV?$allocator@U?$pair@QADPAD@std@@@1@@Z 1004d760 f i Hooks.obj
 0001:0004c790       ??$?0ABV?$allocator@V?$_List_unchecked_iterator@V?$_List_val@U?$_List_simple_types@U?$pair@$$CBV?$basic_string@DU?$char_traits@D@std@@V?$allocator@D@2@@std@@UskinInfo@@@std@@@std@@@std@@@std@@@std@@X@?$_Vector_alloc@U?$_Vec_base_types@V?$_List_unchecked_iterator@V?$_List_val@U?$_List_simple_types@U?$pair@$$CBV?$basic_string@DU?$char_traits@D@std@@V?$allocator@D@2@@std@@UskinInfo@@@std@@@std@@@std@@@std@@V?$allocator@V?$_List_unchecked_iterator@V?$_List_val@U?$_List_simple_types@U?$pair@$$CBV?$basic_string@DU?$char_traits@D@std@@V?$allocator@D@2@@std@@UskinInfo@@@std@@@std@@@std@@@std@@@2@@std@@@std@@QAE@ABV?$allocator@V?$_List_unchecked_iterator@V?$_List_val@U?$_List_simple_types@U?$pair@$$CBV?$basic_string@DU?$char_traits@D@std@@V?$allocator@D@2@@std@@UskinInfo@@@std@@@std@@@std@@@std@@@1@@Z 1004d790 f i Configuration.obj
 0001:0004c790       ??$?0ABV?$allocator@V?$basic_string@DU?$char_traits@D@std@@V?$allocator@D@2@@std@@@std@@X@?$_Vector_alloc@U?$_Vec_base_types@V?$basic_string@DU?$char_traits@D@std@@V?$allocator@D@2@@std@@V?$allocator@V?$basic_string@DU?$char_traits@D@std@@V?$allocator@D@2@@std@@@2@@std@@@std@@QAE@ABV?$allocator@V?$basic_string@DU?$char_traits@D@std@@V?$allocator@D@2@@std@@@1@@Z 1004d790 f i Hooks.obj
 0001:0004c790       ??$?0ABV?$allocator@H@std@@X@?$_Vector_alloc@U?$_Vec_base_types@HV?$allocator@H@std@@@std@@@std@@QAE@ABV?$allocator@H@1@@Z 1004d790 f i LegitBot.obj
 0001:0004c790       ??$?0ABV?$allocator@V?$_List_unchecked_iterator@V?$_List_val@U?$_List_simple_types@U?$pair@$$CBV?$basic_string@DU?$char_traits@D@std@@V?$allocator@D@2@@std@@V?$set@V?$basic_string@DU?$char_traits@D@std@@V?$allocator@D@2@@std@@U?$less@V?$basic_string@DU?$char_traits@D@std@@V?$allocator@D@2@@std@@@2@V?$allocator@V?$basic_string@DU?$char_traits@D@std@@V?$allocator@D@2@@std@@@2@@2@@std@@@std@@@std@@@std@@@std@@X@?$_Vector_alloc@U?$_Vec_base_types@V?$_List_unchecked_iterator@V?$_List_val@U?$_List_simple_types@U?$pair@$$CBV?$basic_string@DU?$char_traits@D@std@@V?$allocator@D@2@@std@@V?$set@V?$basic_string@DU?$char_traits@D@std@@V?$allocator@D@2@@std@@U?$less@V?$basic_string@DU?$char_traits@D@std@@V?$allocator@D@2@@std@@@2@V?$allocator@V?$basic_string@DU?$char_traits@D@std@@V?$allocator@D@2@@std@@@2@@2@@std@@@std@@@std@@@std@@V?$allocator@V?$_List_unchecked_iterator@V?$_List_val@U?$_List_simple_types@U?$pair@$$CBV?$basic_string@DU?$char_traits@D@std@@V?$allocator@D@2@@std@@V?$set@V?$basic_string@DU?$char_traits@D@std@@V?$allocator@D@2@@std@@U?$less@V?$basic_string@DU?$char_traits@D@std@@V?$allocator@D@2@@std@@@2@V?$allocator@V?$basic_string@DU?$char_traits@D@std@@V?$allocator@D@2@@std@@@2@@2@@std@@@std@@@std@@@std@@@2@@std@@@std@@QAE@ABV?$allocator@V?$_List_unchecked_iterator@V?$_List_val@U?$_List_simple_types@U?$pair@$$CBV?$basic_string@DU?$char_traits@D@std@@V?$allocator@D@2@@std@@V?$set@V?$basic_string@DU?$char_traits@D@std@@V?$allocator@D@2@@std@@U?$less@V?$basic_string@DU?$char_traits@D@std@@V?$allocator@D@2@@std@@@2@V?$allocator@V?$basic_string@DU?$char_traits@D@std@@V?$allocator@D@2@@std@@@2@@2@@std@@@std@@@std@@@std@@@1@@Z 1004d790 f i Configuration.obj
 0001:0004c790       ??$?0V?$allocator@H@std@@X@?$_Vector_alloc@U?$_Vec_base_types@HV?$allocator@H@std@@@std@@@std@@QAE@$$QAV?$allocator@H@1@@Z 1004d790 f i Utilities.obj
 0001:0004c790       ??$?0ABV?$allocator@V?$_List_unchecked_iterator@V?$_List_val@U?$_List_simple_types@U?$pair@$$CBV?$basic_string@DU?$char_traits@D@std@@V?$allocator@D@2@@std@@V12@@std@@@std@@@std@@@std@@@std@@X@?$_Vector_alloc@U?$_Vec_base_types@V?$_List_unchecked_iterator@V?$_List_val@U?$_List_simple_types@U?$pair@$$CBV?$basic_string@DU?$char_traits@D@std@@V?$allocator@D@2@@std@@V12@@std@@@std@@@std@@@std@@V?$allocator@V?$_List_unchecked_iterator@V?$_List_val@U?$_List_simple_types@U?$pair@$$CBV?$basic_string@DU?$char_traits@D@std@@V?$allocator@D@2@@std@@V12@@std@@@std@@@std@@@std@@@2@@std@@@std@@QAE@ABV?$allocator@V?$_List_unchecked_iterator@V?$_List_val@U?$_List_simple_types@U?$pair@$$CBV?$basic_string@DU?$char_traits@D@std@@V?$allocator@D@2@@std@@V12@@std@@@std@@@std@@@std@@@1@@Z 1004d790 f i Configuration.obj
 0001:0004c790       ??$?0V?$allocator@V?$shared_ptr@VNode@valve_parser@@@std@@@std@@X@?$_Vector_alloc@U?$_Vec_base_types@V?$shared_ptr@VNode@valve_parser@@@std@@V?$allocator@V?$shared_ptr@VNode@valve_parser@@@std@@@2@@std@@@std@@QAE@$$QAV?$allocator@V?$shared_ptr@VNode@valve_parser@@@std@@@1@@Z 1004d790 f i Hooks.obj
 0001:0004c790       ??$?0ABV?$allocator@V?$_List_unchecked_iterator@V?$_List_val@U?$_List_simple_types@U?$pair@QADPAD@std@@@std@@@std@@@std@@@std@@X@?$_Vector_alloc@U?$_Vec_base_types@V?$_List_unchecked_iterator@V?$_List_val@U?$_List_simple_types@U?$pair@QADPAD@std@@@std@@@std@@@std@@V?$allocator@V?$_List_unchecked_iterator@V?$_List_val@U?$_List_simple_types@U?$pair@QADPAD@std@@@std@@@std@@@std@@@2@@std@@@std@@QAE@ABV?$allocator@V?$_List_unchecked_iterator@V?$_List_val@U?$_List_simple_types@U?$pair@QADPAD@std@@@std@@@std@@@std@@@1@@Z 1004d790 f i Hooks.obj
 0001:0004c7c0       ??$?0ABV?$basic_string@DU?$char_traits@D@std@@V?$allocator@D@2@@std@@$$Z$$V@?$pair@$$CBV?$basic_string@DU?$char_traits@D@std@@V?$allocator@D@2@@std@@UskinInfo@@@std@@QAE@Upiecewise_construct_t@1@V?$tuple@ABV?$basic_string@DU?$char_traits@D@std@@V?$allocator@D@2@@std@@@1@V?$tuple@$$V@1@@Z 1004d7c0 f i Hooks.obj
 0001:0004c7f0       ??$?0ABV?$basic_string@DU?$char_traits@D@std@@V?$allocator@D@2@@std@@$$Z$$V@?$pair@$$CBV?$basic_string@DU?$char_traits@D@std@@V?$allocator@D@2@@std@@V12@@std@@QAE@Upiecewise_construct_t@1@V?$tuple@ABV?$basic_string@DU?$char_traits@D@std@@V?$allocator@D@2@@std@@@1@V?$tuple@$$V@1@@Z 1004d7f0 f i Hooks.obj
 0001:0004c820       ??$?0ABV?$basic_string@DU?$char_traits@D@std@@V?$allocator@D@2@@std@@$$Z$$V@?$pair@$$CBV?$basic_string@DU?$char_traits@D@std@@V?$allocator@D@2@@std@@V?$set@V?$basic_string@DU?$char_traits@D@std@@V?$allocator@D@2@@std@@U?$less@V?$basic_string@DU?$char_traits@D@std@@V?$allocator@D@2@@std@@@2@V?$allocator@V?$basic_string@DU?$char_traits@D@std@@V?$allocator@D@2@@std@@@2@@2@@std@@QAE@Upiecewise_construct_t@1@V?$tuple@ABV?$basic_string@DU?$char_traits@D@std@@V?$allocator@D@2@@std@@@1@V?$tuple@$$V@1@@Z 1004d820 f i Hooks.obj
 0001:0004c850       ??$?0ABV?$basic_string@DU?$char_traits@D@std@@V?$allocator@D@2@@std@@$0A@@?$tuple@ABV?$basic_string@DU?$char_traits@D@std@@V?$allocator@D@2@@std@@@std@@QAE@ABV?$basic_string@DU?$char_traits@D@std@@V?$allocator@D@2@@1@@Z 1004d850 f i Hooks.obj
 0001:0004c880       ??$?0ABV?$basic_string@DU?$char_traits@D@std@@V?$allocator@D@2@@std@@@?$_Tuple_val@ABV?$basic_string@DU?$char_traits@D@std@@V?$allocator@D@2@@std@@@std@@QAE@ABV?$basic_string@DU?$char_traits@D@std@@V?$allocator@D@2@@1@@Z 1004d880 f i Hooks.obj
 0001:0004c8b0       ??$?0PAVDocument@valve_parser@@@?$_Ref_count_obj@VNode@valve_parser@@@std@@QAE@$$QAPAVDocument@valve_parser@@@Z 1004d8b0 f i Hooks.obj
 0001:0004c940       ??$?0V?$shared_ptr@VNode@valve_parser@@@std@@@?$allocator@PAV?$shared_ptr@VNode@valve_parser@@@std@@@std@@QAE@ABV?$allocator@V?$shared_ptr@VNode@valve_parser@@@std@@@1@@Z 1004d940 f i Hooks.obj
 0001:0004c940       ??$?0U?$pair@$$CBV?$basic_string@DU?$char_traits@D@std@@V?$allocator@D@2@@std@@UskinInfo@@@std@@@?$allocator@V?$_List_unchecked_iterator@V?$_List_val@U?$_List_simple_types@U?$pair@$$CBV?$basic_string@DU?$char_traits@D@std@@V?$allocator@D@2@@std@@UskinInfo@@@std@@@std@@@std@@@std@@@std@@QAE@ABV?$allocator@U?$pair@$$CBV?$basic_string@DU?$char_traits@D@std@@V?$allocator@D@2@@std@@UskinInfo@@@std@@@1@@Z 1004d940 f i Configuration.obj
 0001:0004c940       ??$?0U?$pair@$$CBV?$basic_string@DU?$char_traits@D@std@@V?$allocator@D@2@@std@@V?$set@V?$basic_string@DU?$char_traits@D@std@@V?$allocator@D@2@@std@@U?$less@V?$basic_string@DU?$char_traits@D@std@@V?$allocator@D@2@@std@@@2@V?$allocator@V?$basic_string@DU?$char_traits@D@std@@V?$allocator@D@2@@std@@@2@@2@@std@@@?$allocator@V?$_List_unchecked_iterator@V?$_List_val@U?$_List_simple_types@U?$pair@$$CBV?$basic_string@DU?$char_traits@D@std@@V?$allocator@D@2@@std@@V?$set@V?$basic_string@DU?$char_traits@D@std@@V?$allocator@D@2@@std@@U?$less@V?$basic_string@DU?$char_traits@D@std@@V?$allocator@D@2@@std@@@2@V?$allocator@V?$basic_string@DU?$char_traits@D@std@@V?$allocator@D@2@@std@@@2@@2@@std@@@std@@@std@@@std@@@std@@QAE@ABV?$allocator@U?$pair@$$CBV?$basic_string@DU?$char_traits@D@std@@V?$allocator@D@2@@std@@V?$set@V?$basic_string@DU?$char_traits@D@std@@V?$allocator@D@2@@std@@U?$less@V?$basic_string@DU?$char_traits@D@std@@V?$allocator@D@2@@std@@@2@V?$allocator@V?$basic_string@DU?$char_traits@D@std@@V?$allocator@D@2@@std@@@2@@2@@std@@@1@@Z 1004d940 f i Configuration.obj
 0001:0004c940       ??$?0U_Exact_args_t@std@@$0A@@?$tuple@$$V@std@@QAE@U_Exact_args_t@1@@Z 1004d940 f i Hooks.obj
 0001:0004c940       ??$?0U?$integral_constant@_N$00@std@@@_Unused_parameter@std@@QAE@$$QAU?$integral_constant@_N$00@1@@Z 1004d940 f i Parser.obj
 0001:0004c940       ??$?0U?$pair@$$CBV?$basic_string@DU?$char_traits@D@std@@V?$allocator@D@2@@std@@V12@@std@@@?$allocator@U?$_List_node@U?$pair@$$CBV?$basic_string@DU?$char_traits@D@std@@V?$allocator@D@2@@std@@V12@@std@@PAX@std@@@std@@QAE@ABV?$allocator@U?$pair@$$CBV?$basic_string@DU?$char_traits@D@std@@V?$allocator@D@2@@std@@V12@@std@@@1@@Z 1004d940 f i Configuration.obj
 0001:0004c940       ??0?$tuple@$$V@std@@QAE@ABV01@@Z 1004d940 f i Hooks.obj
 0001:0004c940       ??$?0U?$pair@$$CBV?$basic_string@DU?$char_traits@D@std@@V?$allocator@D@2@@std@@V?$set@V?$basic_string@DU?$char_traits@D@std@@V?$allocator@D@2@@std@@U?$less@V?$basic_string@DU?$char_traits@D@std@@V?$allocator@D@2@@std@@@2@V?$allocator@V?$basic_string@DU?$char_traits@D@std@@V?$allocator@D@2@@std@@@2@@2@@std@@@?$allocator@U?$_List_node@U?$pair@$$CBV?$basic_string@DU?$char_traits@D@std@@V?$allocator@D@2@@std@@V?$set@V?$basic_string@DU?$char_traits@D@std@@V?$allocator@D@2@@std@@U?$less@V?$basic_string@DU?$char_traits@D@std@@V?$allocator@D@2@@std@@@2@V?$allocator@V?$basic_string@DU?$char_traits@D@std@@V?$allocator@D@2@@std@@@2@@2@@std@@PAX@std@@@std@@QAE@ABV?$allocator@U?$pair@$$CBV?$basic_string@DU?$char_traits@D@std@@V?$allocator@D@2@@std@@V?$set@V?$basic_string@DU?$char_traits@D@std@@V?$allocator@D@2@@std@@U?$less@V?$basic_string@DU?$char_traits@D@std@@V?$allocator@D@2@@std@@@2@V?$allocator@V?$basic_string@DU?$char_traits@D@std@@V?$allocator@D@2@@std@@@2@@2@@std@@@1@@Z 1004d940 f i Configuration.obj
 0001:0004c940       ??4ITraceFilter@@QAEAAV0@$$QAV0@@Z 1004d940 f i Autowall.obj
 0001:0004c940       ??$?0U?$pair@$$CBV?$basic_string@DU?$char_traits@D@std@@V?$allocator@D@2@@std@@V12@@std@@@?$allocator@V?$_List_unchecked_iterator@V?$_List_val@U?$_List_simple_types@U?$pair@$$CBV?$basic_string@DU?$char_traits@D@std@@V?$allocator@D@2@@std@@V12@@std@@@std@@@std@@@std@@@std@@QAE@ABV?$allocator@U?$pair@$$CBV?$basic_string@DU?$char_traits@D@std@@V?$allocator@D@2@@std@@V12@@std@@@1@@Z 1004d940 f i Configuration.obj
 0001:0004c940       ??$?0V?$shared_ptr@VNode@valve_parser@@@std@@@?$allocator@U_Container_proxy@std@@@std@@QAE@ABV?$allocator@V?$shared_ptr@VNode@valve_parser@@@std@@@1@@Z 1004d940 f i Hooks.obj
 0001:0004c940       ??$?0U?$pair@QADPAD@std@@@?$allocator@V?$_List_unchecked_iterator@V?$_List_val@U?$_List_simple_types@U?$pair@QADPAD@std@@@std@@@std@@@std@@@std@@QAE@ABV?$allocator@U?$pair@QADPAD@std@@@1@@Z 1004d940 f i Hooks.obj
 0001:0004c940       ??$?0U?$pair@$$CBV?$basic_string@DU?$char_traits@D@std@@V?$allocator@D@2@@std@@UskinInfo@@@std@@@?$allocator@U?$_List_node@U?$pair@$$CBV?$basic_string@DU?$char_traits@D@std@@V?$allocator@D@2@@std@@UskinInfo@@@std@@PAX@std@@@std@@QAE@ABV?$allocator@U?$pair@$$CBV?$basic_string@DU?$char_traits@D@std@@V?$allocator@D@2@@std@@UskinInfo@@@std@@@1@@Z 1004d940 f i Configuration.obj
 0001:0004c940       ??$?0U?$pair@QADPAD@std@@@?$allocator@U?$_List_node@U?$pair@QADPAD@std@@PAX@std@@@std@@QAE@ABV?$allocator@U?$pair@QADPAD@std@@@1@@Z 1004d940 f i Hooks.obj
 0001:0004c950       ??$?0U_Exact_args_t@std@@ABV?$basic_string@DU?$char_traits@D@std@@V?$allocator@D@2@@1@$$V$0A@@?$tuple@ABV?$basic_string@DU?$char_traits@D@std@@V?$allocator@D@2@@std@@@std@@QAE@U_Exact_args_t@1@ABV?$basic_string@DU?$char_traits@D@std@@V?$allocator@D@2@@1@@Z 1004d950 f i Hooks.obj
 0001:0004c990       ??$?0V?$tuple@ABV?$basic_string@DU?$char_traits@D@std@@V?$allocator@D@2@@std@@@std@@V?$tuple@$$V@1@$0A@$$Z$S@?$pair@$$CBV?$basic_string@DU?$char_traits@D@std@@V?$allocator@D@2@@std@@UskinInfo@@@std@@QAE@AAV?$tuple@ABV?$basic_string@DU?$char_traits@D@std@@V?$allocator@D@2@@std@@@1@AAV?$tuple@$$V@1@U?$integer_sequence@I$0A@@1@U?$integer_sequence@I$S@1@@Z 1004d990 f i Hooks.obj
 0001:0004c9f0       ??$?0V?$tuple@ABV?$basic_string@DU?$char_traits@D@std@@V?$allocator@D@2@@std@@@std@@V?$tuple@$$V@1@$0A@$$Z$S@?$pair@$$CBV?$basic_string@DU?$char_traits@D@std@@V?$allocator@D@2@@std@@V12@@std@@QAE@AAV?$tuple@ABV?$basic_string@DU?$char_traits@D@std@@V?$allocator@D@2@@std@@@1@AAV?$tuple@$$V@1@U?$integer_sequence@I$0A@@1@U?$integer_sequence@I$S@1@@Z 1004d9f0 f i Hooks.obj
 0001:0004ca30       ??$?0V?$tuple@ABV?$basic_string@DU?$char_traits@D@std@@V?$allocator@D@2@@std@@@std@@V?$tuple@$$V@1@$0A@$$Z$S@?$pair@$$CBV?$basic_string@DU?$char_traits@D@std@@V?$allocator@D@2@@std@@V?$set@V?$basic_string@DU?$char_traits@D@std@@V?$allocator@D@2@@std@@U?$less@V?$basic_string@DU?$char_traits@D@std@@V?$allocator@D@2@@std@@@2@V?$allocator@V?$basic_string@DU?$char_traits@D@std@@V?$allocator@D@2@@std@@@2@@2@@std@@QAE@AAV?$tuple@ABV?$basic_string@DU?$char_traits@D@std@@V?$allocator@D@2@@std@@@1@AAV?$tuple@$$V@1@U?$integer_sequence@I$0A@@1@U?$integer_sequence@I$S@1@@Z 1004da30 f i Hooks.obj
 0001:0004caa0       ??$?8VNode@valve_parser@@@std@@YA_NABV?$shared_ptr@VNode@valve_parser@@@0@$$T@Z 1004daa0 f i Hooks.obj
 0001:0004cad0       ??$?9VNode@valve_parser@@@std@@YA_NABV?$shared_ptr@VNode@valve_parser@@@0@$$T@Z 1004dad0 f i Hooks.obj
 0001:0004cb00       ??$?MDU?$char_traits@D@std@@V?$allocator@D@1@@std@@YA_NABV?$basic_string@DU?$char_traits@D@std@@V?$allocator@D@2@@0@0@Z 1004db00 f i Hooks.obj
 0001:0004cb30       ??$GetVirtualFunction@P6EPAVCUserCmd@CInput@@PAXHH@Z@@YAP6EPAVCUserCmd@CInput@@PAXHH@Z0K@Z 1004db30 f i Hooks.obj
 0001:0004cb40       ??$_Buynode@ABUpiecewise_construct_t@std@@V?$tuple@ABV?$basic_string@DU?$char_traits@D@std@@V?$allocator@D@2@@std@@@2@V?$tuple@$$V@2@@?$_List_buy@U?$pair@$$CBV?$basic_string@DU?$char_traits@D@std@@V?$allocator@D@2@@std@@UskinInfo@@@std@@V?$allocator@U?$pair@$$CBV?$basic_string@DU?$char_traits@D@std@@V?$allocator@D@2@@std@@UskinInfo@@@std@@@2@@std@@QAEPAU?$_List_node@U?$pair@$$CBV?$basic_string@DU?$char_traits@D@std@@V?$allocator@D@2@@std@@UskinInfo@@@std@@PAX@1@PAU21@0ABUpiecewise_construct_t@1@$$QAV?$tuple@ABV?$basic_string@DU?$char_traits@D@std@@V?$allocator@D@2@@std@@@1@$$QAV?$tuple@$$V@1@@Z 1004db40 f i Hooks.obj
 0001:0004cc20       ??$_Buynode@ABUpiecewise_construct_t@std@@V?$tuple@ABV?$basic_string@DU?$char_traits@D@std@@V?$allocator@D@2@@std@@@2@V?$tuple@$$V@2@@?$_List_buy@U?$pair@$$CBV?$basic_string@DU?$char_traits@D@std@@V?$allocator@D@2@@std@@V12@@std@@V?$allocator@U?$pair@$$CBV?$basic_string@DU?$char_traits@D@std@@V?$allocator@D@2@@std@@V12@@std@@@2@@std@@QAEPAU?$_List_node@U?$pair@$$CBV?$basic_string@DU?$char_traits@D@std@@V?$allocator@D@2@@std@@V12@@std@@PAX@1@PAU21@0ABUpiecewise_construct_t@1@$$QAV?$tuple@ABV?$basic_string@DU?$char_traits@D@std@@V?$allocator@D@2@@std@@@1@$$QAV?$tuple@$$V@1@@Z 1004dc20 f i Hooks.obj
 0001:0004cd00       ??$_Buynode@ABUpiecewise_construct_t@std@@V?$tuple@ABV?$basic_string@DU?$char_traits@D@std@@V?$allocator@D@2@@std@@@2@V?$tuple@$$V@2@@?$_List_buy@U?$pair@$$CBV?$basic_string@DU?$char_traits@D@std@@V?$allocator@D@2@@std@@V?$set@V?$basic_string@DU?$char_traits@D@std@@V?$allocator@D@2@@std@@U?$less@V?$basic_string@DU?$char_traits@D@std@@V?$allocator@D@2@@std@@@2@V?$allocator@V?$basic_string@DU?$char_traits@D@std@@V?$allocator@D@2@@std@@@2@@2@@std@@V?$allocator@U?$pair@$$CBV?$basic_string@DU?$char_traits@D@std@@V?$allocator@D@2@@std@@V?$set@V?$basic_string@DU?$char_traits@D@std@@V?$allocator@D@2@@std@@U?$less@V?$basic_string@DU?$char_traits@D@std@@V?$allocator@D@2@@std@@@2@V?$allocator@V?$basic_string@DU?$char_traits@D@std@@V?$allocator@D@2@@std@@@2@@2@@std@@@2@@std@@QAEPAU?$_List_node@U?$pair@$$CBV?$basic_string@DU?$char_traits@D@std@@V?$allocator@D@2@@std@@V?$set@V?$basic_string@DU?$char_traits@D@std@@V?$allocator@D@2@@std@@U?$less@V?$basic_string@DU?$char_traits@D@std@@V?$allocator@D@2@@std@@@2@V?$allocator@V?$basic_string@DU?$char_traits@D@std@@V?$allocator@D@2@@std@@@2@@2@@std@@PAX@1@PAU21@0ABUpiecewise_construct_t@1@$$QAV?$tuple@ABV?$basic_string@DU?$char_traits@D@std@@V?$allocator@D@2@@std@@@1@$$QAV?$tuple@$$V@1@@Z 1004dd00 f i Hooks.obj
 0001:0004cde0       ??$_Buynode@V?$basic_string@DU?$char_traits@D@std@@V?$allocator@D@2@@std@@@?$_Tree_comp_alloc@V?$_Tset_traits@V?$basic_string@DU?$char_traits@D@std@@V?$allocator@D@2@@std@@U?$less@V?$basic_string@DU?$char_traits@D@std@@V?$allocator@D@2@@std@@@2@V?$allocator@V?$basic_string@DU?$char_traits@D@std@@V?$allocator@D@2@@std@@@2@$0A@@std@@@std@@QAEPAU?$_Tree_node@V?$basic_string@DU?$char_traits@D@std@@V?$allocator@D@2@@std@@PAX@1@$$QAV?$basic_string@DU?$char_traits@D@std@@V?$allocator@D@2@@1@@Z 1004dde0 f i Hooks.obj
 0001:0004cea0       ??$_Buynode_if_nil@AAU?$pair@$$CBV?$basic_string@DU?$char_traits@D@std@@V?$allocator@D@2@@std@@UskinInfo@@@std@@@?$_Hash@V?$_Umap_traits@V?$basic_string@DU?$char_traits@D@std@@V?$allocator@D@2@@std@@UskinInfo@@V?$_Uhash_compare@V?$basic_string@DU?$char_traits@D@std@@V?$allocator@D@2@@std@@U?$hash@V?$basic_string@DU?$char_traits@D@std@@V?$allocator@D@2@@std@@@2@U?$equal_to@V?$basic_string@DU?$char_traits@D@std@@V?$allocator@D@2@@std@@@2@@2@V?$allocator@U?$pair@$$CBV?$basic_string@DU?$char_traits@D@std@@V?$allocator@D@2@@std@@UskinInfo@@@std@@@2@$0A@@std@@@std@@IAE?AV?$_List_unchecked_iterator@V?$_List_val@U?$_List_simple_types@U?$pair@$$CBV?$basic_string@DU?$char_traits@D@std@@V?$allocator@D@2@@std@@UskinInfo@@@std@@@std@@@std@@@1@AAU?$pair@$$CBV?$basic_string@DU?$char_traits@D@std@@V?$allocator@D@2@@std@@UskinInfo@@@1@V21@@Z 1004dea0 f i Hooks.obj
 0001:0004cea0       ??$_Buynode_if_nil@AAU?$pair@$$CBV?$basic_string@DU?$char_traits@D@std@@V?$allocator@D@2@@std@@V12@@std@@@?$_Hash@V?$_Umap_traits@V?$basic_string@DU?$char_traits@D@std@@V?$allocator@D@2@@std@@V12@V?$_Uhash_compare@V?$basic_string@DU?$char_traits@D@std@@V?$allocator@D@2@@std@@U?$hash@V?$basic_string@DU?$char_traits@D@std@@V?$allocator@D@2@@std@@@2@U?$equal_to@V?$basic_string@DU?$char_traits@D@std@@V?$allocator@D@2@@std@@@2@@2@V?$allocator@U?$pair@$$CBV?$basic_string@DU?$char_traits@D@std@@V?$allocator@D@2@@std@@V12@@std@@@2@$0A@@std@@@std@@IAE?AV?$_List_unchecked_iterator@V?$_List_val@U?$_List_simple_types@U?$pair@$$CBV?$basic_string@DU?$char_traits@D@std@@V?$allocator@D@2@@std@@V12@@std@@@std@@@std@@@1@AAU?$pair@$$CBV?$basic_string@DU?$char_traits@D@std@@V?$allocator@D@2@@std@@V12@@1@V21@@Z 1004dea0 f i Hooks.obj
 0001:0004cea0       ??$_Buynode_if_nil@AAU?$pair@$$CBV?$basic_string@DU?$char_traits@D@std@@V?$allocator@D@2@@std@@V?$set@V?$basic_string@DU?$char_traits@D@std@@V?$allocator@D@2@@std@@U?$less@V?$basic_string@DU?$char_traits@D@std@@V?$allocator@D@2@@std@@@2@V?$allocator@V?$basic_string@DU?$char_traits@D@std@@V?$allocator@D@2@@std@@@2@@2@@std@@@?$_Hash@V?$_Umap_traits@V?$basic_string@DU?$char_traits@D@std@@V?$allocator@D@2@@std@@V?$set@V?$basic_string@DU?$char_traits@D@std@@V?$allocator@D@2@@std@@U?$less@V?$basic_string@DU?$char_traits@D@std@@V?$allocator@D@2@@std@@@2@V?$allocator@V?$basic_string@DU?$char_traits@D@std@@V?$allocator@D@2@@std@@@2@@2@V?$_Uhash_compare@V?$basic_string@DU?$char_traits@D@std@@V?$allocator@D@2@@std@@U?$hash@V?$basic_string@DU?$char_traits@D@std@@V?$allocator@D@2@@std@@@2@U?$equal_to@V?$basic_string@DU?$char_traits@D@std@@V?$allocator@D@2@@std@@@2@@2@V?$allocator@U?$pair@$$CBV?$basic_string@DU?$char_traits@D@std@@V?$allocator@D@2@@std@@V?$set@V?$basic_string@DU?$char_traits@D@std@@V?$allocator@D@2@@std@@U?$less@V?$basic_string@DU?$char_traits@D@std@@V?$allocator@D@2@@std@@@2@V?$allocator@V?$basic_string@DU?$char_traits@D@std@@V?$allocator@D@2@@std@@@2@@2@@std@@@2@$0A@@std@@@std@@IAE?AV?$_List_unchecked_iterator@V?$_List_val@U?$_List_simple_types@U?$pair@$$CBV?$basic_string@DU?$char_traits@D@std@@V?$allocator@D@2@@std@@V?$set@V?$basic_string@DU?$char_traits@D@std@@V?$allocator@D@2@@std@@U?$less@V?$basic_string@DU?$char_traits@D@std@@V?$allocator@D@2@@std@@@2@V?$allocator@V?$basic_string@DU?$char_traits@D@std@@V?$allocator@D@2@@std@@@2@@2@@std@@@std@@@std@@@1@AAU?$pair@$$CBV?$basic_string@DU?$char_traits@D@std@@V?$allocator@D@2@@std@@V?$set@V?$basic_string@DU?$char_traits@D@std@@V?$allocator@D@2@@std@@U?$less@V?$basic_string@DU?$char_traits@D@std@@V?$allocator@D@2@@std@@@2@V?$allocator@V?$basic_string@DU?$char_traits@D@std@@V?$allocator@D@2@@std@@@2@@2@@1@V21@@Z 1004dea0 f i Hooks.obj
 0001:0004cec0       ??$_Buynode_if_nil@V?$basic_string@DU?$char_traits@D@std@@V?$allocator@D@2@@std@@@?$_Tree@V?$_Tset_traits@V?$basic_string@DU?$char_traits@D@std@@V?$allocator@D@2@@std@@U?$less@V?$basic_string@DU?$char_traits@D@std@@V?$allocator@D@2@@std@@@2@V?$allocator@V?$basic_string@DU?$char_traits@D@std@@V?$allocator@D@2@@std@@@2@$0A@@std@@@std@@IAEPAU?$_Tree_node@V?$basic_string@DU?$char_traits@D@std@@V?$allocator@D@2@@std@@PAX@1@U_Nil@1@$$QAV?$basic_string@DU?$char_traits@D@std@@V?$allocator@D@2@@1@@Z 1004dec0 f i Hooks.obj
 0001:0004cef0       ??$_Deallocate_plain@V?$allocator@U_Container_proxy@std@@@std@@$0A@@std@@YAXAAV?$allocator@U_Container_proxy@std@@@0@QAU_Container_proxy@0@@Z 1004def0 f i Hooks.obj
 0001:0004cf10       ??$_Distance1@PBV?$basic_string@DU?$char_traits@D@std@@V?$allocator@D@2@@std@@@std@@YAHPBV?$basic_string@DU?$char_traits@D@std@@V?$allocator@D@2@@0@0Urandom_access_iterator_tag@0@@Z 1004df10 f i Hooks.obj
 0001:0004cf30       ??$_Hash_array_representation@D@std@@YAIQBDI@Z 1004df30 f i Hooks.obj
 0001:0004cf50       ??$_Insert@AAU?$pair@$$CBV?$basic_string@DU?$char_traits@D@std@@V?$allocator@D@2@@std@@UskinInfo@@@std@@V?$_List_unchecked_iterator@V?$_List_val@U?$_List_simple_types@U?$pair@$$CBV?$basic_string@DU?$char_traits@D@std@@V?$allocator@D@2@@std@@UskinInfo@@@std@@@std@@@std@@@2@@?$_Hash@V?$_Umap_traits@V?$basic_string@DU?$char_traits@D@std@@V?$allocator@D@2@@std@@UskinInfo@@V?$_Uhash_compare@V?$basic_string@DU?$char_traits@D@std@@V?$allocator@D@2@@std@@U?$hash@V?$basic_string@DU?$char_traits@D@std@@V?$allocator@D@2@@std@@@2@U?$equal_to@V?$basic_string@DU?$char_traits@D@std@@V?$allocator@D@2@@std@@@2@@2@V?$allocator@U?$pair@$$CBV?$basic_string@DU?$char_traits@D@std@@V?$allocator@D@2@@std@@UskinInfo@@@std@@@2@$0A@@std@@@std@@IAE?AU?$pair@V?$_List_iterator@V?$_List_val@U?$_List_simple_types@U?$pair@$$CBV?$basic_string@DU?$char_traits@D@std@@V?$allocator@D@2@@std@@UskinInfo@@@std@@@std@@@std@@@std@@_N@1@AAU?$pair@$$CBV?$basic_string@DU?$char_traits@D@std@@V?$allocator@D@2@@std@@UskinInfo@@@1@V?$_List_unchecked_iterator@V?$_List_val@U?$_List_simple_types@U?$pair@$$CBV?$basic_string@DU?$char_traits@D@std@@V?$allocator@D@2@@std@@UskinInfo@@@std@@@std@@@std@@@1@@Z 1004df50 f i Hooks.obj
 0001:0004d1d0       ??$_Insert@AAU?$pair@$$CBV?$basic_string@DU?$char_traits@D@std@@V?$allocator@D@2@@std@@V12@@std@@V?$_List_unchecked_iterator@V?$_List_val@U?$_List_simple_types@U?$pair@$$CBV?$basic_string@DU?$char_traits@D@std@@V?$allocator@D@2@@std@@V12@@std@@@std@@@std@@@2@@?$_Hash@V?$_Umap_traits@V?$basic_string@DU?$char_traits@D@std@@V?$allocator@D@2@@std@@V12@V?$_Uhash_compare@V?$basic_string@DU?$char_traits@D@std@@V?$allocator@D@2@@std@@U?$hash@V?$basic_string@DU?$char_traits@D@std@@V?$allocator@D@2@@std@@@2@U?$equal_to@V?$basic_string@DU?$char_traits@D@std@@V?$allocator@D@2@@std@@@2@@2@V?$allocator@U?$pair@$$CBV?$basic_string@DU?$char_traits@D@std@@V?$allocator@D@2@@std@@V12@@std@@@2@$0A@@std@@@std@@IAE?AU?$pair@V?$_List_iterator@V?$_List_val@U?$_List_simple_types@U?$pair@$$CBV?$basic_string@DU?$char_traits@D@std@@V?$allocator@D@2@@std@@V12@@std@@@std@@@std@@@std@@_N@1@AAU?$pair@$$CBV?$basic_string@DU?$char_traits@D@std@@V?$allocator@D@2@@std@@V12@@1@V?$_List_unchecked_iterator@V?$_List_val@U?$_List_simple_types@U?$pair@$$CBV?$basic_string@DU?$char_traits@D@std@@V?$allocator@D@2@@std@@V12@@std@@@std@@@std@@@1@@Z 1004e1d0 f i Hooks.obj
 0001:0004d450       ??$_Insert@AAU?$pair@$$CBV?$basic_string@DU?$char_traits@D@std@@V?$allocator@D@2@@std@@V?$set@V?$basic_string@DU?$char_traits@D@std@@V?$allocator@D@2@@std@@U?$less@V?$basic_string@DU?$char_traits@D@std@@V?$allocator@D@2@@std@@@2@V?$allocator@V?$basic_string@DU?$char_traits@D@std@@V?$allocator@D@2@@std@@@2@@2@@std@@V?$_List_unchecked_iterator@V?$_List_val@U?$_List_simple_types@U?$pair@$$CBV?$basic_string@DU?$char_traits@D@std@@V?$allocator@D@2@@std@@V?$set@V?$basic_string@DU?$char_traits@D@std@@V?$allocator@D@2@@std@@U?$less@V?$basic_string@DU?$char_traits@D@std@@V?$allocator@D@2@@std@@@2@V?$allocator@V?$basic_string@DU?$char_traits@D@std@@V?$allocator@D@2@@std@@@2@@2@@std@@@std@@@std@@@2@@?$_Hash@V?$_Umap_traits@V?$basic_string@DU?$char_traits@D@std@@V?$allocator@D@2@@std@@V?$set@V?$basic_string@DU?$char_traits@D@std@@V?$allocator@D@2@@std@@U?$less@V?$basic_string@DU?$char_traits@D@std@@V?$allocator@D@2@@std@@@2@V?$allocator@V?$basic_string@DU?$char_traits@D@std@@V?$allocator@D@2@@std@@@2@@2@V?$_Uhash_compare@V?$basic_string@DU?$char_traits@D@std@@V?$allocator@D@2@@std@@U?$hash@V?$basic_string@DU?$char_traits@D@std@@V?$allocator@D@2@@std@@@2@U?$equal_to@V?$basic_string@DU?$char_traits@D@std@@V?$allocator@D@2@@std@@@2@@2@V?$allocator@U?$pair@$$CBV?$basic_string@DU?$char_traits@D@std@@V?$allocator@D@2@@std@@V?$set@V?$basic_string@DU?$char_traits@D@std@@V?$allocator@D@2@@std@@U?$less@V?$basic_string@DU?$char_traits@D@std@@V?$allocator@D@2@@std@@@2@V?$allocator@V?$basic_string@DU?$char_traits@D@std@@V?$allocator@D@2@@std@@@2@@2@@std@@@2@$0A@@std@@@std@@IAE?AU?$pair@V?$_List_iterator@V?$_List_val@U?$_List_simple_types@U?$pair@$$CBV?$basic_string@DU?$char_traits@D@std@@V?$allocator@D@2@@std@@V?$set@V?$basic_string@DU?$char_traits@D@std@@V?$allocator@D@2@@std@@U?$less@V?$basic_string@DU?$char_traits@D@std@@V?$allocator@D@2@@std@@@2@V?$allocator@V?$basic_string@DU?$char_traits@D@std@@V?$allocator@D@2@@std@@@2@@2@@std@@@std@@@std@@@std@@_N@1@AAU?$pair@$$CBV?$basic_string@DU?$char_traits@D@std@@V?$allocator@D@2@@std@@V?$set@V?$basic_string@DU?$char_traits@D@std@@V?$allocator@D@2@@std@@U?$less@V?$basic_string@DU?$char_traits@D@std@@V?$allocator@D@2@@std@@@2@V?$allocator@V?$basic_string@DU?$char_traits@D@std@@V?$allocator@D@2@@std@@@2@@2@@1@V?$_List_unchecked_iterator@V?$_List_val@U?$_List_simple_types@U?$pair@$$CBV?$basic_string@DU?$char_traits@D@std@@V?$allocator@D@2@@std@@V?$set@V?$basic_string@DU?$char_traits@D@std@@V?$allocator@D@2@@std@@U?$less@V?$basic_string@DU?$char_traits@D@std@@V?$allocator@D@2@@std@@@2@V?$allocator@V?$basic_string@DU?$char_traits@D@std@@V?$allocator@D@2@@std@@@2@@2@@std@@@std@@@std@@@1@@Z 1004e450 f i Hooks.obj
 0001:0004d6d0       ??$_Insert@ABUpiecewise_construct_t@std@@V?$tuple@ABV?$basic_string@DU?$char_traits@D@std@@V?$allocator@D@2@@std@@@2@V?$tuple@$$V@2@@?$list@U?$pair@$$CBV?$basic_string@DU?$char_traits@D@std@@V?$allocator@D@2@@std@@UskinInfo@@@std@@V?$allocator@U?$pair@$$CBV?$basic_string@DU?$char_traits@D@std@@V?$allocator@D@2@@std@@UskinInfo@@@std@@@2@@std@@QAEXV?$_List_unchecked_const_iterator@V?$_List_val@U?$_List_simple_types@U?$pair@$$CBV?$basic_string@DU?$char_traits@D@std@@V?$allocator@D@2@@std@@UskinInfo@@@std@@@std@@@std@@U_Iterator_base0@2@@1@ABUpiecewise_construct_t@1@$$QAV?$tuple@ABV?$basic_string@DU?$char_traits@D@std@@V?$allocator@D@2@@std@@@1@$$QAV?$tuple@$$V@1@@Z 1004e6d0 f i Hooks.obj
 0001:0004d750       ??$_Insert@ABUpiecewise_construct_t@std@@V?$tuple@ABV?$basic_string@DU?$char_traits@D@std@@V?$allocator@D@2@@std@@@2@V?$tuple@$$V@2@@?$list@U?$pair@$$CBV?$basic_string@DU?$char_traits@D@std@@V?$allocator@D@2@@std@@V12@@std@@V?$allocator@U?$pair@$$CBV?$basic_string@DU?$char_traits@D@std@@V?$allocator@D@2@@std@@V12@@std@@@2@@std@@QAEXV?$_List_unchecked_const_iterator@V?$_List_val@U?$_List_simple_types@U?$pair@$$CBV?$basic_string@DU?$char_traits@D@std@@V?$allocator@D@2@@std@@V12@@std@@@std@@@std@@U_Iterator_base0@2@@1@ABUpiecewise_construct_t@1@$$QAV?$tuple@ABV?$basic_string@DU?$char_traits@D@std@@V?$allocator@D@2@@std@@@1@$$QAV?$tuple@$$V@1@@Z 1004e750 f i Hooks.obj
 0001:0004d7d0       ??$_Insert@ABUpiecewise_construct_t@std@@V?$tuple@ABV?$basic_string@DU?$char_traits@D@std@@V?$allocator@D@2@@std@@@2@V?$tuple@$$V@2@@?$list@U?$pair@$$CBV?$basic_string@DU?$char_traits@D@std@@V?$allocator@D@2@@std@@V?$set@V?$basic_string@DU?$char_traits@D@std@@V?$allocator@D@2@@std@@U?$less@V?$basic_string@DU?$char_traits@D@std@@V?$allocator@D@2@@std@@@2@V?$allocator@V?$basic_string@DU?$char_traits@D@std@@V?$allocator@D@2@@std@@@2@@2@@std@@V?$allocator@U?$pair@$$CBV?$basic_string@DU?$char_traits@D@std@@V?$allocator@D@2@@std@@V?$set@V?$basic_string@DU?$char_traits@D@std@@V?$allocator@D@2@@std@@U?$less@V?$basic_string@DU?$char_traits@D@std@@V?$allocator@D@2@@std@@@2@V?$allocator@V?$basic_string@DU?$char_traits@D@std@@V?$allocator@D@2@@std@@@2@@2@@std@@@2@@std@@QAEXV?$_List_unchecked_const_iterator@V?$_List_val@U?$_List_simple_types@U?$pair@$$CBV?$basic_string@DU?$char_traits@D@std@@V?$allocator@D@2@@std@@V?$set@V?$basic_string@DU?$char_traits@D@std@@V?$allocator@D@2@@std@@U?$less@V?$basic_string@DU?$char_traits@D@std@@V?$allocator@D@2@@std@@@2@V?$allocator@V?$basic_string@DU?$char_traits@D@std@@V?$allocator@D@2@@std@@@2@@2@@std@@@std@@@std@@U_Iterator_base0@2@@1@ABUpiecewise_construct_t@1@$$QAV?$tuple@ABV?$basic_string@DU?$char_traits@D@std@@V?$allocator@D@2@@std@@@1@$$QAV?$tuple@$$V@1@@Z 1004e7d0 f i Hooks.obj
 0001:0004d850       ??$_Insert_at@V?$basic_string@DU?$char_traits@D@std@@V?$allocator@D@2@@std@@U_Nil@2@@?$_Tree@V?$_Tset_traits@V?$basic_string@DU?$char_traits@D@std@@V?$allocator@D@2@@std@@U?$less@V?$basic_string@DU?$char_traits@D@std@@V?$allocator@D@2@@std@@@2@V?$allocator@V?$basic_string@DU?$char_traits@D@std@@V?$allocator@D@2@@std@@@2@$0A@@std@@@std@@IAE?AV?$_Tree_const_iterator@V?$_Tree_val@U?$_Tree_simple_types@V?$basic_string@DU?$char_traits@D@std@@V?$allocator@D@2@@std@@@std@@@std@@@1@_NPAU?$_Tree_node@V?$basic_string@DU?$char_traits@D@std@@V?$allocator@D@2@@std@@PAX@1@$$QAV?$basic_string@DU?$char_traits@D@std@@V?$allocator@D@2@@1@U_Nil@1@@Z 1004e850 f i Hooks.obj
 0001:0004daf0       ??$_Insert_nohint@V?$basic_string@DU?$char_traits@D@std@@V?$allocator@D@2@@std@@U_Nil@2@@?$_Tree@V?$_Tset_traits@V?$basic_string@DU?$char_traits@D@std@@V?$allocator@D@2@@std@@U?$less@V?$basic_string@DU?$char_traits@D@std@@V?$allocator@D@2@@std@@@2@V?$allocator@V?$basic_string@DU?$char_traits@D@std@@V?$allocator@D@2@@std@@@2@$0A@@std@@@std@@IAE?AU?$pair@V?$_Tree_const_iterator@V?$_Tree_val@U?$_Tree_simple_types@V?$basic_string@DU?$char_traits@D@std@@V?$allocator@D@2@@std@@@std@@@std@@@std@@_N@1@_N$$QAV?$basic_string@DU?$char_traits@D@std@@V?$allocator@D@2@@1@U_Nil@1@@Z 1004eaf0 f i Hooks.obj
 0001:0004de00       ??$_Range_construct_or_tidy@PBV?$basic_string@DU?$char_traits@D@std@@V?$allocator@D@2@@std@@@?$vector@V?$basic_string@DU?$char_traits@D@std@@V?$allocator@D@2@@std@@V?$allocator@V?$basic_string@DU?$char_traits@D@std@@V?$allocator@D@2@@std@@@2@@std@@AAEXPBV?$basic_string@DU?$char_traits@D@std@@V?$allocator@D@2@@1@0Uforward_iterator_tag@1@@Z 1004ee00 f i Hooks.obj
 0001:0004dec0       ??$_Traits_compare@U?$char_traits@D@std@@@std@@YAHQBDI0I@Z 1004eec0 f i Hooks.obj
 0001:0004df20       ??$_Traits_find@U?$char_traits@D@std@@@std@@YAIQBDII0I@Z 1004ef20 f i Hooks.obj
 0001:0004dfc0       ??$_Traits_rfind_ch@U?$char_traits@D@std@@@std@@YAIQBDIID@Z 1004efc0 f i Hooks.obj
 0001:0004e030       ??$_Transform_no_deprecate@V?$_String_iterator@V?$_String_val@U?$_Simple_types@D@std@@@std@@@std@@V12@P6AGG@Z@std@@YA?AV?$_String_iterator@V?$_String_val@U?$_Simple_types@D@std@@@std@@@0@V10@00AAP6AGG@Z@Z 1004f030 f i Hooks.obj
 0001:0004e0e0       ??$_Transform_no_deprecate@V?$_String_iterator@V?$_String_val@U?$_Simple_types@D@std@@@std@@@std@@V12@P6AHH@Z@std@@YA?AV?$_String_iterator@V?$_String_val@U?$_Simple_types@D@std@@@std@@@0@V10@00AAP6AHH@Z@Z 1004f0e0 f i Hooks.obj
 0001:0004e180       ??$_Try_emplace@ABV?$basic_string@DU?$char_traits@D@std@@V?$allocator@D@2@@std@@$$V@?$unordered_map@V?$basic_string@DU?$char_traits@D@std@@V?$allocator@D@2@@std@@UskinInfo@@U?$hash@V?$basic_string@DU?$char_traits@D@std@@V?$allocator@D@2@@std@@@2@U?$equal_to@V?$basic_string@DU?$char_traits@D@std@@V?$allocator@D@2@@std@@@2@V?$allocator@U?$pair@$$CBV?$basic_string@DU?$char_traits@D@std@@V?$allocator@D@2@@std@@UskinInfo@@@std@@@2@@std@@QAE?AU?$pair@V?$_List_iterator@V?$_List_val@U?$_List_simple_types@U?$pair@$$CBV?$basic_string@DU?$char_traits@D@std@@V?$allocator@D@2@@std@@UskinInfo@@@std@@@std@@@std@@@std@@_N@1@ABV?$basic_string@DU?$char_traits@D@std@@V?$allocator@D@2@@1@@Z 1004f180 f i Hooks.obj
 0001:0004e220       ??$_Try_emplace@ABV?$basic_string@DU?$char_traits@D@std@@V?$allocator@D@2@@std@@$$V@?$unordered_map@V?$basic_string@DU?$char_traits@D@std@@V?$allocator@D@2@@std@@V12@U?$hash@V?$basic_string@DU?$char_traits@D@std@@V?$allocator@D@2@@std@@@2@U?$equal_to@V?$basic_string@DU?$char_traits@D@std@@V?$allocator@D@2@@std@@@2@V?$allocator@U?$pair@$$CBV?$basic_string@DU?$char_traits@D@std@@V?$allocator@D@2@@std@@V12@@std@@@2@@std@@QAE?AU?$pair@V?$_List_iterator@V?$_List_val@U?$_List_simple_types@U?$pair@$$CBV?$basic_string@DU?$char_traits@D@std@@V?$allocator@D@2@@std@@V12@@std@@@std@@@std@@@std@@_N@1@ABV?$basic_string@DU?$char_traits@D@std@@V?$allocator@D@2@@1@@Z 1004f220 f i Hooks.obj
 0001:0004e2c0       ??$_Try_emplace@ABV?$basic_string@DU?$char_traits@D@std@@V?$allocator@D@2@@std@@$$V@?$unordered_map@V?$basic_string@DU?$char_traits@D@std@@V?$allocator@D@2@@std@@V?$set@V?$basic_string@DU?$char_traits@D@std@@V?$allocator@D@2@@std@@U?$less@V?$basic_string@DU?$char_traits@D@std@@V?$allocator@D@2@@std@@@2@V?$allocator@V?$basic_string@DU?$char_traits@D@std@@V?$allocator@D@2@@std@@@2@@2@U?$hash@V?$basic_string@DU?$char_traits@D@std@@V?$allocator@D@2@@std@@@2@U?$equal_to@V?$basic_string@DU?$char_traits@D@std@@V?$allocator@D@2@@std@@@2@V?$allocator@U?$pair@$$CBV?$basic_string@DU?$char_traits@D@std@@V?$allocator@D@2@@std@@V?$set@V?$basic_string@DU?$char_traits@D@std@@V?$allocator@D@2@@std@@U?$less@V?$basic_string@DU?$char_traits@D@std@@V?$allocator@D@2@@std@@@2@V?$allocator@V?$basic_string@DU?$char_traits@D@std@@V?$allocator@D@2@@std@@@2@@2@@std@@@2@@std@@QAE?AU?$pair@V?$_List_iterator@V?$_List_val@U?$_List_simple_types@U?$pair@$$CBV?$basic_string@DU?$char_traits@D@std@@V?$allocator@D@2@@std@@V?$set@V?$basic_string@DU?$char_traits@D@std@@V?$allocator@D@2@@std@@U?$less@V?$basic_string@DU?$char_traits@D@std@@V?$allocator@D@2@@std@@@2@V?$allocator@V?$basic_string@DU?$char_traits@D@std@@V?$allocator@D@2@@std@@@2@@2@@std@@@std@@@std@@@std@@_N@1@ABV?$basic_string@DU?$char_traits@D@std@@V?$allocator@D@2@@1@@Z 1004f2c0 f i Hooks.obj
 0001:0004e360       ??$_Ucopy@PBV?$basic_string@DU?$char_traits@D@std@@V?$allocator@D@2@@std@@@?$vector@V?$basic_string@DU?$char_traits@D@std@@V?$allocator@D@2@@std@@V?$allocator@V?$basic_string@DU?$char_traits@D@std@@V?$allocator@D@2@@std@@@2@@std@@AAEPAV?$basic_string@DU?$char_traits@D@std@@V?$allocator@D@2@@1@PBV21@0PAV21@@Z 1004f360 f i Hooks.obj
 0001:0004e390       ??$_Unchecked@V?$_List_val@U?$_List_simple_types@U?$pair@$$CBV?$basic_string@DU?$char_traits@D@std@@V?$allocator@D@2@@std@@UskinInfo@@@std@@@std@@@std@@@std@@YA?AV?$_List_unchecked_iterator@V?$_List_val@U?$_List_simple_types@U?$pair@$$CBV?$basic_string@DU?$char_traits@D@std@@V?$allocator@D@2@@std@@UskinInfo@@@std@@@std@@@std@@@0@ABV?$_List_iterator@V?$_List_val@U?$_List_simple_types@U?$pair@$$CBV?$basic_string@DU?$char_traits@D@std@@V?$allocator@D@2@@std@@UskinInfo@@@std@@@std@@@std@@@0@@Z 1004f390 f i Hooks.obj
 0001:0004e390       ??$_Unchecked@V?$_List_val@U?$_List_simple_types@U?$pair@$$CBV?$basic_string@DU?$char_traits@D@std@@V?$allocator@D@2@@std@@V12@@std@@@std@@@std@@@std@@YA?AV?$_List_unchecked_iterator@V?$_List_val@U?$_List_simple_types@U?$pair@$$CBV?$basic_string@DU?$char_traits@D@std@@V?$allocator@D@2@@std@@V12@@std@@@std@@@std@@@0@ABV?$_List_iterator@V?$_List_val@U?$_List_simple_types@U?$pair@$$CBV?$basic_string@DU?$char_traits@D@std@@V?$allocator@D@2@@std@@V12@@std@@@std@@@std@@@0@@Z 1004f390 f i Hooks.obj
 0001:0004e390       ??$_Unchecked@V?$_List_val@U?$_List_simple_types@U?$pair@$$CBV?$basic_string@DU?$char_traits@D@std@@V?$allocator@D@2@@std@@V?$set@V?$basic_string@DU?$char_traits@D@std@@V?$allocator@D@2@@std@@U?$less@V?$basic_string@DU?$char_traits@D@std@@V?$allocator@D@2@@std@@@2@V?$allocator@V?$basic_string@DU?$char_traits@D@std@@V?$allocator@D@2@@std@@@2@@2@@std@@@std@@@std@@@std@@YA?AV?$_List_unchecked_iterator@V?$_List_val@U?$_List_simple_types@U?$pair@$$CBV?$basic_string@DU?$char_traits@D@std@@V?$allocator@D@2@@std@@V?$set@V?$basic_string@DU?$char_traits@D@std@@V?$allocator@D@2@@std@@U?$less@V?$basic_string@DU?$char_traits@D@std@@V?$allocator@D@2@@std@@@2@V?$allocator@V?$basic_string@DU?$char_traits@D@std@@V?$allocator@D@2@@std@@@2@@2@@std@@@std@@@std@@@0@ABV?$_List_iterator@V?$_List_val@U?$_List_simple_types@U?$pair@$$CBV?$basic_string@DU?$char_traits@D@std@@V?$allocator@D@2@@std@@V?$set@V?$basic_string@DU?$char_traits@D@std@@V?$allocator@D@2@@std@@U?$less@V?$basic_string@DU?$char_traits@D@std@@V?$allocator@D@2@@std@@@2@V?$allocator@V?$basic_string@DU?$char_traits@D@std@@V?$allocator@D@2@@std@@@2@@2@@std@@@std@@@std@@@0@@Z 1004f390 f i Hooks.obj
 0001:0004e3b0       ??$get@$0A@ABV?$basic_string@DU?$char_traits@D@std@@V?$allocator@D@2@@std@@@std@@YAABV?$basic_string@DU?$char_traits@D@std@@V?$allocator@D@2@@0@$$QAV?$tuple@ABV?$basic_string@DU?$char_traits@D@std@@V?$allocator@D@2@@std@@@0@@Z 1004f3b0 f i Hooks.obj
 0001:0004e3b0       ??$_Unchecked@V?$_String_val@U?$_Simple_types@D@std@@@std@@@std@@YAPADABV?$_String_iterator@V?$_String_val@U?$_Simple_types@D@std@@@std@@@0@@Z 1004f3b0 f i Hooks.obj
 0001:0004e3d0       ??$_Unchecked_n@V?$_String_iterator@V?$_String_val@U?$_Simple_types@D@std@@@std@@@std@@U_Distance_unknown@2@@std@@YAPADV?$_String_iterator@V?$_String_val@U?$_Simple_types@D@std@@@std@@@0@U_Distance_unknown@0@@Z 1004f3d0 f i Hooks.obj
 0001:0004e3f0       ??$_Uninitialized_copy@PBV?$basic_string@DU?$char_traits@D@std@@V?$allocator@D@2@@std@@PAV12@V?$allocator@V?$basic_string@DU?$char_traits@D@std@@V?$allocator@D@2@@std@@@2@@std@@YAPAV?$basic_string@DU?$char_traits@D@std@@V?$allocator@D@2@@0@PBV10@0PAV10@AAV?$allocator@V?$basic_string@DU?$char_traits@D@std@@V?$allocator@D@2@@std@@@0@@Z 1004f3f0 f i Hooks.obj
 0001:0004e480       ??$_Uninitialized_copy_al_unchecked@PBV?$basic_string@DU?$char_traits@D@std@@V?$allocator@D@2@@std@@PAV12@V?$allocator@V?$basic_string@DU?$char_traits@D@std@@V?$allocator@D@2@@std@@@2@@std@@YAPAV?$basic_string@DU?$char_traits@D@std@@V?$allocator@D@2@@0@PBV10@0PAV10@AAV?$allocator@V?$basic_string@DU?$char_traits@D@std@@V?$allocator@D@2@@std@@@0@U_General_ptr_iterator_tag@0@U_Unused_parameter@0@@Z 1004f480 f i Hooks.obj
 0001:0004e540       ??$_Uninitialized_value_construct_n1@PAPAV?$shared_ptr@VNode@valve_parser@@@std@@IV?$allocator@PAV?$shared_ptr@VNode@valve_parser@@@std@@@2@@std@@YAPAPAV?$shared_ptr@VNode@valve_parser@@@0@PAPAV10@IAAV?$allocator@PAV?$shared_ptr@VNode@valve_parser@@@std@@@0@U?$integral_constant@_N$00@0@@Z 1004f540 f i Hooks.obj
 0001:0004e560       ??$_Uninitialized_value_construct_n@PAPAV?$shared_ptr@VNode@valve_parser@@@std@@IV?$allocator@PAV?$shared_ptr@VNode@valve_parser@@@std@@@2@@std@@YAPAPAV?$shared_ptr@VNode@valve_parser@@@0@PAPAV10@IAAV?$allocator@PAV?$shared_ptr@VNode@valve_parser@@@std@@@0@@Z 1004f560 f i Hooks.obj
 0001:0004e590       ??$_Zero_range@PAPAV?$shared_ptr@VNode@valve_parser@@@std@@@std@@YAPAPAV?$shared_ptr@VNode@valve_parser@@@0@PAPAV10@0@Z 1004f590 f i Hooks.obj
 0001:0004e5c0       ??$construct@U?$pair@$$CBV?$basic_string@DU?$char_traits@D@std@@V?$allocator@D@2@@std@@UskinInfo@@@std@@ABUpiecewise_construct_t@2@V?$tuple@ABV?$basic_string@DU?$char_traits@D@std@@V?$allocator@D@2@@std@@@2@V?$tuple@$$V@2@@?$_Default_allocator_traits@V?$allocator@U?$_List_node@U?$pair@$$CBV?$basic_string@DU?$char_traits@D@std@@V?$allocator@D@2@@std@@UskinInfo@@@std@@PAX@std@@@std@@@std@@SAXAAV?$allocator@U?$_List_node@U?$pair@$$CBV?$basic_string@DU?$char_traits@D@std@@V?$allocator@D@2@@std@@UskinInfo@@@std@@PAX@std@@@1@QAU?$pair@$$CBV?$basic_string@DU?$char_traits@D@std@@V?$allocator@D@2@@std@@UskinInfo@@@1@ABUpiecewise_construct_t@1@$$QAV?$tuple@ABV?$basic_string@DU?$char_traits@D@std@@V?$allocator@D@2@@std@@@1@$$QAV?$tuple@$$V@1@@Z 1004f5c0 f i Hooks.obj
 0001:0004e660       ??$construct@U?$pair@$$CBV?$basic_string@DU?$char_traits@D@std@@V?$allocator@D@2@@std@@V12@@std@@ABUpiecewise_construct_t@2@V?$tuple@ABV?$basic_string@DU?$char_traits@D@std@@V?$allocator@D@2@@std@@@2@V?$tuple@$$V@2@@?$_Default_allocator_traits@V?$allocator@U?$_List_node@U?$pair@$$CBV?$basic_string@DU?$char_traits@D@std@@V?$allocator@D@2@@std@@V12@@std@@PAX@std@@@std@@@std@@SAXAAV?$allocator@U?$_List_node@U?$pair@$$CBV?$basic_string@DU?$char_traits@D@std@@V?$allocator@D@2@@std@@V12@@std@@PAX@std@@@1@QAU?$pair@$$CBV?$basic_string@DU?$char_traits@D@std@@V?$allocator@D@2@@std@@V12@@1@ABUpiecewise_construct_t@1@$$QAV?$tuple@ABV?$basic_string@DU?$char_traits@D@std@@V?$allocator@D@2@@std@@@1@$$QAV?$tuple@$$V@1@@Z 1004f660 f i Hooks.obj
 0001:0004e700       ??$construct@U?$pair@$$CBV?$basic_string@DU?$char_traits@D@std@@V?$allocator@D@2@@std@@V?$set@V?$basic_string@DU?$char_traits@D@std@@V?$allocator@D@2@@std@@U?$less@V?$basic_string@DU?$char_traits@D@std@@V?$allocator@D@2@@std@@@2@V?$allocator@V?$basic_string@DU?$char_traits@D@std@@V?$allocator@D@2@@std@@@2@@2@@std@@ABUpiecewise_construct_t@2@V?$tuple@ABV?$basic_string@DU?$char_traits@D@std@@V?$allocator@D@2@@std@@@2@V?$tuple@$$V@2@@?$_Default_allocator_traits@V?$allocator@U?$_List_node@U?$pair@$$CBV?$basic_string@DU?$char_traits@D@std@@V?$allocator@D@2@@std@@V?$set@V?$basic_string@DU?$char_traits@D@std@@V?$allocator@D@2@@std@@U?$less@V?$basic_string@DU?$char_traits@D@std@@V?$allocator@D@2@@std@@@2@V?$allocator@V?$basic_string@DU?$char_traits@D@std@@V?$allocator@D@2@@std@@@2@@2@@std@@PAX@std@@@std@@@std@@SAXAAV?$allocator@U?$_List_node@U?$pair@$$CBV?$basic_string@DU?$char_traits@D@std@@V?$allocator@D@2@@std@@V?$set@V?$basic_string@DU?$char_traits@D@std@@V?$allocator@D@2@@std@@U?$less@V?$basic_string@DU?$char_traits@D@std@@V?$allocator@D@2@@std@@@2@V?$allocator@V?$basic_string@DU?$char_traits@D@std@@V?$allocator@D@2@@std@@@2@@2@@std@@PAX@std@@@1@QAU?$pair@$$CBV?$basic_string@DU?$char_traits@D@std@@V?$allocator@D@2@@std@@V?$set@V?$basic_string@DU?$char_traits@D@std@@V?$allocator@D@2@@std@@U?$less@V?$basic_string@DU?$char_traits@D@std@@V?$allocator@D@2@@std@@@2@V?$allocator@V?$basic_string@DU?$char_traits@D@std@@V?$allocator@D@2@@std@@@2@@2@@1@ABUpiecewise_construct_t@1@$$QAV?$tuple@ABV?$basic_string@DU?$char_traits@D@std@@V?$allocator@D@2@@std@@@1@$$QAV?$tuple@$$V@1@@Z 1004f700 f i Hooks.obj
 0001:0004e7a0       ??$construct@U_Container_proxy@std@@U12@@?$_Default_allocator_traits@V?$allocator@U_Container_proxy@std@@@std@@@std@@SAXAAV?$allocator@U_Container_proxy@std@@@1@QAU_Container_proxy@1@$$QAU31@@Z 1004f7a0 f i Hooks.obj
 0001:0004e7e0       ??$construct@V?$basic_string@DU?$char_traits@D@std@@V?$allocator@D@2@@std@@ABV12@@?$_Default_allocator_traits@V?$allocator@V?$basic_string@DU?$char_traits@D@std@@V?$allocator@D@2@@std@@@std@@@std@@SAXAAV?$allocator@V?$basic_string@DU?$char_traits@D@std@@V?$allocator@D@2@@std@@@1@QAV?$basic_string@DU?$char_traits@D@std@@V?$allocator@D@2@@1@ABV31@@Z 1004f7e0 f i Hooks.obj
 0001:0004e840       ??$construct@V?$basic_string@DU?$char_traits@D@std@@V?$allocator@D@2@@std@@V12@@?$_Default_allocator_traits@V?$allocator@U?$_Tree_node@V?$basic_string@DU?$char_traits@D@std@@V?$allocator@D@2@@std@@PAX@std@@@std@@@std@@SAXAAV?$allocator@U?$_Tree_node@V?$basic_string@DU?$char_traits@D@std@@V?$allocator@D@2@@std@@PAX@std@@@1@QAV?$basic_string@DU?$char_traits@D@std@@V?$allocator@D@2@@1@$$QAV31@@Z 1004f840 f i Hooks.obj
 0001:0004e870       ??$distance@PBV?$basic_string@DU?$char_traits@D@std@@V?$allocator@D@2@@std@@@std@@YAHPBV?$basic_string@DU?$char_traits@D@std@@V?$allocator@D@2@@0@0@Z 1004f870 f i Hooks.obj
 0001:0004e890       ??$emplace@ABUpiecewise_construct_t@std@@V?$tuple@ABV?$basic_string@DU?$char_traits@D@std@@V?$allocator@D@2@@std@@@2@V?$tuple@$$V@2@@?$_Hash@V?$_Umap_traits@V?$basic_string@DU?$char_traits@D@std@@V?$allocator@D@2@@std@@UskinInfo@@V?$_Uhash_compare@V?$basic_string@DU?$char_traits@D@std@@V?$allocator@D@2@@std@@U?$hash@V?$basic_string@DU?$char_traits@D@std@@V?$allocator@D@2@@std@@@2@U?$equal_to@V?$basic_string@DU?$char_traits@D@std@@V?$allocator@D@2@@std@@@2@@2@V?$allocator@U?$pair@$$CBV?$basic_string@DU?$char_traits@D@std@@V?$allocator@D@2@@std@@UskinInfo@@@std@@@2@$0A@@std@@@std@@QAE?AU?$pair@V?$_List_iterator@V?$_List_val@U?$_List_simple_types@U?$pair@$$CBV?$basic_string@DU?$char_traits@D@std@@V?$allocator@D@2@@std@@UskinInfo@@@std@@@std@@@std@@@std@@_N@1@ABUpiecewise_construct_t@1@$$QAV?$tuple@ABV?$basic_string@DU?$char_traits@D@std@@V?$allocator@D@2@@std@@@1@$$QAV?$tuple@$$V@1@@Z 1004f890 f i Hooks.obj
 0001:0004e900       ??$emplace@ABUpiecewise_construct_t@std@@V?$tuple@ABV?$basic_string@DU?$char_traits@D@std@@V?$allocator@D@2@@std@@@2@V?$tuple@$$V@2@@?$_Hash@V?$_Umap_traits@V?$basic_string@DU?$char_traits@D@std@@V?$allocator@D@2@@std@@V12@V?$_Uhash_compare@V?$basic_string@DU?$char_traits@D@std@@V?$allocator@D@2@@std@@U?$hash@V?$basic_string@DU?$char_traits@D@std@@V?$allocator@D@2@@std@@@2@U?$equal_to@V?$basic_string@DU?$char_traits@D@std@@V?$allocator@D@2@@std@@@2@@2@V?$allocator@U?$pair@$$CBV?$basic_string@DU?$char_traits@D@std@@V?$allocator@D@2@@std@@V12@@std@@@2@$0A@@std@@@std@@QAE?AU?$pair@V?$_List_iterator@V?$_List_val@U?$_List_simple_types@U?$pair@$$CBV?$basic_string@DU?$char_traits@D@std@@V?$allocator@D@2@@std@@V12@@std@@@std@@@std@@@std@@_N@1@ABUpiecewise_construct_t@1@$$QAV?$tuple@ABV?$basic_string@DU?$char_traits@D@std@@V?$allocator@D@2@@std@@@1@$$QAV?$tuple@$$V@1@@Z 1004f900 f i Hooks.obj
 0001:0004e970       ??$emplace@ABUpiecewise_construct_t@std@@V?$tuple@ABV?$basic_string@DU?$char_traits@D@std@@V?$allocator@D@2@@std@@@2@V?$tuple@$$V@2@@?$_Hash@V?$_Umap_traits@V?$basic_string@DU?$char_traits@D@std@@V?$allocator@D@2@@std@@V?$set@V?$basic_string@DU?$char_traits@D@std@@V?$allocator@D@2@@std@@U?$less@V?$basic_string@DU?$char_traits@D@std@@V?$allocator@D@2@@std@@@2@V?$allocator@V?$basic_string@DU?$char_traits@D@std@@V?$allocator@D@2@@std@@@2@@2@V?$_Uhash_compare@V?$basic_string@DU?$char_traits@D@std@@V?$allocator@D@2@@std@@U?$hash@V?$basic_string@DU?$char_traits@D@std@@V?$allocator@D@2@@std@@@2@U?$equal_to@V?$basic_string@DU?$char_traits@D@std@@V?$allocator@D@2@@std@@@2@@2@V?$allocator@U?$pair@$$CBV?$basic_string@DU?$char_traits@D@std@@V?$allocator@D@2@@std@@V?$set@V?$basic_string@DU?$char_traits@D@std@@V?$allocator@D@2@@std@@U?$less@V?$basic_string@DU?$char_traits@D@std@@V?$allocator@D@2@@std@@@2@V?$allocator@V?$basic_string@DU?$char_traits@D@std@@V?$allocator@D@2@@std@@@2@@2@@std@@@2@$0A@@std@@@std@@QAE?AU?$pair@V?$_List_iterator@V?$_List_val@U?$_List_simple_types@U?$pair@$$CBV?$basic_string@DU?$char_traits@D@std@@V?$allocator@D@2@@std@@V?$set@V?$basic_string@DU?$char_traits@D@std@@V?$allocator@D@2@@std@@U?$less@V?$basic_string@DU?$char_traits@D@std@@V?$allocator@D@2@@std@@@2@V?$allocator@V?$basic_string@DU?$char_traits@D@std@@V?$allocator@D@2@@std@@@2@@2@@std@@@std@@@std@@@std@@_N@1@ABUpiecewise_construct_t@1@$$QAV?$tuple@ABV?$basic_string@DU?$char_traits@D@std@@V?$allocator@D@2@@std@@@1@$$QAV?$tuple@$$V@1@@Z 1004f970 f i Hooks.obj
 0001:0004e9e0       ??$emplace_front@ABUpiecewise_construct_t@std@@V?$tuple@ABV?$basic_string@DU?$char_traits@D@std@@V?$allocator@D@2@@std@@@2@V?$tuple@$$V@2@@?$list@U?$pair@$$CBV?$basic_string@DU?$char_traits@D@std@@V?$allocator@D@2@@std@@UskinInfo@@@std@@V?$allocator@U?$pair@$$CBV?$basic_string@DU?$char_traits@D@std@@V?$allocator@D@2@@std@@UskinInfo@@@std@@@2@@std@@QAEXABUpiecewise_construct_t@1@$$QAV?$tuple@ABV?$basic_string@DU?$char_traits@D@std@@V?$allocator@D@2@@std@@@1@$$QAV?$tuple@$$V@1@@Z 1004f9e0 f i Hooks.obj
 0001:0004ea40       ??$emplace_front@ABUpiecewise_construct_t@std@@V?$tuple@ABV?$basic_string@DU?$char_traits@D@std@@V?$allocator@D@2@@std@@@2@V?$tuple@$$V@2@@?$list@U?$pair@$$CBV?$basic_string@DU?$char_traits@D@std@@V?$allocator@D@2@@std@@V12@@std@@V?$allocator@U?$pair@$$CBV?$basic_string@DU?$char_traits@D@std@@V?$allocator@D@2@@std@@V12@@std@@@2@@std@@QAEXABUpiecewise_construct_t@1@$$QAV?$tuple@ABV?$basic_string@DU?$char_traits@D@std@@V?$allocator@D@2@@std@@@1@$$QAV?$tuple@$$V@1@@Z 1004fa40 f i Hooks.obj
 0001:0004eaa0       ??$emplace_front@ABUpiecewise_construct_t@std@@V?$tuple@ABV?$basic_string@DU?$char_traits@D@std@@V?$allocator@D@2@@std@@@2@V?$tuple@$$V@2@@?$list@U?$pair@$$CBV?$basic_string@DU?$char_traits@D@std@@V?$allocator@D@2@@std@@V?$set@V?$basic_string@DU?$char_traits@D@std@@V?$allocator@D@2@@std@@U?$less@V?$basic_string@DU?$char_traits@D@std@@V?$allocator@D@2@@std@@@2@V?$allocator@V?$basic_string@DU?$char_traits@D@std@@V?$allocator@D@2@@std@@@2@@2@@std@@V?$allocator@U?$pair@$$CBV?$basic_string@DU?$char_traits@D@std@@V?$allocator@D@2@@std@@V?$set@V?$basic_string@DU?$char_traits@D@std@@V?$allocator@D@2@@std@@U?$less@V?$basic_string@DU?$char_traits@D@std@@V?$allocator@D@2@@std@@@2@V?$allocator@V?$basic_string@DU?$char_traits@D@std@@V?$allocator@D@2@@std@@@2@@2@@std@@@2@@std@@QAEXABUpiecewise_construct_t@1@$$QAV?$tuple@ABV?$basic_string@DU?$char_traits@D@std@@V?$allocator@D@2@@std@@@1@$$QAV?$tuple@$$V@1@@Z 1004faa0 f i Hooks.obj
 0001:0004eb00       ??$erase@V?$_List_iterator@V?$_List_val@U?$_List_simple_types@U?$pair@$$CBV?$basic_string@DU?$char_traits@D@std@@V?$allocator@D@2@@std@@UskinInfo@@@std@@@std@@@std@@@std@@X@?$_Hash@V?$_Umap_traits@V?$basic_string@DU?$char_traits@D@std@@V?$allocator@D@2@@std@@UskinInfo@@V?$_Uhash_compare@V?$basic_string@DU?$char_traits@D@std@@V?$allocator@D@2@@std@@U?$hash@V?$basic_string@DU?$char_traits@D@std@@V?$allocator@D@2@@std@@@2@U?$equal_to@V?$basic_string@DU?$char_traits@D@std@@V?$allocator@D@2@@std@@@2@@2@V?$allocator@U?$pair@$$CBV?$basic_string@DU?$char_traits@D@std@@V?$allocator@D@2@@std@@UskinInfo@@@std@@@2@$0A@@std@@@std@@QAE?AV?$_List_iterator@V?$_List_val@U?$_List_simple_types@U?$pair@$$CBV?$basic_string@DU?$char_traits@D@std@@V?$allocator@D@2@@std@@UskinInfo@@@std@@@std@@@std@@@1@V21@@Z 1004fb00 f i Hooks.obj
 0001:0004eb30       ??$erase@V?$_List_iterator@V?$_List_val@U?$_List_simple_types@U?$pair@$$CBV?$basic_string@DU?$char_traits@D@std@@V?$allocator@D@2@@std@@V12@@std@@@std@@@std@@@std@@X@?$_Hash@V?$_Umap_traits@V?$basic_string@DU?$char_traits@D@std@@V?$allocator@D@2@@std@@V12@V?$_Uhash_compare@V?$basic_string@DU?$char_traits@D@std@@V?$allocator@D@2@@std@@U?$hash@V?$basic_string@DU?$char_traits@D@std@@V?$allocator@D@2@@std@@@2@U?$equal_to@V?$basic_string@DU?$char_traits@D@std@@V?$allocator@D@2@@std@@@2@@2@V?$allocator@U?$pair@$$CBV?$basic_string@DU?$char_traits@D@std@@V?$allocator@D@2@@std@@V12@@std@@@2@$0A@@std@@@std@@QAE?AV?$_List_iterator@V?$_List_val@U?$_List_simple_types@U?$pair@$$CBV?$basic_string@DU?$char_traits@D@std@@V?$allocator@D@2@@std@@V12@@std@@@std@@@std@@@1@V21@@Z 1004fb30 f i Hooks.obj
 0001:0004eb60       ??$erase@V?$_List_iterator@V?$_List_val@U?$_List_simple_types@U?$pair@$$CBV?$basic_string@DU?$char_traits@D@std@@V?$allocator@D@2@@std@@V?$set@V?$basic_string@DU?$char_traits@D@std@@V?$allocator@D@2@@std@@U?$less@V?$basic_string@DU?$char_traits@D@std@@V?$allocator@D@2@@std@@@2@V?$allocator@V?$basic_string@DU?$char_traits@D@std@@V?$allocator@D@2@@std@@@2@@2@@std@@@std@@@std@@@std@@X@?$_Hash@V?$_Umap_traits@V?$basic_string@DU?$char_traits@D@std@@V?$allocator@D@2@@std@@V?$set@V?$basic_string@DU?$char_traits@D@std@@V?$allocator@D@2@@std@@U?$less@V?$basic_string@DU?$char_traits@D@std@@V?$allocator@D@2@@std@@@2@V?$allocator@V?$basic_string@DU?$char_traits@D@std@@V?$allocator@D@2@@std@@@2@@2@V?$_Uhash_compare@V?$basic_string@DU?$char_traits@D@std@@V?$allocator@D@2@@std@@U?$hash@V?$basic_string@DU?$char_traits@D@std@@V?$allocator@D@2@@std@@@2@U?$equal_to@V?$basic_string@DU?$char_traits@D@std@@V?$allocator@D@2@@std@@@2@@2@V?$allocator@U?$pair@$$CBV?$basic_string@DU?$char_traits@D@std@@V?$allocator@D@2@@std@@V?$set@V?$basic_string@DU?$char_traits@D@std@@V?$allocator@D@2@@std@@U?$less@V?$basic_string@DU?$char_traits@D@std@@V?$allocator@D@2@@std@@@2@V?$allocator@V?$basic_string@DU?$char_traits@D@std@@V?$allocator@D@2@@std@@@2@@2@@std@@@2@$0A@@std@@@std@@QAE?AV?$_List_iterator@V?$_List_val@U?$_List_simple_types@U?$pair@$$CBV?$basic_string@DU?$char_traits@D@std@@V?$allocator@D@2@@std@@V?$set@V?$basic_string@DU?$char_traits@D@std@@V?$allocator@D@2@@std@@U?$less@V?$basic_string@DU?$char_traits@D@std@@V?$allocator@D@2@@std@@@2@V?$allocator@V?$basic_string@DU?$char_traits@D@std@@V?$allocator@D@2@@std@@@2@@2@@std@@@std@@@std@@@1@V21@@Z 1004fb60 f i Hooks.obj
 0001:0004eb90       ??$forward_as_tuple@$$V@std@@YA?AV?$tuple@$$V@0@XZ 1004fb90 f i Hooks.obj
 0001:0004eba0       ??$forward_as_tuple@ABV?$basic_string@DU?$char_traits@D@std@@V?$allocator@D@2@@std@@@std@@YA?AV?$tuple@ABV?$basic_string@DU?$char_traits@D@std@@V?$allocator@D@2@@std@@@0@ABV?$basic_string@DU?$char_traits@D@std@@V?$allocator@D@2@@0@@Z 1004fba0 f i Hooks.obj
 0001:0004ebe0       ??$get_original@P6EXPAVIBaseClientDLL@@HM_N@Z@vfunc_hook@@QAEP6EXPAVIBaseClientDLL@@HM_N@ZH@Z 1004fbe0 f i Hooks.obj
 0001:0004ebe0       ??$get_original@P6EXPAX00ABUModelRenderInfo_t@@PAY123M@Z@vfunc_hook@@QAEP6EXPAX00ABUModelRenderInfo_t@@PAY123M@ZH@Z 1004fbe0 f i Hooks.obj
 0001:0004ebe0       ??$get_original@P6EXPAXI_N1@Z@vfunc_hook@@QAEP6EXPAXI_N1@ZH@Z 1004fbe0 f i Hooks.obj
 0001:0004ebe0       ??$get_original@P6EXPAXPBD@Z@vfunc_hook@@QAEP6EXPAXPBD@ZH@Z 1004fbe0 f i Hooks.obj
 0001:0004ebe0       ??$get_original@P6E_NPAX@Z@vfunc_hook@@QAEP6E_NPAX@ZH@Z 1004fbe0 f i Hooks.obj
 0001:0004ebe0       ??$get_original@P6GXW4ClientFrameStage_t@@@Z@vfunc_hook@@QAEP6GXW4ClientFrameStage_t@@@ZH@Z 1004fbe0 f i Hooks.obj
 0001:0004ebe0       ??$get_original@P6EMPAX@Z@vfunc_hook@@QAEP6EMPAX@ZH@Z 1004fbe0 f i Hooks.obj
 0001:0004ebe0       ??$get_original@P6G_NPAX@Z@vfunc_hook@@QAEP6G_NPAX@ZH@Z 1004fbe0 f i Hooks.obj
 0001:0004ebe0       ??$get_original@P6EXPAXPAUCViewSetup@@@Z@vfunc_hook@@QAEP6EXPAXPAUCViewSetup@@@ZH@Z 1004fbe0 f i Hooks.obj
 0001:0004ebe0       ??$get_original@P6E_NPAXPAUCViewSetup@@@Z@vfunc_hook@@QAEP6E_NPAXPAUCViewSetup@@@ZH@Z 1004fbe0 f i Hooks.obj
 0001:0004ec00       ??$hook_index@P6IMPAX0@Z@vfunc_hook@@QAEXHP6IMPAX0@Z@Z 1004fc00 f i Hooks.obj
 0001:0004ec00       ??$hook_index@P6I_NPAX0PAUCViewSetup@@@Z@vfunc_hook@@QAEXHP6I_NPAX0PAUCViewSetup@@@Z@Z 1004fc00 f i Hooks.obj
 0001:0004ec00       ??$hook_index@P6IXPAXHI_N1@Z@vfunc_hook@@QAEXHP6IXPAXHI_N1@Z@Z 1004fc00 f i Hooks.obj
 0001:0004ec00       ??$hook_index@P6IXPAX0PAUCViewSetup@@@Z@vfunc_hook@@QAEXHP6IXPAX0PAUCViewSetup@@@Z@Z 1004fc00 f i Hooks.obj
 0001:0004ec00       ??$hook_index@P6IXPAXH00ABUModelRenderInfo_t@@PAY123M@Z@vfunc_hook@@QAEXHP6IXPAXH00ABUModelRenderInfo_t@@PAY123M@Z@Z 1004fc00 f i Hooks.obj
 0001:0004ec00       ??$hook_index@P6I_NPAX0@Z@vfunc_hook@@QAEXHP6I_NPAX0@Z@Z 1004fc00 f i Hooks.obj
 0001:0004ec00       ??$hook_index@P6GXPBD@Z@vfunc_hook@@QAEXHP6GXPBD@Z@Z 1004fc00 f i Hooks.obj
 0001:0004ec00       ??$hook_index@P6GXW4ClientFrameStage_t@@@Z@vfunc_hook@@QAEXHP6GXW4ClientFrameStage_t@@@Z@Z 1004fc00 f i Hooks.obj
 0001:0004ec00       ??$hook_index@P6GXHM_N@Z@vfunc_hook@@QAEXHP6GXHM_N@Z@Z 1004fc00 f i Hooks.obj
 0001:0004ec20       ??$insert@$0A@$0A@@?$_Tree@V?$_Tset_traits@V?$basic_string@DU?$char_traits@D@std@@V?$allocator@D@2@@std@@U?$less@V?$basic_string@DU?$char_traits@D@std@@V?$allocator@D@2@@std@@@2@V?$allocator@V?$basic_string@DU?$char_traits@D@std@@V?$allocator@D@2@@std@@@2@$0A@@std@@@std@@QAE?AU?$pair@V?$_Tree_const_iterator@V?$_Tree_val@U?$_Tree_simple_types@V?$basic_string@DU?$char_traits@D@std@@V?$allocator@D@2@@std@@@std@@@std@@@std@@_N@1@$$QAV?$basic_string@DU?$char_traits@D@std@@V?$allocator@D@2@@1@@Z 1004fc20 f i Hooks.obj
 0001:0004ec60       ??$isfinite@M@@YA_NM@Z     1004fc60 f i Hooks.obj
 0001:0004eca0       ??$make_shared@VNode@valve_parser@@PAVDocument@2@@std@@YA?AV?$shared_ptr@VNode@valve_parser@@@0@$$QAPAVDocument@valve_parser@@@Z 1004fca0 f i Hooks.obj
 0001:0004ed70       ??$transform@V?$_String_iterator@V?$_String_val@U?$_Simple_types@D@std@@@std@@@std@@V12@P6AGG@Z@std@@YA?AV?$_String_iterator@V?$_String_val@U?$_Simple_types@D@std@@@std@@@0@V10@00P6AGG@Z@Z 1004fd70 f i Hooks.obj
 0001:0004edc0       ??$transform@V?$_String_iterator@V?$_String_val@U?$_Simple_types@D@std@@@std@@@std@@V12@P6AHH@Z@std@@YA?AV?$_String_iterator@V?$_String_val@U?$_Simple_types@D@std@@@std@@@0@V10@00P6AHH@Z@Z 1004fdc0 f i Hooks.obj
 0001:0004ee10       ??$try_emplace@$$V@?$unordered_map@V?$basic_string@DU?$char_traits@D@std@@V?$allocator@D@2@@std@@UskinInfo@@U?$hash@V?$basic_string@DU?$char_traits@D@std@@V?$allocator@D@2@@std@@@2@U?$equal_to@V?$basic_string@DU?$char_traits@D@std@@V?$allocator@D@2@@std@@@2@V?$allocator@U?$pair@$$CBV?$basic_string@DU?$char_traits@D@std@@V?$allocator@D@2@@std@@UskinInfo@@@std@@@2@@std@@QAE?AU?$pair@V?$_List_iterator@V?$_List_val@U?$_List_simple_types@U?$pair@$$CBV?$basic_string@DU?$char_traits@D@std@@V?$allocator@D@2@@std@@UskinInfo@@@std@@@std@@@std@@@std@@_N@1@ABV?$basic_string@DU?$char_traits@D@std@@V?$allocator@D@2@@1@@Z 1004fe10 f i Hooks.obj
 0001:0004ee30       ??$try_emplace@$$V@?$unordered_map@V?$basic_string@DU?$char_traits@D@std@@V?$allocator@D@2@@std@@V12@U?$hash@V?$basic_string@DU?$char_traits@D@std@@V?$allocator@D@2@@std@@@2@U?$equal_to@V?$basic_string@DU?$char_traits@D@std@@V?$allocator@D@2@@std@@@2@V?$allocator@U?$pair@$$CBV?$basic_string@DU?$char_traits@D@std@@V?$allocator@D@2@@std@@V12@@std@@@2@@std@@QAE?AU?$pair@V?$_List_iterator@V?$_List_val@U?$_List_simple_types@U?$pair@$$CBV?$basic_string@DU?$char_traits@D@std@@V?$allocator@D@2@@std@@V12@@std@@@std@@@std@@@std@@_N@1@ABV?$basic_string@DU?$char_traits@D@std@@V?$allocator@D@2@@1@@Z 1004fe30 f i Hooks.obj
 0001:0004ee50       ??$try_emplace@$$V@?$unordered_map@V?$basic_string@DU?$char_traits@D@std@@V?$allocator@D@2@@std@@V?$set@V?$basic_string@DU?$char_traits@D@std@@V?$allocator@D@2@@std@@U?$less@V?$basic_string@DU?$char_traits@D@std@@V?$allocator@D@2@@std@@@2@V?$allocator@V?$basic_string@DU?$char_traits@D@std@@V?$allocator@D@2@@std@@@2@@2@U?$hash@V?$basic_string@DU?$char_traits@D@std@@V?$allocator@D@2@@std@@@2@U?$equal_to@V?$basic_string@DU?$char_traits@D@std@@V?$allocator@D@2@@std@@@2@V?$allocator@U?$pair@$$CBV?$basic_string@DU?$char_traits@D@std@@V?$allocator@D@2@@std@@V?$set@V?$basic_string@DU?$char_traits@D@std@@V?$allocator@D@2@@std@@U?$less@V?$basic_string@DU?$char_traits@D@std@@V?$allocator@D@2@@std@@@2@V?$allocator@V?$basic_string@DU?$char_traits@D@std@@V?$allocator@D@2@@std@@@2@@2@@std@@@2@@std@@QAE?AU?$pair@V?$_List_iterator@V?$_List_val@U?$_List_simple_types@U?$pair@$$CBV?$basic_string@DU?$char_traits@D@std@@V?$allocator@D@2@@std@@V?$set@V?$basic_string@DU?$char_traits@D@std@@V?$allocator@D@2@@std@@U?$less@V?$basic_string@DU?$char_traits@D@std@@V?$allocator@D@2@@std@@@2@V?$allocator@V?$basic_string@DU?$char_traits@D@std@@V?$allocator@D@2@@std@@@2@@2@@std@@@std@@@std@@@std@@_N@1@ABV?$basic_string@DU?$char_traits@D@std@@V?$allocator@D@2@@1@@Z 1004fe50 f i Hooks.obj
 0001:0004ee70       ??0?$ImVector@_N@@QAE@XZ   1004fe70 f i imgui.obj
 0001:0004ee70       ??0?$ImVector@I@@QAE@XZ    1004fe70 f i imgui.obj
 0001:0004ee70       ??0?$ImVector@UImGuiColumnData@@@@QAE@XZ 1004fe70 f i imgui.obj
 0001:0004ee70       ??0?$ImVector@UGlyph@ImFont@@@@QAE@XZ 1004fe70 f i imgui_draw.obj
 0001:0004ee70       ??0?$ImVector@PAUImGuiWindow@@@@QAE@XZ 1004fe70 f i imgui.obj
 0001:0004ee70       ??0?$ImVector@UImGuiStyleMod@@@@QAE@XZ 1004fe70 f i imgui.obj
 0001:0004ee70       ??0?$ImVector@Ustbrp_rect@@@@QAE@XZ 1004fe70 f i imgui_draw.obj
 0001:0004ee70       ??0?$ImVector@PAX@@QAE@XZ  1004fe70 f i imgui.obj
 0001:0004ee70       ??0?$ImVector@UImVec2@@@@QAE@XZ 1004fe70 f i imgui.obj
 0001:0004ee70       ??0?$ImVector@D@@QAE@XZ    1004fe70 f i Hooks.obj
 0001:0004ee70       ??0?$ImVector@PAUImFont@@@@QAE@XZ 1004fe70 f i imgui.obj
 0001:0004ee70       ??0?$ImVector@UImFontConfig@@@@QAE@XZ 1004fe70 f i imgui_draw.obj
 0001:0004ee70       ??0?$ImVector@UImGuiGroupData@@@@QAE@XZ 1004fe70 f i imgui.obj
 0001:0004ee70       ??0?$ImVector@M@@QAE@XZ    1004fe70 f i imgui.obj
 0001:0004ee70       ??0?$ImVector@H@@QAE@XZ    1004fe70 f i Hooks.obj
 0001:0004ee70       ??0?$ImVector@UImGuiColMod@@@@QAE@XZ 1004fe70 f i imgui.obj
 0001:0004ee70       ??0?$ImVector@UImGuiPopupRef@@@@QAE@XZ 1004fe70 f i imgui.obj
 0001:0004ee70       ??0?$ImVector@UImGuiIniData@@@@QAE@XZ 1004fe70 f i imgui.obj
 0001:0004ee70       ??0?$ImVector@UImDrawCmd@@@@QAE@XZ 1004fe70 f i imgui.obj
 0001:0004ee70       ??0?$ImVector@UImVec4@@@@QAE@XZ 1004fe70 f i imgui.obj
 0001:0004ee70       ??0?$ImVector@G@@QAE@XZ    1004fe70 f i imgui.obj
 0001:0004ee70       ??0?$ImVector@UImDrawVert@@@@QAE@XZ 1004fe70 f i imgui.obj
 0001:0004ee70       ??0?$ImVector@UTextRange@ImGuiTextFilter@@@@QAE@XZ 1004fe70 f i imgui.obj
 0001:0004ee70       ??0?$ImVector@PAUImDrawList@@@@QAE@XZ 1004fe70 f i imgui.obj
 0001:0004ee70       ??0?$ImVector@UPair@ImGuiStorage@@@@QAE@XZ 1004fe70 f i imgui.obj
 0001:0004ee70       ??0?$ImVector@UImDrawChannel@@@@QAE@XZ 1004fe70 f i imgui.obj
 0001:0004eea0       ??0?$_Deque_alloc@U?$_Deque_base_types@V?$shared_ptr@VNode@valve_parser@@@std@@V?$allocator@V?$shared_ptr@VNode@valve_parser@@@std@@@2@@std@@@std@@QAE@XZ 1004fea0 f i Hooks.obj
 0001:0004ef00       ??0?$_Deque_const_iterator@V?$_Deque_val@U?$_Deque_simple_types@V?$shared_ptr@VNode@valve_parser@@@std@@@std@@@std@@@std@@QAE@IPBU_Container_base12@1@@Z 1004ff00 f i Hooks.obj
 0001:0004ef60       ??0?$_Deque_iterator@V?$_Deque_val@U?$_Deque_simple_types@V?$shared_ptr@VNode@valve_parser@@@std@@@std@@@std@@@std@@QAE@IPBU_Container_base12@1@@Z 1004ff60 f i Hooks.obj
 0001:0004ef80       ??0?$_Deque_val@U?$_Deque_simple_types@V?$shared_ptr@VNode@valve_parser@@@std@@@std@@@std@@QAE@XZ 1004ff80 f i Hooks.obj
 0001:0004efc0       ??0?$_Hash@V?$_Umap_traits@PADPADV?$_Uhash_compare@PADU?$hash@PAD@std@@U?$equal_to@PAD@2@@std@@V?$allocator@U?$pair@QADPAD@std@@@2@$0A@@std@@@std@@QAE@ABV?$_Uhash_compare@PADU?$hash@PAD@std@@U?$equal_to@PAD@2@@1@ABV?$allocator@U?$pair@QADPAD@std@@@1@@Z 1004ffc0 f i Hooks.obj
 0001:0004f060       ??0?$_List_unchecked_const_iterator@V?$_List_val@U?$_List_simple_types@U?$pair@$$CBV?$basic_string@DU?$char_traits@D@std@@V?$allocator@D@2@@std@@V12@@std@@@std@@@std@@U_Iterator_base0@2@@std@@QAE@XZ 10050060 f i Hooks.obj
 0001:0004f060       ??0_Container_base12@std@@QAE@XZ 10050060 f i Hooks.obj
 0001:0004f060       ??0?$_List_unchecked_const_iterator@V?$_List_val@U?$_List_simple_types@U?$pair@$$CBV?$basic_string@DU?$char_traits@D@std@@V?$allocator@D@2@@std@@UskinInfo@@@std@@@std@@@std@@U_Iterator_base0@2@@std@@QAE@XZ 10050060 f i Hooks.obj
 0001:0004f060       ??0?$_List_unchecked_const_iterator@V?$_List_val@U?$_List_simple_types@U?$pair@$$CBV?$basic_string@DU?$char_traits@D@std@@V?$allocator@D@2@@std@@V?$set@V?$basic_string@DU?$char_traits@D@std@@V?$allocator@D@2@@std@@U?$less@V?$basic_string@DU?$char_traits@D@std@@V?$allocator@D@2@@std@@@2@V?$allocator@V?$basic_string@DU?$char_traits@D@std@@V?$allocator@D@2@@std@@@2@@2@@std@@@std@@@std@@U_Iterator_base0@2@@std@@QAE@XZ 10050060 f i Hooks.obj
 0001:0004f060       ??0?$_Tree_unchecked_const_iterator@V?$_Tree_val@U?$_Tree_simple_types@U?$pair@$$CBW4ItemDefinitionIndexx@@UDefItem_t@@@std@@@std@@@std@@U_Iterator_base0@2@@std@@QAE@XZ 10050060 f i recvproxy.obj
 0001:0004f060       ??0once_flag@std@@QAE@XZ   10050060 f i Utilities.obj
 0001:0004f080       ??0?$_List_unchecked_iterator@V?$_List_val@U?$_List_simple_types@U?$pair@$$CBV?$basic_string@DU?$char_traits@D@std@@V?$allocator@D@2@@std@@V12@@std@@@std@@@std@@@std@@QAE@XZ 10050080 f i Hooks.obj
 0001:0004f080       ??0?$_Tree_const_iterator@V?$_Tree_val@U?$_Tree_simple_types@U?$pair@$$CBW4ItemDefinitionIndexx@@UDefItem_t@@@std@@@std@@@std@@@std@@QAE@XZ 10050080 f i recvproxy.obj
 0001:0004f080       ??0?$_List_unchecked_iterator@V?$_List_val@U?$_List_simple_types@U?$pair@$$CBV?$basic_string@DU?$char_traits@D@std@@V?$allocator@D@2@@std@@V?$set@V?$basic_string@DU?$char_traits@D@std@@V?$allocator@D@2@@std@@U?$less@V?$basic_string@DU?$char_traits@D@std@@V?$allocator@D@2@@std@@@2@V?$allocator@V?$basic_string@DU?$char_traits@D@std@@V?$allocator@D@2@@std@@@2@@2@@std@@@std@@@std@@@std@@QAE@XZ 10050080 f i Hooks.obj
 0001:0004f080       ??0?$_List_unchecked_iterator@V?$_List_val@U?$_List_simple_types@U?$pair@$$CBV?$basic_string@DU?$char_traits@D@std@@V?$allocator@D@2@@std@@UskinInfo@@@std@@@std@@@std@@@std@@QAE@XZ 10050080 f i Hooks.obj
 0001:0004f0a0       ??0?$_Tree@V?$_Tset_traits@V?$basic_string@DU?$char_traits@D@std@@V?$allocator@D@2@@std@@U?$less@V?$basic_string@DU?$char_traits@D@std@@V?$allocator@D@2@@std@@@2@V?$allocator@V?$basic_string@DU?$char_traits@D@std@@V?$allocator@D@2@@std@@@2@$0A@@std@@@std@@QAE@ABU?$less@V?$basic_string@DU?$char_traits@D@std@@V?$allocator@D@2@@std@@@1@@Z 100500a0 f i Hooks.obj
 0001:0004f0c0       ??0?$_Tree_comp_alloc@V?$_Tset_traits@V?$basic_string@DU?$char_traits@D@std@@V?$allocator@D@2@@std@@U?$less@V?$basic_string@DU?$char_traits@D@std@@V?$allocator@D@2@@std@@@2@V?$allocator@V?$basic_string@DU?$char_traits@D@std@@V?$allocator@D@2@@std@@@2@$0A@@std@@@std@@QAE@ABU?$less@V?$basic_string@DU?$char_traits@D@std@@V?$allocator@D@2@@std@@@1@@Z 100500c0 f i Hooks.obj
 0001:0004f0f0       ??0?$_Umap_traits@V?$basic_string@DU?$char_traits@D@std@@V?$allocator@D@2@@std@@V12@V?$_Uhash_compare@V?$basic_string@DU?$char_traits@D@std@@V?$allocator@D@2@@std@@U?$hash@V?$basic_string@DU?$char_traits@D@std@@V?$allocator@D@2@@std@@@2@U?$equal_to@V?$basic_string@DU?$char_traits@D@std@@V?$allocator@D@2@@std@@@2@@2@V?$allocator@U?$pair@$$CBV?$basic_string@DU?$char_traits@D@std@@V?$allocator@D@2@@std@@V12@@std@@@2@$0A@@std@@QAE@ABV?$_Uhash_compare@V?$basic_string@DU?$char_traits@D@std@@V?$allocator@D@2@@std@@U?$hash@V?$basic_string@DU?$char_traits@D@std@@V?$allocator@D@2@@std@@@2@U?$equal_to@V?$basic_string@DU?$char_traits@D@std@@V?$allocator@D@2@@std@@@2@@1@@Z 100500f0 f i Configuration.obj
 0001:0004f0f0       ??0?$_Umap_traits@V?$basic_string@DU?$char_traits@D@std@@V?$allocator@D@2@@std@@V?$set@V?$basic_string@DU?$char_traits@D@std@@V?$allocator@D@2@@std@@U?$less@V?$basic_string@DU?$char_traits@D@std@@V?$allocator@D@2@@std@@@2@V?$allocator@V?$basic_string@DU?$char_traits@D@std@@V?$allocator@D@2@@std@@@2@@2@V?$_Uhash_compare@V?$basic_string@DU?$char_traits@D@std@@V?$allocator@D@2@@std@@U?$hash@V?$basic_string@DU?$char_traits@D@std@@V?$allocator@D@2@@std@@@2@U?$equal_to@V?$basic_string@DU?$char_traits@D@std@@V?$allocator@D@2@@std@@@2@@2@V?$allocator@U?$pair@$$CBV?$basic_string@DU?$char_traits@D@std@@V?$allocator@D@2@@std@@V?$set@V?$basic_string@DU?$char_traits@D@std@@V?$allocator@D@2@@std@@U?$less@V?$basic_string@DU?$char_traits@D@std@@V?$allocator@D@2@@std@@@2@V?$allocator@V?$basic_string@DU?$char_traits@D@std@@V?$allocator@D@2@@std@@@2@@2@@std@@@2@$0A@@std@@QAE@ABV?$_Uhash_compare@V?$basic_string@DU?$char_traits@D@std@@V?$allocator@D@2@@std@@U?$hash@V?$basic_string@DU?$char_traits@D@std@@V?$allocator@D@2@@std@@@2@U?$equal_to@V?$basic_string@DU?$char_traits@D@std@@V?$allocator@D@2@@std@@@2@@1@@Z 100500f0 f i Configuration.obj
 0001:0004f0f0       ??0?$_Umap_traits@V?$basic_string@DU?$char_traits@D@std@@V?$allocator@D@2@@std@@UskinInfo@@V?$_Uhash_compare@V?$basic_string@DU?$char_traits@D@std@@V?$allocator@D@2@@std@@U?$hash@V?$basic_string@DU?$char_traits@D@std@@V?$allocator@D@2@@std@@@2@U?$equal_to@V?$basic_string@DU?$char_traits@D@std@@V?$allocator@D@2@@std@@@2@@2@V?$allocator@U?$pair@$$CBV?$basic_string@DU?$char_traits@D@std@@V?$allocator@D@2@@std@@UskinInfo@@@std@@@2@$0A@@std@@QAE@ABV?$_Uhash_compare@V?$basic_string@DU?$char_traits@D@std@@V?$allocator@D@2@@std@@U?$hash@V?$basic_string@DU?$char_traits@D@std@@V?$allocator@D@2@@std@@@2@U?$equal_to@V?$basic_string@DU?$char_traits@D@std@@V?$allocator@D@2@@std@@@2@@1@@Z 100500f0 f i Configuration.obj
 0001:0004f0f0       ??0?$_Umap_traits@PADPADV?$_Uhash_compare@PADU?$hash@PAD@std@@U?$equal_to@PAD@2@@std@@V?$allocator@U?$pair@QADPAD@std@@@2@$0A@@std@@QAE@ABV?$_Uhash_compare@PADU?$hash@PAD@std@@U?$equal_to@PAD@2@@1@@Z 100500f0 f i Hooks.obj
 0001:0004f110       ??0?$basic_string@DU?$char_traits@D@std@@V?$allocator@D@2@@std@@QAE@ABV01@IIABV?$allocator@D@1@@Z 10050110 f i Hooks.obj
 0001:0004f180       ??0?$deque@V?$shared_ptr@VNode@valve_parser@@@std@@V?$allocator@V?$shared_ptr@VNode@valve_parser@@@std@@@2@@std@@QAE@XZ 10050180 f i Hooks.obj
 0001:0004f1a0       ??0?$list@U?$pair@QADPAD@std@@V?$allocator@U?$pair@QADPAD@std@@@2@@std@@QAE@ABV?$allocator@U?$pair@QADPAD@std@@@1@@Z 100501a0 f i Hooks.obj
 0001:0004f1c0       ??0?$set@V?$basic_string@DU?$char_traits@D@std@@V?$allocator@D@2@@std@@U?$less@V?$basic_string@DU?$char_traits@D@std@@V?$allocator@D@2@@std@@@2@V?$allocator@V?$basic_string@DU?$char_traits@D@std@@V?$allocator@D@2@@std@@@2@@std@@QAE@XZ 100501c0 f i Hooks.obj
 0001:0004f1e0       ??0?$tuple@ABV?$basic_string@DU?$char_traits@D@std@@V?$allocator@D@2@@std@@@std@@QAE@$$QAV01@@Z 100501e0 f i Hooks.obj
 0001:0004f210       ??0?$unordered_map@PADPADU?$hash@PAD@std@@U?$equal_to@PAD@2@V?$allocator@U?$pair@QADPAD@std@@@2@@std@@QAE@XZ 10050210 f i Hooks.obj
 0001:0004f250       ??0?$vector@V?$basic_string@DU?$char_traits@D@std@@V?$allocator@D@2@@std@@V?$allocator@V?$basic_string@DU?$char_traits@D@std@@V?$allocator@D@2@@std@@@2@@std@@QAE@V?$initializer_list@V?$basic_string@DU?$char_traits@D@std@@V?$allocator@D@2@@std@@@1@ABV?$allocator@V?$basic_string@DU?$char_traits@D@std@@V?$allocator@D@2@@std@@@1@@Z 10050250 f i Hooks.obj
 0001:0004f290       ??0AppLog@@QAE@XZ          10050290 f i Hooks.obj
 0001:0004f2e0       ??0Document@valve_parser@@QAE@XZ 100502e0 f i Hooks.obj
 0001:0004f3d0       ??0IGameEventListener2@@QAE@XZ 100503d0 f i Hooks.obj
 0001:0004f3f0       ??0ImColor@@QAE@HHHH@Z     100503f0 f i Hooks.obj
 0001:0004f460       ??0ImColor@@QAE@MMMM@Z     10050460 f i Hooks.obj
 0001:0004f4b0       ??0ImGuiTextBuffer@@QAE@XZ 100504b0 f i Hooks.obj
 0001:0004f510       ??0ImVec4@@QAE@XZ          10050510 f i Hooks.obj
 0001:0004f550       ??0Recording_t@@QAE@XZ     10050550 f i Hooks.obj
 0001:0004f580       ??0?$_List_val@U?$_List_simple_types@U?$pair@$$CBV?$basic_string@DU?$char_traits@D@std@@V?$allocator@D@2@@std@@V12@@std@@@std@@@std@@QAE@XZ 10050580 f i Configuration.obj
 0001:0004f580       ??0?$_Ptr_base@VNode@valve_parser@@@std@@QAE@XZ 10050580 f i Parser.obj
 0001:0004f580       ??0?$_Tree_val@U?$_Tree_simple_types@V?$basic_string@DU?$char_traits@D@std@@V?$allocator@D@2@@std@@@std@@@std@@QAE@XZ 10050580 f i Hooks.obj
 0001:0004f580       ??0Str@valve_parser@@QAE@XZ 10050580 f i Parser.obj
 0001:0004f580       ??0?$_Tree_val@U?$_Tree_simple_types@U?$pair@$$CBW4ItemDefinitionIndexx@@UDefItem_t@@@std@@@std@@@std@@QAE@XZ 10050580 f i recvproxy.obj
 0001:0004f580       ??0?$_List_val@U?$_List_simple_types@U?$pair@$$CBV?$basic_string@DU?$char_traits@D@std@@V?$allocator@D@2@@std@@UskinInfo@@@std@@@std@@@std@@QAE@XZ 10050580 f i Configuration.obj
 0001:0004f580       ??0?$_List_val@U?$_List_simple_types@U?$pair@QADPAD@std@@@std@@@std@@QAE@XZ 10050580 f i Hooks.obj
 0001:0004f580       ??0?$_Ptr_base@VKeyValue@valve_parser@@@std@@QAE@XZ 10050580 f i Parser.obj
 0001:0004f580       ??0_Container_proxy@std@@QAE@XZ 10050580 f i Hooks.obj
 0001:0004f580       ??0?$_Ptr_base@VObject@valve_parser@@@std@@QAE@XZ 10050580 f i Parser.obj
 0001:0004f580       ??0?$_List_val@U?$_List_simple_types@U?$pair@$$CBV?$basic_string@DU?$char_traits@D@std@@V?$allocator@D@2@@std@@V?$set@V?$basic_string@DU?$char_traits@D@std@@V?$allocator@D@2@@std@@U?$less@V?$basic_string@DU?$char_traits@D@std@@V?$allocator@D@2@@std@@@2@V?$allocator@V?$basic_string@DU?$char_traits@D@std@@V?$allocator@D@2@@std@@@2@@2@@std@@@std@@@std@@QAE@XZ 10050580 f i Configuration.obj
 0001:0004f580       ??0_Iterator_base12@std@@QAE@XZ 10050580 f i Hooks.obj
 0001:0004f5b0       ??0exception@std@@QAE@ABV01@@Z 100505b0 f i Hooks.obj
 0001:0004f5f0       ??0exception@std@@QAE@QBD@Z 100505f0 f i Hooks.obj
 0001:0004f640       ??0item_purchase@@QAE@XZ   10050640 f i Hooks.obj
 0001:0004f660       ??0item_purchase_listener@item_purchase@@QAE@XZ 10050660 f i Hooks.obj
 0001:0004f680       ??0cplane_t@@QAE@XZ        10050680 f i Autowall.obj
 0001:0004f680       ??0misc@@QAE@XZ            10050680 f i Hooks.obj
 0001:0004f6a0       ??0protect_guard@detail@@QAE@PAXII@Z 100506a0 f i Hooks.obj
 0001:0004f700       ??0runtime_error@std@@QAE@ABV01@@Z 10050700 f i Hooks.obj
 0001:0004f730       ??0runtime_error@std@@QAE@PBD@Z 10050730 f i Hooks.obj
 0001:0004f760       ??0skinInfo@@QAE@XZ        10050760 f i Hooks.obj
 0001:0004f790       ??1?$_Deque_alloc@U?$_Deque_base_types@V?$shared_ptr@VNode@valve_parser@@@std@@V?$allocator@V?$shared_ptr@VNode@valve_parser@@@std@@@2@@std@@@std@@QAE@XZ 10050790 f i Hooks.obj
 0001:0004f7d0       ??1?$_Deque_const_iterator@V?$_Deque_val@U?$_Deque_simple_types@V?$shared_ptr@VNode@valve_parser@@@std@@@std@@@std@@@std@@QAE@XZ 100507d0 f i Hooks.obj
 0001:0004f7d0       ??1misc@@QAE@XZ            100507d0 f i Hooks.obj
 0001:0004f7d0       ??1_Container_base12@std@@QAE@XZ 100507d0 f i Hooks.obj
 0001:0004f7d0       ??1visuals@@QAE@XZ         100507d0 f i Hooks.obj
 0001:0004f7d0       ??1_Generic_error_category@std@@UAE@XZ 100507d0 f i Utilities.obj
 0001:0004f7d0       ??1legitbot@@QAE@XZ        100507d0 f i Hooks.obj
 0001:0004f7d0       ??1?$_String_val@U?$_Simple_types@D@std@@@std@@QAE@XZ 100507d0 f i Parser.obj
 0001:0004f7d0       ??1ragebot@@QAE@XZ         100507d0 f i Hooks.obj
 0001:0004f7f0       ??1?$_Hash@V?$_Umap_traits@PADPADV?$_Uhash_compare@PADU?$hash@PAD@std@@U?$equal_to@PAD@2@@std@@V?$allocator@U?$pair@QADPAD@std@@@2@$0A@@std@@@std@@QAE@XZ 100507f0 f i Hooks.obj
 0001:0004f820       ??1?$_List_alloc@U?$_List_base_types@U?$pair@QADPAD@std@@V?$allocator@U?$pair@QADPAD@std@@@2@@std@@@std@@QAE@XZ 10050820 f i Hooks.obj
 0001:0004f860       ??1?$_List_buy@U?$pair@QADPAD@std@@V?$allocator@U?$pair@QADPAD@std@@@2@@std@@QAE@XZ 10050860 f i Hooks.obj
 0001:0004f880       ??1?$deque@V?$shared_ptr@VNode@valve_parser@@@std@@V?$allocator@V?$shared_ptr@VNode@valve_parser@@@std@@@2@@std@@QAE@XZ 10050880 f i Hooks.obj
 0001:0004f8c0       ??1?$list@U?$pair@QADPAD@std@@V?$allocator@U?$pair@QADPAD@std@@@2@@std@@QAE@XZ 100508c0 f i Hooks.obj
 0001:0004f900       ??1ImGuiListClipper@@QAE@XZ 10050900 f i imgui.obj
 0001:0004f900       ?_Unlock@?$basic_streambuf@DU?$char_traits@D@std@@@std@@UAEXXZ 10050900 f i Utilities.obj
 0001:0004f900       ??1?$singleton@Vlegitbot@@@@IAE@XZ 10050900 f i Hooks.obj
 0001:0004f900       ?_Orphan_all@_Container_base12@std@@QAEXXZ 10050900 f i Hooks.obj
 0001:0004f900       ??1?$singleton@Vragebot@@@@IAE@XZ 10050900 f i Hooks.obj
 0001:0004f900       ??1_Bxty@?$_String_val@U?$_Simple_types@D@std@@@std@@QAE@XZ 10050900 f i Parser.obj
 0001:0004f900       ??1?$singleton@Vgrenade_prediction@@@@IAE@XZ 10050900 f i ESP.obj
 0001:0004f900       ?_Lock@?$basic_streambuf@DU?$char_traits@D@std@@@std@@UAEXXZ 10050900 f i Utilities.obj
 0001:0004f900       ?_Orphan_all@_Container_base0@std@@QAEXXZ 10050900 f i Parser.obj
 0001:0004f900       ??1error_category@std@@UAE@XZ 10050900 f i Utilities.obj
 0001:0004f900       ??1?$singleton@Vmisc@@@@IAE@XZ 10050900 f i Hooks.obj
 0001:0004f900       ??1_Iterator_base12@std@@QAE@XZ 10050900 f i Hooks.obj
 0001:0004f900       ??1?$singleton@Vvisuals@@@@IAE@XZ 10050900 f i Hooks.obj
 0001:0004f900       ??1?$singleton@Vitem_purchase@@@@IAE@XZ 10050900 f i Hooks.obj
 0001:0004f910       ??1?$unordered_map@PADPADU?$hash@PAD@std@@U?$equal_to@PAD@2@V?$allocator@U?$pair@QADPAD@std@@@2@@std@@QAE@XZ 10050910 f i Hooks.obj
 0001:0004f930       ??1AppLog@@QAE@XZ          10050930 f i Hooks.obj
 0001:0004f950       ??1Document@valve_parser@@QAE@XZ 10050950 f i Hooks.obj
 0001:0004f990       ??1IGameEventListener2@@UAE@XZ 10050990 f i Hooks.obj
 0001:0004f9b0       ??1exception@std@@UAE@XZ   100509b0 f i Hooks.obj
 0001:0004f9e0       ??1item_purchase@@QAE@XZ   100509e0 f i Hooks.obj
 0001:0004fa00       ??1item_purchase_listener@item_purchase@@UAE@XZ 10050a00 f i Hooks.obj
 0001:0004fa20       ??1protect_guard@detail@@QAE@XZ 10050a20 f i Hooks.obj
 0001:0004fa50       ??1runtime_error@std@@UAE@XZ 10050a50 f i Hooks.obj
 0001:0004fa50       ??1bad_cast@std@@UAE@XZ    10050a50 f i Utilities.obj
 0001:0004fa70       ??4?$shared_ptr@VNode@valve_parser@@@std@@QAEAAV01@$$QAV01@@Z 10050a70 f i Hooks.obj
 0001:0004fab0       ??4CUserCmd@CInput@@QAEAAV01@ABV01@@Z 10050ab0 f i Hooks.obj
 0001:0004fbe0       ??4skinInfo@@QAEAAU0@ABU0@@Z 10050be0 f i Hooks.obj
 0001:0004fc20       ??A?$CUtlMemory@VGlowObjectDefinition_t@CGlowObjectManager@@H@@QAEAAVGlowObjectDefinition_t@CGlowObjectManager@@H@Z 10050c20 f i Hooks.obj
 0001:0004fc40       ??A?$CUtlVector@VGlowObjectDefinition_t@CGlowObjectManager@@V?$CUtlMemory@VGlowObjectDefinition_t@CGlowObjectManager@@H@@@@QAEAAVGlowObjectDefinition_t@CGlowObjectManager@@H@Z 10050c40 f i Hooks.obj
 0001:0004fc60       ??A?$array@D$05@std@@QAEAADI@Z 10050c60 f i Hooks.obj
 0001:0004fc60       ??A?$array@D$0M@@std@@QAEAADI@Z 10050c60 f i Hooks.obj
 0001:0004fc60       ??A?$array@D$0BM@@std@@QAEAADI@Z 10050c60 f i Hooks.obj
 0001:0004fc60       ??A?$array@D$04@std@@QAEAADI@Z 10050c60 f i Hooks.obj
 0001:0004fc60       ??A?$array@D$03@std@@QAEAADI@Z 10050c60 f i Hooks.obj
 0001:0004fc60       ??A?$array@D$06@std@@QAEAADI@Z 10050c60 f i ESP.obj
 0001:0004fc60       ??A?$array@D$00@std@@QAEAADI@Z 10050c60 f i Configuration.obj
 0001:0004fc60       ??A?$array@D$0P@@std@@QAEAADI@Z 10050c60 f i Hooks.obj
 0001:0004fc60       ??A?$array@D$0CC@@std@@QAEAADI@Z 10050c60 f i Hooks.obj
 0001:0004fc60       ??A?$array@D$0L@@std@@QAEAADI@Z 10050c60 f i ESP.obj
 0001:0004fc60       ??A?$array@D$0N@@std@@QAEAADI@Z 10050c60 f i Hooks.obj
 0001:0004fc60       ??A?$array@D$0O@@std@@QAEAADI@Z 10050c60 f i Hooks.obj
 0001:0004fc60       ??A?$array@D$0BA@@std@@QAEAADI@Z 10050c60 f i Hooks.obj
 0001:0004fc60       ??A?$array@D$0BD@@std@@QAEAADI@Z 10050c60 f i Hooks.obj
 0001:0004fc60       ??A?$array@D$09@std@@QAEAADI@Z 10050c60 f i Hooks.obj
 0001:0004fc60       ??A?$array@D$08@std@@QAEAADI@Z 10050c60 f i Hooks.obj
 0001:0004fc60       ??A?$array@D$0BG@@std@@QAEAADI@Z 10050c60 f i Hooks.obj
 0001:0004fc60       ??A?$array@D$0BC@@std@@QAEAADI@Z 10050c60 f i Hooks.obj
 0001:0004fc60       ??A?$array@D$07@std@@QAEAADI@Z 10050c60 f i ESP.obj
 0001:0004fc60       ??A?$array@D$0BB@@std@@QAEAADI@Z 10050c60 f i Hooks.obj
 0001:0004fc80       ??A?$unordered_map@V?$basic_string@DU?$char_traits@D@std@@V?$allocator@D@2@@std@@UskinInfo@@U?$hash@V?$basic_string@DU?$char_traits@D@std@@V?$allocator@D@2@@std@@@2@U?$equal_to@V?$basic_string@DU?$char_traits@D@std@@V?$allocator@D@2@@std@@@2@V?$allocator@U?$pair@$$CBV?$basic_string@DU?$char_traits@D@std@@V?$allocator@D@2@@std@@UskinInfo@@@std@@@2@@std@@QAEAAUskinInfo@@ABV?$basic_string@DU?$char_traits@D@std@@V?$allocator@D@2@@1@@Z 10050c80 f i Hooks.obj
 0001:0004fcb0       ??A?$unordered_map@V?$basic_string@DU?$char_traits@D@std@@V?$allocator@D@2@@std@@V12@U?$hash@V?$basic_string@DU?$char_traits@D@std@@V?$allocator@D@2@@std@@@2@U?$equal_to@V?$basic_string@DU?$char_traits@D@std@@V?$allocator@D@2@@std@@@2@V?$allocator@U?$pair@$$CBV?$basic_string@DU?$char_traits@D@std@@V?$allocator@D@2@@std@@V12@@std@@@2@@std@@QAEAAV?$basic_string@DU?$char_traits@D@std@@V?$allocator@D@2@@1@ABV21@@Z 10050cb0 f i Hooks.obj
 0001:0004fce0       ??A?$unordered_map@V?$basic_string@DU?$char_traits@D@std@@V?$allocator@D@2@@std@@V?$set@V?$basic_string@DU?$char_traits@D@std@@V?$allocator@D@2@@std@@U?$less@V?$basic_string@DU?$char_traits@D@std@@V?$allocator@D@2@@std@@@2@V?$allocator@V?$basic_string@DU?$char_traits@D@std@@V?$allocator@D@2@@std@@@2@@2@U?$hash@V?$basic_string@DU?$char_traits@D@std@@V?$allocator@D@2@@std@@@2@U?$equal_to@V?$basic_string@DU?$char_traits@D@std@@V?$allocator@D@2@@std@@@2@V?$allocator@U?$pair@$$CBV?$basic_string@DU?$char_traits@D@std@@V?$allocator@D@2@@std@@V?$set@V?$basic_string@DU?$char_traits@D@std@@V?$allocator@D@2@@std@@U?$less@V?$basic_string@DU?$char_traits@D@std@@V?$allocator@D@2@@std@@@2@V?$allocator@V?$basic_string@DU?$char_traits@D@std@@V?$allocator@D@2@@std@@@2@@2@@std@@@2@@std@@QAEAAV?$set@V?$basic_string@DU?$char_traits@D@std@@V?$allocator@D@2@@std@@U?$less@V?$basic_string@DU?$char_traits@D@std@@V?$allocator@D@2@@std@@@2@V?$allocator@V?$basic_string@DU?$char_traits@D@std@@V?$allocator@D@2@@std@@@2@@1@ABV?$basic_string@DU?$char_traits@D@std@@V?$allocator@D@2@@1@@Z 10050ce0 f i Hooks.obj
 0001:0004fd10       ??A?$vector@V?$_List_unchecked_iterator@V?$_List_val@U?$_List_simple_types@U?$pair@$$CBV?$basic_string@DU?$char_traits@D@std@@V?$allocator@D@2@@std@@V?$set@V?$basic_string@DU?$char_traits@D@std@@V?$allocator@D@2@@std@@U?$less@V?$basic_string@DU?$char_traits@D@std@@V?$allocator@D@2@@std@@@2@V?$allocator@V?$basic_string@DU?$char_traits@D@std@@V?$allocator@D@2@@std@@@2@@2@@std@@@std@@@std@@@std@@V?$allocator@V?$_List_unchecked_iterator@V?$_List_val@U?$_List_simple_types@U?$pair@$$CBV?$basic_string@DU?$char_traits@D@std@@V?$allocator@D@2@@std@@V?$set@V?$basic_string@DU?$char_traits@D@std@@V?$allocator@D@2@@std@@U?$less@V?$basic_string@DU?$char_traits@D@std@@V?$allocator@D@2@@std@@@2@V?$allocator@V?$basic_string@DU?$char_traits@D@std@@V?$allocator@D@2@@std@@@2@@2@@std@@@std@@@std@@@std@@@2@@std@@QAEAAV?$_List_unchecked_iterator@V?$_List_val@U?$_List_simple_types@U?$pair@$$CBV?$basic_string@DU?$char_traits@D@std@@V?$allocator@D@2@@std@@V?$set@V?$basic_string@DU?$char_traits@D@std@@V?$allocator@D@2@@std@@U?$less@V?$basic_string@DU?$char_traits@D@std@@V?$allocator@D@2@@std@@@2@V?$allocator@V?$basic_string@DU?$char_traits@D@std@@V?$allocator@D@2@@std@@@2@@2@@std@@@std@@@std@@@1@I@Z 10050d10 f i Hooks.obj
 0001:0004fd10       ??A?$vector@V?$_List_unchecked_iterator@V?$_List_val@U?$_List_simple_types@U?$pair@$$CBV?$basic_string@DU?$char_traits@D@std@@V?$allocator@D@2@@std@@UskinInfo@@@std@@@std@@@std@@@std@@V?$allocator@V?$_List_unchecked_iterator@V?$_List_val@U?$_List_simple_types@U?$pair@$$CBV?$basic_string@DU?$char_traits@D@std@@V?$allocator@D@2@@std@@UskinInfo@@@std@@@std@@@std@@@std@@@2@@std@@QAEAAV?$_List_unchecked_iterator@V?$_List_val@U?$_List_simple_types@U?$pair@$$CBV?$basic_string@DU?$char_traits@D@std@@V?$allocator@D@2@@std@@UskinInfo@@@std@@@std@@@std@@@1@I@Z 10050d10 f i Hooks.obj
 0001:0004fd10       ??A?$vector@V?$_List_unchecked_iterator@V?$_List_val@U?$_List_simple_types@U?$pair@$$CBV?$basic_string@DU?$char_traits@D@std@@V?$allocator@D@2@@std@@V12@@std@@@std@@@std@@@std@@V?$allocator@V?$_List_unchecked_iterator@V?$_List_val@U?$_List_simple_types@U?$pair@$$CBV?$basic_string@DU?$char_traits@D@std@@V?$allocator@D@2@@std@@V12@@std@@@std@@@std@@@std@@@2@@std@@QAEAAV?$_List_unchecked_iterator@V?$_List_val@U?$_List_simple_types@U?$pair@$$CBV?$basic_string@DU?$char_traits@D@std@@V?$allocator@D@2@@std@@V12@@std@@@std@@@std@@@1@I@Z 10050d10 f i Hooks.obj
 0001:0004fd30       ??AImGuiTextBuffer@@QAEDH@Z 10050d30 f i Hooks.obj
 0001:0004fd50       ??B?$shared_ptr@VNode@valve_parser@@@std@@QBE_NXZ 10050d50 f i Hooks.obj
 0001:0004fd80       ??BImColor@@QBE?AUImVec4@@XZ 10050d80 f i Hooks.obj
 0001:0004fdb0       ??C?$_List_iterator@V?$_List_val@U?$_List_simple_types@U?$pair@$$CBV?$basic_string@DU?$char_traits@D@std@@V?$allocator@D@2@@std@@V12@@std@@@std@@@std@@@std@@QBEPAU?$pair@$$CBV?$basic_string@DU?$char_traits@D@std@@V?$allocator@D@2@@std@@V12@@1@XZ 10050db0 f i Hooks.obj
 0001:0004fdb0       ??C?$_List_iterator@V?$_List_val@U?$_List_simple_types@U?$pair@$$CBV?$basic_string@DU?$char_traits@D@std@@V?$allocator@D@2@@std@@V?$set@V?$basic_string@DU?$char_traits@D@std@@V?$allocator@D@2@@std@@U?$less@V?$basic_string@DU?$char_traits@D@std@@V?$allocator@D@2@@std@@@2@V?$allocator@V?$basic_string@DU?$char_traits@D@std@@V?$allocator@D@2@@std@@@2@@2@@std@@@std@@@std@@@std@@QBEPAU?$pair@$$CBV?$basic_string@DU?$char_traits@D@std@@V?$allocator@D@2@@std@@V?$set@V?$basic_string@DU?$char_traits@D@std@@V?$allocator@D@2@@std@@U?$less@V?$basic_string@DU?$char_traits@D@std@@V?$allocator@D@2@@std@@@2@V?$allocator@V?$basic_string@DU?$char_traits@D@std@@V?$allocator@D@2@@std@@@2@@2@@1@XZ 10050db0 f i Hooks.obj
 0001:0004fdb0       ??C?$_List_iterator@V?$_List_val@U?$_List_simple_types@U?$pair@$$CBV?$basic_string@DU?$char_traits@D@std@@V?$allocator@D@2@@std@@UskinInfo@@@std@@@std@@@std@@@std@@QBEPAU?$pair@$$CBV?$basic_string@DU?$char_traits@D@std@@V?$allocator@D@2@@std@@UskinInfo@@@1@XZ 10050db0 f i Hooks.obj
 0001:0004fdd0       ??D?$_Deque_const_iterator@V?$_Deque_val@U?$_Deque_simple_types@V?$shared_ptr@VNode@valve_parser@@@std@@@std@@@std@@@std@@QBEABV?$shared_ptr@VNode@valve_parser@@@1@XZ 10050dd0 f i Hooks.obj
 0001:0004fe20       ??D?$_Deque_iterator@V?$_Deque_val@U?$_Deque_simple_types@V?$shared_ptr@VNode@valve_parser@@@std@@@std@@@std@@@std@@QBEAAV?$shared_ptr@VNode@valve_parser@@@1@XZ 10050e20 f i Hooks.obj
 0001:0004fe40       ??D?$_List_unchecked_const_iterator@V?$_List_val@U?$_List_simple_types@U?$pair@$$CBV?$basic_string@DU?$char_traits@D@std@@V?$allocator@D@2@@std@@UskinInfo@@@std@@@std@@@std@@U_Iterator_base0@2@@std@@QBEABU?$pair@$$CBV?$basic_string@DU?$char_traits@D@std@@V?$allocator@D@2@@std@@UskinInfo@@@1@XZ 10050e40 f i Hooks.obj
 0001:0004fe40       ??D?$_List_unchecked_const_iterator@V?$_List_val@U?$_List_simple_types@U?$pair@$$CBV?$basic_string@DU?$char_traits@D@std@@V?$allocator@D@2@@std@@V?$set@V?$basic_string@DU?$char_traits@D@std@@V?$allocator@D@2@@std@@U?$less@V?$basic_string@DU?$char_traits@D@std@@V?$allocator@D@2@@std@@@2@V?$allocator@V?$basic_string@DU?$char_traits@D@std@@V?$allocator@D@2@@std@@@2@@2@@std@@@std@@@std@@U_Iterator_base0@2@@std@@QBEABU?$pair@$$CBV?$basic_string@DU?$char_traits@D@std@@V?$allocator@D@2@@std@@V?$set@V?$basic_string@DU?$char_traits@D@std@@V?$allocator@D@2@@std@@U?$less@V?$basic_string@DU?$char_traits@D@std@@V?$allocator@D@2@@std@@@2@V?$allocator@V?$basic_string@DU?$char_traits@D@std@@V?$allocator@D@2@@std@@@2@@2@@1@XZ 10050e40 f i Hooks.obj
 0001:0004fe40       ??D?$_List_unchecked_const_iterator@V?$_List_val@U?$_List_simple_types@U?$pair@$$CBV?$basic_string@DU?$char_traits@D@std@@V?$allocator@D@2@@std@@V12@@std@@@std@@@std@@U_Iterator_base0@2@@std@@QBEABU?$pair@$$CBV?$basic_string@DU?$char_traits@D@std@@V?$allocator@D@2@@std@@V12@@1@XZ 10050e40 f i Hooks.obj
 0001:0004fe40       ??D?$_List_const_iterator@V?$_List_val@U?$_List_simple_types@U?$pair@$$CBV?$basic_string@DU?$char_traits@D@std@@V?$allocator@D@2@@std@@V12@@std@@@std@@@std@@@std@@QBEABU?$pair@$$CBV?$basic_string@DU?$char_traits@D@std@@V?$allocator@D@2@@std@@V12@@1@XZ 10050e40 f i Hooks.obj
 0001:0004fe40       ??D?$_List_const_iterator@V?$_List_val@U?$_List_simple_types@U?$pair@$$CBV?$basic_string@DU?$char_traits@D@std@@V?$allocator@D@2@@std@@UskinInfo@@@std@@@std@@@std@@@std@@QBEABU?$pair@$$CBV?$basic_string@DU?$char_traits@D@std@@V?$allocator@D@2@@std@@UskinInfo@@@1@XZ 10050e40 f i Hooks.obj
 0001:0004fe40       ??D?$_List_const_iterator@V?$_List_val@U?$_List_simple_types@U?$pair@$$CBV?$basic_string@DU?$char_traits@D@std@@V?$allocator@D@2@@std@@V?$set@V?$basic_string@DU?$char_traits@D@std@@V?$allocator@D@2@@std@@U?$less@V?$basic_string@DU?$char_traits@D@std@@V?$allocator@D@2@@std@@@2@V?$allocator@V?$basic_string@DU?$char_traits@D@std@@V?$allocator@D@2@@std@@@2@@2@@std@@@std@@@std@@@std@@QBEABU?$pair@$$CBV?$basic_string@DU?$char_traits@D@std@@V?$allocator@D@2@@std@@V?$set@V?$basic_string@DU?$char_traits@D@std@@V?$allocator@D@2@@std@@U?$less@V?$basic_string@DU?$char_traits@D@std@@V?$allocator@D@2@@std@@@2@V?$allocator@V?$basic_string@DU?$char_traits@D@std@@V?$allocator@D@2@@std@@@2@@2@@1@XZ 10050e40 f i Hooks.obj
 0001:0004fe60       ??D?$_List_iterator@V?$_List_val@U?$_List_simple_types@U?$pair@$$CBV?$basic_string@DU?$char_traits@D@std@@V?$allocator@D@2@@std@@V?$set@V?$basic_string@DU?$char_traits@D@std@@V?$allocator@D@2@@std@@U?$less@V?$basic_string@DU?$char_traits@D@std@@V?$allocator@D@2@@std@@@2@V?$allocator@V?$basic_string@DU?$char_traits@D@std@@V?$allocator@D@2@@std@@@2@@2@@std@@@std@@@std@@@std@@QBEAAU?$pair@$$CBV?$basic_string@DU?$char_traits@D@std@@V?$allocator@D@2@@std@@V?$set@V?$basic_string@DU?$char_traits@D@std@@V?$allocator@D@2@@std@@U?$less@V?$basic_string@DU?$char_traits@D@std@@V?$allocator@D@2@@std@@@2@V?$allocator@V?$basic_string@DU?$char_traits@D@std@@V?$allocator@D@2@@std@@@2@@2@@1@XZ 10050e60 f i Hooks.obj
 0001:0004fe60       ??D?$_List_unchecked_iterator@V?$_List_val@U?$_List_simple_types@U?$pair@$$CBV?$basic_string@DU?$char_traits@D@std@@V?$allocator@D@2@@std@@UskinInfo@@@std@@@std@@@std@@@std@@QBEAAU?$pair@$$CBV?$basic_string@DU?$char_traits@D@std@@V?$allocator@D@2@@std@@UskinInfo@@@1@XZ 10050e60 f i Hooks.obj
 0001:0004fe60       ??D?$_List_unchecked_iterator@V?$_List_val@U?$_List_simple_types@U?$pair@$$CBV?$basic_string@DU?$char_traits@D@std@@V?$allocator@D@2@@std@@V?$set@V?$basic_string@DU?$char_traits@D@std@@V?$allocator@D@2@@std@@U?$less@V?$basic_string@DU?$char_traits@D@std@@V?$allocator@D@2@@std@@@2@V?$allocator@V?$basic_string@DU?$char_traits@D@std@@V?$allocator@D@2@@std@@@2@@2@@std@@@std@@@std@@@std@@QBEAAU?$pair@$$CBV?$basic_string@DU?$char_traits@D@std@@V?$allocator@D@2@@std@@V?$set@V?$basic_string@DU?$char_traits@D@std@@V?$allocator@D@2@@std@@U?$less@V?$basic_string@DU?$char_traits@D@std@@V?$allocator@D@2@@std@@@2@V?$allocator@V?$basic_string@DU?$char_traits@D@std@@V?$allocator@D@2@@std@@@2@@2@@1@XZ 10050e60 f i Hooks.obj
 0001:0004fe60       ??D?$_List_iterator@V?$_List_val@U?$_List_simple_types@U?$pair@$$CBV?$basic_string@DU?$char_traits@D@std@@V?$allocator@D@2@@std@@V12@@std@@@std@@@std@@@std@@QBEAAU?$pair@$$CBV?$basic_string@DU?$char_traits@D@std@@V?$allocator@D@2@@std@@V12@@1@XZ 10050e60 f i Hooks.obj
 0001:0004fe60       ??D?$_List_unchecked_iterator@V?$_List_val@U?$_List_simple_types@U?$pair@$$CBV?$basic_string@DU?$char_traits@D@std@@V?$allocator@D@2@@std@@V12@@std@@@std@@@std@@@std@@QBEAAU?$pair@$$CBV?$basic_string@DU?$char_traits@D@std@@V?$allocator@D@2@@std@@V12@@1@XZ 10050e60 f i Hooks.obj
 0001:0004fe60       ??D?$_List_iterator@V?$_List_val@U?$_List_simple_types@U?$pair@$$CBV?$basic_string@DU?$char_traits@D@std@@V?$allocator@D@2@@std@@UskinInfo@@@std@@@std@@@std@@@std@@QBEAAU?$pair@$$CBV?$basic_string@DU?$char_traits@D@std@@V?$allocator@D@2@@std@@UskinInfo@@@1@XZ 10050e60 f i Hooks.obj
 0001:0004fe80       ??E?$_List_const_iterator@V?$_List_val@U?$_List_simple_types@U?$pair@$$CBV?$basic_string@DU?$char_traits@D@std@@V?$allocator@D@2@@std@@V12@@std@@@std@@@std@@@std@@QAE?AV01@H@Z 10050e80 f i Hooks.obj
 0001:0004fe80       ??E?$_List_const_iterator@V?$_List_val@U?$_List_simple_types@U?$pair@$$CBV?$basic_string@DU?$char_traits@D@std@@V?$allocator@D@2@@std@@V?$set@V?$basic_string@DU?$char_traits@D@std@@V?$allocator@D@2@@std@@U?$less@V?$basic_string@DU?$char_traits@D@std@@V?$allocator@D@2@@std@@@2@V?$allocator@V?$basic_string@DU?$char_traits@D@std@@V?$allocator@D@2@@std@@@2@@2@@std@@@std@@@std@@@std@@QAE?AV01@H@Z 10050e80 f i Hooks.obj
 0001:0004fe80       ??E?$_List_const_iterator@V?$_List_val@U?$_List_simple_types@U?$pair@$$CBV?$basic_string@DU?$char_traits@D@std@@V?$allocator@D@2@@std@@UskinInfo@@@std@@@std@@@std@@@std@@QAE?AV01@H@Z 10050e80 f i Hooks.obj
 0001:0004feb0       ??E?$_List_unchecked_const_iterator@V?$_List_val@U?$_List_simple_types@U?$pair@$$CBV?$basic_string@DU?$char_traits@D@std@@V?$allocator@D@2@@std@@V?$set@V?$basic_string@DU?$char_traits@D@std@@V?$allocator@D@2@@std@@U?$less@V?$basic_string@DU?$char_traits@D@std@@V?$allocator@D@2@@std@@@2@V?$allocator@V?$basic_string@DU?$char_traits@D@std@@V?$allocator@D@2@@std@@@2@@2@@std@@@std@@@std@@U_Iterator_base0@2@@std@@QAEAAV01@XZ 10050eb0 f i Hooks.obj
 0001:0004feb0       ??E?$_List_unchecked_const_iterator@V?$_List_val@U?$_List_simple_types@U?$pair@$$CBV?$basic_string@DU?$char_traits@D@std@@V?$allocator@D@2@@std@@UskinInfo@@@std@@@std@@@std@@U_Iterator_base0@2@@std@@QAEAAV01@XZ 10050eb0 f i Hooks.obj
 0001:0004feb0       ??E?$_List_const_iterator@V?$_List_val@U?$_List_simple_types@U?$pair@$$CBV?$basic_string@DU?$char_traits@D@std@@V?$allocator@D@2@@std@@V12@@std@@@std@@@std@@@std@@QAEAAV01@XZ 10050eb0 f i Hooks.obj
 0001:0004feb0       ??E?$_List_const_iterator@V?$_List_val@U?$_List_simple_types@U?$pair@$$CBV?$basic_string@DU?$char_traits@D@std@@V?$allocator@D@2@@std@@V?$set@V?$basic_string@DU?$char_traits@D@std@@V?$allocator@D@2@@std@@U?$less@V?$basic_string@DU?$char_traits@D@std@@V?$allocator@D@2@@std@@@2@V?$allocator@V?$basic_string@DU?$char_traits@D@std@@V?$allocator@D@2@@std@@@2@@2@@std@@@std@@@std@@@std@@QAEAAV01@XZ 10050eb0 f i Hooks.obj
 0001:0004feb0       ??E?$_List_unchecked_const_iterator@V?$_List_val@U?$_List_simple_types@U?$pair@$$CBV?$basic_string@DU?$char_traits@D@std@@V?$allocator@D@2@@std@@V12@@std@@@std@@@std@@U_Iterator_base0@2@@std@@QAEAAV01@XZ 10050eb0 f i Hooks.obj
 0001:0004feb0       ??E?$_List_const_iterator@V?$_List_val@U?$_List_simple_types@U?$pair@$$CBV?$basic_string@DU?$char_traits@D@std@@V?$allocator@D@2@@std@@UskinInfo@@@std@@@std@@@std@@@std@@QAEAAV01@XZ 10050eb0 f i Hooks.obj
 0001:0004fed0       ??E?$_List_unchecked_iterator@V?$_List_val@U?$_List_simple_types@U?$pair@$$CBV?$basic_string@DU?$char_traits@D@std@@V?$allocator@D@2@@std@@V?$set@V?$basic_string@DU?$char_traits@D@std@@V?$allocator@D@2@@std@@U?$less@V?$basic_string@DU?$char_traits@D@std@@V?$allocator@D@2@@std@@@2@V?$allocator@V?$basic_string@DU?$char_traits@D@std@@V?$allocator@D@2@@std@@@2@@2@@std@@@std@@@std@@@std@@QAEAAV01@XZ 10050ed0 f i Hooks.obj
 0001:0004fed0       ??E?$_List_unchecked_iterator@V?$_List_val@U?$_List_simple_types@U?$pair@$$CBV?$basic_string@DU?$char_traits@D@std@@V?$allocator@D@2@@std@@UskinInfo@@@std@@@std@@@std@@@std@@QAEAAV01@XZ 10050ed0 f i Hooks.obj
 0001:0004fed0       ??E?$_List_unchecked_iterator@V?$_List_val@U?$_List_simple_types@U?$pair@$$CBV?$basic_string@DU?$char_traits@D@std@@V?$allocator@D@2@@std@@V12@@std@@@std@@@std@@@std@@QAEAAV01@XZ 10050ed0 f i Hooks.obj
 0001:0004fef0       ??F?$_List_unchecked_const_iterator@V?$_List_val@U?$_List_simple_types@U?$pair@$$CBV?$basic_string@DU?$char_traits@D@std@@V?$allocator@D@2@@std@@V?$set@V?$basic_string@DU?$char_traits@D@std@@V?$allocator@D@2@@std@@U?$less@V?$basic_string@DU?$char_traits@D@std@@V?$allocator@D@2@@std@@@2@V?$allocator@V?$basic_string@DU?$char_traits@D@std@@V?$allocator@D@2@@std@@@2@@2@@std@@@std@@@std@@U_Iterator_base0@2@@std@@QAEAAV01@XZ 10050ef0 f i Hooks.obj
 0001:0004fef0       ??F?$_List_unchecked_const_iterator@V?$_List_val@U?$_List_simple_types@U?$pair@$$CBV?$basic_string@DU?$char_traits@D@std@@V?$allocator@D@2@@std@@V12@@std@@@std@@@std@@U_Iterator_base0@2@@std@@QAEAAV01@XZ 10050ef0 f i Hooks.obj
 0001:0004fef0       ??F?$_List_unchecked_const_iterator@V?$_List_val@U?$_List_simple_types@U?$pair@$$CBV?$basic_string@DU?$char_traits@D@std@@V?$allocator@D@2@@std@@UskinInfo@@@std@@@std@@@std@@U_Iterator_base0@2@@std@@QAEAAV01@XZ 10050ef0 f i Hooks.obj
 0001:0004ff10       ??F?$_List_unchecked_iterator@V?$_List_val@U?$_List_simple_types@U?$pair@$$CBV?$basic_string@DU?$char_traits@D@std@@V?$allocator@D@2@@std@@V?$set@V?$basic_string@DU?$char_traits@D@std@@V?$allocator@D@2@@std@@U?$less@V?$basic_string@DU?$char_traits@D@std@@V?$allocator@D@2@@std@@@2@V?$allocator@V?$basic_string@DU?$char_traits@D@std@@V?$allocator@D@2@@std@@@2@@2@@std@@@std@@@std@@@std@@QAEAAV01@XZ 10050f10 f i Hooks.obj
 0001:0004ff10       ??F?$_List_unchecked_iterator@V?$_List_val@U?$_List_simple_types@U?$pair@$$CBV?$basic_string@DU?$char_traits@D@std@@V?$allocator@D@2@@std@@V12@@std@@@std@@@std@@@std@@QAEAAV01@XZ 10050f10 f i Hooks.obj
 0001:0004ff10       ??F?$_List_unchecked_iterator@V?$_List_val@U?$_List_simple_types@U?$pair@$$CBV?$basic_string@DU?$char_traits@D@std@@V?$allocator@D@2@@std@@UskinInfo@@@std@@@std@@@std@@@std@@QAEAAV01@XZ 10050f10 f i Hooks.obj
 0001:0004ff30       ??R?$_Uhash_compare@V?$basic_string@DU?$char_traits@D@std@@V?$allocator@D@2@@std@@U?$hash@V?$basic_string@DU?$char_traits@D@std@@V?$allocator@D@2@@std@@@2@U?$equal_to@V?$basic_string@DU?$char_traits@D@std@@V?$allocator@D@2@@std@@@2@@std@@QBEIABV?$basic_string@DU?$char_traits@D@std@@V?$allocator@D@2@@1@@Z 10050f30 f i Hooks.obj
 0001:0004ff50       ??R?$_Uhash_compare@V?$basic_string@DU?$char_traits@D@std@@V?$allocator@D@2@@std@@U?$hash@V?$basic_string@DU?$char_traits@D@std@@V?$allocator@D@2@@std@@@2@U?$equal_to@V?$basic_string@DU?$char_traits@D@std@@V?$allocator@D@2@@std@@@2@@std@@QBE_NABV?$basic_string@DU?$char_traits@D@std@@V?$allocator@D@2@@1@0@Z 10050f50 f i Hooks.obj
 0001:0004ff90       ??R?$equal_to@V?$basic_string@DU?$char_traits@D@std@@V?$allocator@D@2@@std@@@std@@QBE_NABV?$basic_string@DU?$char_traits@D@std@@V?$allocator@D@2@@1@0@Z 10050f90 f i Hooks.obj
 0001:0004ffb0       ??R?$hash@V?$basic_string@DU?$char_traits@D@std@@V?$allocator@D@2@@std@@@std@@QBEIABV?$basic_string@DU?$char_traits@D@std@@V?$allocator@D@2@@1@@Z 10050fb0 f i Hooks.obj
 0001:0004ffe0       ??R?$less@V?$basic_string@DU?$char_traits@D@std@@V?$allocator@D@2@@std@@@std@@QBE_NABV?$basic_string@DU?$char_traits@D@std@@V?$allocator@D@2@@1@0@Z 10050fe0 f i Hooks.obj
 0001:00050000       ??_G?$_Ref_count_obj@VNode@valve_parser@@@std@@UAEPAXI@Z 10051000 f i Hooks.obj
 0001:00050000       ??_E?$_Ref_count_obj@VNode@valve_parser@@@std@@UAEPAXI@Z 10051000 f i Hooks.obj
 0001:00050030       ??_EIGameEventListener2@@UAEPAXI@Z 10051030 f i Hooks.obj
 0001:00050030       ??_GIGameEventListener2@@UAEPAXI@Z 10051030 f i Hooks.obj
 0001:00050060       ??_GNode@valve_parser@@QAEPAXI@Z 10051060 f i Hooks.obj
 0001:00050090       ??_GRenderer@@QAEPAXI@Z    10051090 f i Hooks.obj
 0001:000500c0       ??_Gexception@std@@UAEPAXI@Z 100510c0 f i Hooks.obj
 0001:000500c0       ??_Eexception@std@@UAEPAXI@Z 100510c0 f i Hooks.obj
 0001:000500f0       ??_Gitem_purchase_listener@item_purchase@@UAEPAXI@Z 100510f0 f i Hooks.obj
 0001:000500f0       ??_Eitem_purchase_listener@item_purchase@@UAEPAXI@Z 100510f0 f i Hooks.obj
 0001:00050120       ??_Gbad_cast@std@@UAEPAXI@Z 10051120 f i Utilities.obj
 0001:00050120       ??_Eruntime_error@std@@UAEPAXI@Z 10051120 f i Hooks.obj
 0001:00050120       ??_Gruntime_error@std@@UAEPAXI@Z 10051120 f i Hooks.obj
 0001:00050120       ??_Ebad_cast@std@@UAEPAXI@Z 10051120 f i Utilities.obj
 0001:00050150       ?AccountID@CBaseCombatWeapon@@QAEPAHXZ 10051150 f i Hooks.obj
 0001:00050170       ?AddLog@AppLog@@QAAXPBDZZ  10051170 f i Hooks.obj
 0001:00050200       ?BreadthFirstSearch@Document@valve_parser@@QAE?AV?$shared_ptr@VNode@valve_parser@@@std@@PAD_N@Z 10051200 f i Hooks.obj
 0001:00050510       ?BreadthFirstSearchMultiple@Document@valve_parser@@QAE?AV?$vector@V?$shared_ptr@VNode@valve_parser@@@std@@V?$allocator@V?$shared_ptr@VNode@valve_parser@@@std@@@2@@std@@PAD_N@Z 10051510 f i Hooks.obj
 0001:00050790       ?CRC32_Final@@YAXPAK@Z     10051790 f i Hooks.obj
 0001:000507b0       ?CRC32_Init@@YAXPAK@Z      100517b0 f i Hooks.obj
 0001:000507c0       ?CRC32_ProcessBuffer@@YAXPAKPBXH@Z 100517c0 f i Hooks.obj
 0001:00050b00       ?ClientCmd_Unrestricted@IVEngineClient@@QAEXPBD@Z 10051b00 f i Hooks.obj
 0001:00050b30       ?Count@?$CUtlVector@VGlowObjectDefinition_t@CGlowObjectManager@@V?$CUtlMemory@VGlowObjectDefinition_t@CGlowObjectManager@@H@@@@QBEHXZ 10051b30 f i Hooks.obj
 0001:00050b30       ?rdstate@ios_base@std@@QBEHXZ 10051b30 f i Utilities.obj
 0001:00050b50       ?Draw@AppLog@@QAEXPBD_N@Z  10051b50 f i Hooks.obj
 0001:00050bc0       ?FallbackPaintKit@CBaseAttributableItem@@QAEPAHXZ 10051bc0 f i Hooks.obj
 0001:00050be0       ?FallbackSeed@CBaseAttributableItem@@QAEPAHXZ 10051be0 f i Hooks.obj
 0001:00050c00       ?FallbackStatTrak@CBaseAttributableItem@@QAEPAHXZ 10051c00 f i Hooks.obj
 0001:00050c20       ?FallbackWear@CBaseAttributableItem@@QAEPAMXZ 10051c20 f i Hooks.obj
 0001:00050c40       ?FindMaterial@CMaterialSystem@@QAEPAVIMaterial@@PBD0_N0@Z 10051c40 f i Hooks.obj
 0001:00050c80       ?FireGameEvent@item_purchase_listener@item_purchase@@UAEXPAVIGameEvent@@@Z 10051c80 f i Hooks.obj
 0001:00050ca0       ?GetChecksum@CUserCmd@CInput@@QBEKXZ 10051ca0 f i Hooks.obj
 0001:00050df0       ?GetEntityQuality@CBaseAttributableItem@@QAEPAHXZ 10051df0 f i Hooks.obj
 0001:00050e10       ?GetEventDebugID@item_purchase_listener@item_purchase@@UAEHXZ 10051e10 f i Hooks.obj
 0001:00050e20       ?GetInt@IGameEvent@@QAEHPBDH@Z 10051e20 f i Hooks.obj
 0001:00050e50       ?GetLowerBodyYaw@C_BaseEntity@@QAEMXZ 10051e50 f i Hooks.obj
 0001:00050e70       ?GetName@IPanel@@QAEPBDI@Z 10051e70 f i Hooks.obj
 0001:00050ea0       ?GetPlayerForUserID@IVEngineClient@@QAEHH@Z 10051ea0 f i Hooks.obj
 0001:00050ed0       ?GetString@IGameEvent@@QAEPBDPBD@Z 10051ed0 f i Hooks.obj
 0001:00050f00       ?GetUserCmd@CInput@@QAEPAVCUserCmd@1@HH@Z 10051f00 f i Hooks.obj
 0001:00050f30       ?GetViewPunchAngle@CLocalPlayerExclusive@@QAE?AVVector@@XZ 10051f30 f i Hooks.obj
 0001:00050f60       ?GetWearables@C_BaseEntity@@QAEPAKXZ 10051f60 f i Hooks.obj
 0001:00050f80       ?HSV@ImColor@@SA?AU1@MMMM@Z 10051f80 f i Hooks.obj
 0001:00051000       ?IsConnected@IVEngineClient@@QAE_NXZ 10052000 f i Hooks.obj
 0001:00051020       ?IsInGame@IVEngineClient@@QAE_NXZ 10052020 f i Hooks.obj
 0001:00051040       ?IsUnused@GlowObjectDefinition_t@CGlowObjectManager@@QBE_NXZ 10052040 f i Hooks.obj
 0001:00051070       ?ItemDefinitionIndex@CBaseAttributableItem@@QAEPAHXZ 10052070 f i Hooks.obj
 0001:00051090       ?ItemIDHigh@CBaseAttributableItem@@QAEPAHXZ 10052090 f i Hooks.obj
 0001:000510b0       ?Load@Document@valve_parser@@QAE_NPADW4ENCODING@2@@Z 100520b0 f i Hooks.obj
 0001:00051220       ?ModelIndex@CBaseCombatWeapon@@QAEPAHXZ 10052220 f i Hooks.obj
 0001:00051240       ?OwnerXuidHigh@CBaseAttributableItem@@QAEPAHXZ 10052240 f i Hooks.obj
 0001:00051260       ?OwnerXuidLow@CBaseAttributableItem@@QAEPAHXZ 10052260 f i Hooks.obj
 0001:00051280       ?ParseDeep@Document@valve_parser@@AAE_NXZ 10052280 f i Hooks.obj
 0001:000512e0       ?PreDataUpdate@CGloves@@QAEXH@Z 100522e0 f i Hooks.obj
 0001:00051310       ?RankReveal@@YAXPAVCUserCmd@CInput@@@Z 10052310 f i Hooks.obj
 0001:000513e0       ?Release@CBaseCombatWeapon@@QAEXXZ 100523e0 f i Hooks.obj
 0001:00051410       ?SetDestroyedOnRecreateEntities@CBaseCombatWeapon@@QAEXXZ 10052410 f i Hooks.obj
 0001:00051440       ?SetGloveModelIndex@CGloves@@QAEXH@Z 10052440 f i Hooks.obj
 0001:00051470       ?SetViewAngles@IVEngineClient@@QAEXAAVVector@@@Z 10052470 f i Hooks.obj
 0001:000514a0       ?StrEquI@Util@valve_parser@@SA_NVStr@2@PAD@Z 100524a0 f i Hooks.obj
 0001:000514f0       ?ViewModelIndex@CBaseCombatWeapon@@QAEPAHXZ 100524f0 f i Hooks.obj
 0001:00051510       ?_Adopt@_Iterator_base12@std@@QAEXPBU_Container_base12@2@@Z 10052510 f i Hooks.obj
 0001:00051540       ?_Alloc_proxy@?$_Deque_alloc@U?$_Deque_base_types@V?$shared_ptr@VNode@valve_parser@@@std@@V?$allocator@V?$shared_ptr@VNode@valve_parser@@@std@@@2@@std@@@std@@QAEXXZ 10052540 f i Hooks.obj
 0001:000515c0       ?_Begin@?$_Hash@V?$_Umap_traits@V?$basic_string@DU?$char_traits@D@std@@V?$allocator@D@2@@std@@V?$set@V?$basic_string@DU?$char_traits@D@std@@V?$allocator@D@2@@std@@U?$less@V?$basic_string@DU?$char_traits@D@std@@V?$allocator@D@2@@std@@@2@V?$allocator@V?$basic_string@DU?$char_traits@D@std@@V?$allocator@D@2@@std@@@2@@2@V?$_Uhash_compare@V?$basic_string@DU?$char_traits@D@std@@V?$allocator@D@2@@std@@U?$hash@V?$basic_string@DU?$char_traits@D@std@@V?$allocator@D@2@@std@@@2@U?$equal_to@V?$basic_string@DU?$char_traits@D@std@@V?$allocator@D@2@@std@@@2@@2@V?$allocator@U?$pair@$$CBV?$basic_string@DU?$char_traits@D@std@@V?$allocator@D@2@@std@@V?$set@V?$basic_string@DU?$char_traits@D@std@@V?$allocator@D@2@@std@@U?$less@V?$basic_string@DU?$char_traits@D@std@@V?$allocator@D@2@@std@@@2@V?$allocator@V?$basic_string@DU?$char_traits@D@std@@V?$allocator@D@2@@std@@@2@@2@@std@@@2@$0A@@std@@@std@@IAE?AV?$_List_unchecked_iterator@V?$_List_val@U?$_List_simple_types@U?$pair@$$CBV?$basic_string@DU?$char_traits@D@std@@V?$allocator@D@2@@std@@V?$set@V?$basic_string@DU?$char_traits@D@std@@V?$allocator@D@2@@std@@U?$less@V?$basic_string@DU?$char_traits@D@std@@V?$allocator@D@2@@std@@@2@V?$allocator@V?$basic_string@DU?$char_traits@D@std@@V?$allocator@D@2@@std@@@2@@2@@std@@@std@@@std@@@2@I@Z 100525c0 f i Hooks.obj
 0001:000515c0       ?_Begin@?$_Hash@V?$_Umap_traits@V?$basic_string@DU?$char_traits@D@std@@V?$allocator@D@2@@std@@UskinInfo@@V?$_Uhash_compare@V?$basic_string@DU?$char_traits@D@std@@V?$allocator@D@2@@std@@U?$hash@V?$basic_string@DU?$char_traits@D@std@@V?$allocator@D@2@@std@@@2@U?$equal_to@V?$basic_string@DU?$char_traits@D@std@@V?$allocator@D@2@@std@@@2@@2@V?$allocator@U?$pair@$$CBV?$basic_string@DU?$char_traits@D@std@@V?$allocator@D@2@@std@@UskinInfo@@@std@@@2@$0A@@std@@@std@@IAE?AV?$_List_unchecked_iterator@V?$_List_val@U?$_List_simple_types@U?$pair@$$CBV?$basic_string@DU?$char_traits@D@std@@V?$allocator@D@2@@std@@UskinInfo@@@std@@@std@@@std@@@2@I@Z 100525c0 f i Hooks.obj
 0001:000515c0       ?_Begin@?$_Hash@V?$_Umap_traits@V?$basic_string@DU?$char_traits@D@std@@V?$allocator@D@2@@std@@V12@V?$_Uhash_compare@V?$basic_string@DU?$char_traits@D@std@@V?$allocator@D@2@@std@@U?$hash@V?$basic_string@DU?$char_traits@D@std@@V?$allocator@D@2@@std@@@2@U?$equal_to@V?$basic_string@DU?$char_traits@D@std@@V?$allocator@D@2@@std@@@2@@2@V?$allocator@U?$pair@$$CBV?$basic_string@DU?$char_traits@D@std@@V?$allocator@D@2@@std@@V12@@std@@@2@$0A@@std@@@std@@IAE?AV?$_List_unchecked_iterator@V?$_List_val@U?$_List_simple_types@U?$pair@$$CBV?$basic_string@DU?$char_traits@D@std@@V?$allocator@D@2@@std@@V12@@std@@@std@@@std@@@2@I@Z 100525c0 f i Hooks.obj
 0001:000515f0       ?_Buy@?$vector@V?$basic_string@DU?$char_traits@D@std@@V?$allocator@D@2@@std@@V?$allocator@V?$basic_string@DU?$char_traits@D@std@@V?$allocator@D@2@@std@@@2@@std@@AAE_NI@Z 100525f0 f i Hooks.obj
 0001:000516a0       ?_Buyheadnode@?$_List_alloc@U?$_List_base_types@U?$pair@QADPAD@std@@V?$allocator@U?$pair@QADPAD@std@@@2@@std@@@std@@QAEPAU?$_List_node@U?$pair@QADPAD@std@@PAX@2@XZ 100526a0 f i Hooks.obj
 0001:000516c0       ?_Buyheadnode@?$_Tree_comp_alloc@V?$_Tset_traits@V?$basic_string@DU?$char_traits@D@std@@V?$allocator@D@2@@std@@U?$less@V?$basic_string@DU?$char_traits@D@std@@V?$allocator@D@2@@std@@@2@V?$allocator@V?$basic_string@DU?$char_traits@D@std@@V?$allocator@D@2@@std@@@2@$0A@@std@@@std@@QAEPAU?$_Tree_node@V?$basic_string@DU?$char_traits@D@std@@V?$allocator@D@2@@std@@PAX@2@XZ 100526c0 f i Hooks.obj
 0001:000517c0       ?_Buynode0@?$_List_alloc@U?$_List_base_types@U?$pair@QADPAD@std@@V?$allocator@U?$pair@QADPAD@std@@@2@@std@@@std@@QAEPAU?$_List_node@U?$pair@QADPAD@std@@PAX@2@PAU32@0@Z 100527c0 f i Hooks.obj
 0001:000518a0       ?_Buynode0@?$_Tree_comp_alloc@V?$_Tset_traits@V?$basic_string@DU?$char_traits@D@std@@V?$allocator@D@2@@std@@U?$less@V?$basic_string@DU?$char_traits@D@std@@V?$allocator@D@2@@std@@@2@V?$allocator@V?$basic_string@DU?$char_traits@D@std@@V?$allocator@D@2@@std@@@2@$0A@@std@@@std@@QAEPAU?$_Tree_node@V?$basic_string@DU?$char_traits@D@std@@V?$allocator@D@2@@std@@PAX@2@XZ 100528a0 f i Hooks.obj
 0001:000519a0       ?_Check_size@?$_Hash@V?$_Umap_traits@V?$basic_string@DU?$char_traits@D@std@@V?$allocator@D@2@@std@@UskinInfo@@V?$_Uhash_compare@V?$basic_string@DU?$char_traits@D@std@@V?$allocator@D@2@@std@@U?$hash@V?$basic_string@DU?$char_traits@D@std@@V?$allocator@D@2@@std@@@2@U?$equal_to@V?$basic_string@DU?$char_traits@D@std@@V?$allocator@D@2@@std@@@2@@2@V?$allocator@U?$pair@$$CBV?$basic_string@DU?$char_traits@D@std@@V?$allocator@D@2@@std@@UskinInfo@@@std@@@2@$0A@@std@@@std@@IAEXXZ 100529a0 f i Hooks.obj
 0001:00051a30       ?_Check_size@?$_Hash@V?$_Umap_traits@V?$basic_string@DU?$char_traits@D@std@@V?$allocator@D@2@@std@@V12@V?$_Uhash_compare@V?$basic_string@DU?$char_traits@D@std@@V?$allocator@D@2@@std@@U?$hash@V?$basic_string@DU?$char_traits@D@std@@V?$allocator@D@2@@std@@@2@U?$equal_to@V?$basic_string@DU?$char_traits@D@std@@V?$allocator@D@2@@std@@@2@@2@V?$allocator@U?$pair@$$CBV?$basic_string@DU?$char_traits@D@std@@V?$allocator@D@2@@std@@V12@@std@@@2@$0A@@std@@@std@@IAEXXZ 10052a30 f i Hooks.obj
 0001:00051ac0       ?_Check_size@?$_Hash@V?$_Umap_traits@V?$basic_string@DU?$char_traits@D@std@@V?$allocator@D@2@@std@@V?$set@V?$basic_string@DU?$char_traits@D@std@@V?$allocator@D@2@@std@@U?$less@V?$basic_string@DU?$char_traits@D@std@@V?$allocator@D@2@@std@@@2@V?$allocator@V?$basic_string@DU?$char_traits@D@std@@V?$allocator@D@2@@std@@@2@@2@V?$_Uhash_compare@V?$basic_string@DU?$char_traits@D@std@@V?$allocator@D@2@@std@@U?$hash@V?$basic_string@DU?$char_traits@D@std@@V?$allocator@D@2@@std@@@2@U?$equal_to@V?$basic_string@DU?$char_traits@D@std@@V?$allocator@D@2@@std@@@2@@2@V?$allocator@U?$pair@$$CBV?$basic_string@DU?$char_traits@D@std@@V?$allocator@D@2@@std@@V?$set@V?$basic_string@DU?$char_traits@D@std@@V?$allocator@D@2@@std@@U?$less@V?$basic_string@DU?$char_traits@D@std@@V?$allocator@D@2@@std@@@2@V?$allocator@V?$basic_string@DU?$char_traits@D@std@@V?$allocator@D@2@@std@@@2@@2@@std@@@2@$0A@@std@@@std@@IAEXXZ 10052ac0 f i Hooks.obj
 0001:00051b50       ?_Clamp_suffix_size@?$_String_val@U?$_Simple_types@D@std@@@std@@QBEIII@Z 10052b50 f i Hooks.obj
 0001:00051b80       ?_Construct@?$_Tree_comp_alloc@V?$_Tset_traits@V?$basic_string@DU?$char_traits@D@std@@V?$allocator@D@2@@std@@U?$less@V?$basic_string@DU?$char_traits@D@std@@V?$allocator@D@2@@std@@@2@V?$allocator@V?$basic_string@DU?$char_traits@D@std@@V?$allocator@D@2@@std@@@2@$0A@@std@@@std@@QAEXXZ 10052b80 f i Hooks.obj
 0001:00051bb0       ?_Destroy@?$_Ref_count_obj@VNode@valve_parser@@@std@@EAEXXZ 10052bb0 f i Hooks.obj
 0001:00051bf0       ?_Destroy_if_not_nil@?$_Hash@V?$_Umap_traits@V?$basic_string@DU?$char_traits@D@std@@V?$allocator@D@2@@std@@UskinInfo@@V?$_Uhash_compare@V?$basic_string@DU?$char_traits@D@std@@V?$allocator@D@2@@std@@U?$hash@V?$basic_string@DU?$char_traits@D@std@@V?$allocator@D@2@@std@@@2@U?$equal_to@V?$basic_string@DU?$char_traits@D@std@@V?$allocator@D@2@@std@@@2@@2@V?$allocator@U?$pair@$$CBV?$basic_string@DU?$char_traits@D@std@@V?$allocator@D@2@@std@@UskinInfo@@@std@@@2@$0A@@std@@@std@@IAEXV?$_List_unchecked_iterator@V?$_List_val@U?$_List_simple_types@U?$pair@$$CBV?$basic_string@DU?$char_traits@D@std@@V?$allocator@D@2@@std@@UskinInfo@@@std@@@std@@@std@@@2@@Z 10052bf0 f i Hooks.obj
 0001:00051c30       ?_Destroy_if_not_nil@?$_Hash@V?$_Umap_traits@V?$basic_string@DU?$char_traits@D@std@@V?$allocator@D@2@@std@@V12@V?$_Uhash_compare@V?$basic_string@DU?$char_traits@D@std@@V?$allocator@D@2@@std@@U?$hash@V?$basic_string@DU?$char_traits@D@std@@V?$allocator@D@2@@std@@@2@U?$equal_to@V?$basic_string@DU?$char_traits@D@std@@V?$allocator@D@2@@std@@@2@@2@V?$allocator@U?$pair@$$CBV?$basic_string@DU?$char_traits@D@std@@V?$allocator@D@2@@std@@V12@@std@@@2@$0A@@std@@@std@@IAEXV?$_List_unchecked_iterator@V?$_List_val@U?$_List_simple_types@U?$pair@$$CBV?$basic_string@DU?$char_traits@D@std@@V?$allocator@D@2@@std@@V12@@std@@@std@@@std@@@2@@Z 10052c30 f i Hooks.obj
 0001:00051c70       ?_Destroy_if_not_nil@?$_Hash@V?$_Umap_traits@V?$basic_string@DU?$char_traits@D@std@@V?$allocator@D@2@@std@@V?$set@V?$basic_string@DU?$char_traits@D@std@@V?$allocator@D@2@@std@@U?$less@V?$basic_string@DU?$char_traits@D@std@@V?$allocator@D@2@@std@@@2@V?$allocator@V?$basic_string@DU?$char_traits@D@std@@V?$allocator@D@2@@std@@@2@@2@V?$_Uhash_compare@V?$basic_string@DU?$char_traits@D@std@@V?$allocator@D@2@@std@@U?$hash@V?$basic_string@DU?$char_traits@D@std@@V?$allocator@D@2@@std@@@2@U?$equal_to@V?$basic_string@DU?$char_traits@D@std@@V?$allocator@D@2@@std@@@2@@2@V?$allocator@U?$pair@$$CBV?$basic_string@DU?$char_traits@D@std@@V?$allocator@D@2@@std@@V?$set@V?$basic_string@DU?$char_traits@D@std@@V?$allocator@D@2@@std@@U?$less@V?$basic_string@DU?$char_traits@D@std@@V?$allocator@D@2@@std@@@2@V?$allocator@V?$basic_string@DU?$char_traits@D@std@@V?$allocator@D@2@@std@@@2@@2@@std@@@2@$0A@@std@@@std@@IAEXV?$_List_unchecked_iterator@V?$_List_val@U?$_List_simple_types@U?$pair@$$CBV?$basic_string@DU?$char_traits@D@std@@V?$allocator@D@2@@std@@V?$set@V?$basic_string@DU?$char_traits@D@std@@V?$allocator@D@2@@std@@U?$less@V?$basic_string@DU?$char_traits@D@std@@V?$allocator@D@2@@std@@@2@V?$allocator@V?$basic_string@DU?$char_traits@D@std@@V?$allocator@D@2@@std@@@2@@2@@std@@@std@@@std@@@2@@Z 10052c70 f i Hooks.obj
 0001:00051cb0       ?_End@?$_Hash@V?$_Umap_traits@V?$basic_string@DU?$char_traits@D@std@@V?$allocator@D@2@@std@@V12@V?$_Uhash_compare@V?$basic_string@DU?$char_traits@D@std@@V?$allocator@D@2@@std@@U?$hash@V?$basic_string@DU?$char_traits@D@std@@V?$allocator@D@2@@std@@@2@U?$equal_to@V?$basic_string@DU?$char_traits@D@std@@V?$allocator@D@2@@std@@@2@@2@V?$allocator@U?$pair@$$CBV?$basic_string@DU?$char_traits@D@std@@V?$allocator@D@2@@std@@V12@@std@@@2@$0A@@std@@@std@@IAE?AV?$_List_unchecked_iterator@V?$_List_val@U?$_List_simple_types@U?$pair@$$CBV?$basic_string@DU?$char_traits@D@std@@V?$allocator@D@2@@std@@V12@@std@@@std@@@std@@@2@I@Z 10052cb0 f i Hooks.obj
 0001:00051cb0       ?_End@?$_Hash@V?$_Umap_traits@V?$basic_string@DU?$char_traits@D@std@@V?$allocator@D@2@@std@@UskinInfo@@V?$_Uhash_compare@V?$basic_string@DU?$char_traits@D@std@@V?$allocator@D@2@@std@@U?$hash@V?$basic_string@DU?$char_traits@D@std@@V?$allocator@D@2@@std@@@2@U?$equal_to@V?$basic_string@DU?$char_traits@D@std@@V?$allocator@D@2@@std@@@2@@2@V?$allocator@U?$pair@$$CBV?$basic_string@DU?$char_traits@D@std@@V?$allocator@D@2@@std@@UskinInfo@@@std@@@2@$0A@@std@@@std@@IAE?AV?$_List_unchecked_iterator@V?$_List_val@U?$_List_simple_types@U?$pair@$$CBV?$basic_string@DU?$char_traits@D@std@@V?$allocator@D@2@@std@@UskinInfo@@@std@@@std@@@std@@@2@I@Z 10052cb0 f i Hooks.obj
 0001:00051cb0       ?_End@?$_Hash@V?$_Umap_traits@V?$basic_string@DU?$char_traits@D@std@@V?$allocator@D@2@@std@@V?$set@V?$basic_string@DU?$char_traits@D@std@@V?$allocator@D@2@@std@@U?$less@V?$basic_string@DU?$char_traits@D@std@@V?$allocator@D@2@@std@@@2@V?$allocator@V?$basic_string@DU?$char_traits@D@std@@V?$allocator@D@2@@std@@@2@@2@V?$_Uhash_compare@V?$basic_string@DU?$char_traits@D@std@@V?$allocator@D@2@@std@@U?$hash@V?$basic_string@DU?$char_traits@D@std@@V?$allocator@D@2@@std@@@2@U?$equal_to@V?$basic_string@DU?$char_traits@D@std@@V?$allocator@D@2@@std@@@2@@2@V?$allocator@U?$pair@$$CBV?$basic_string@DU?$char_traits@D@std@@V?$allocator@D@2@@std@@V?$set@V?$basic_string@DU?$char_traits@D@std@@V?$allocator@D@2@@std@@U?$less@V?$basic_string@DU?$char_traits@D@std@@V?$allocator@D@2@@std@@@2@V?$allocator@V?$basic_string@DU?$char_traits@D@std@@V?$allocator@D@2@@std@@@2@@2@@std@@@2@$0A@@std@@@std@@IAE?AV?$_List_unchecked_iterator@V?$_List_val@U?$_List_simple_types@U?$pair@$$CBV?$basic_string@DU?$char_traits@D@std@@V?$allocator@D@2@@std@@V?$set@V?$basic_string@DU?$char_traits@D@std@@V?$allocator@D@2@@std@@U?$less@V?$basic_string@DU?$char_traits@D@std@@V?$allocator@D@2@@std@@@2@V?$allocator@V?$basic_string@DU?$char_traits@D@std@@V?$allocator@D@2@@std@@@2@@2@@std@@@std@@@std@@@2@I@Z 10052cb0 f i Hooks.obj
 0001:00051d20       ?_Erase_bucket@?$_Hash@V?$_Umap_traits@V?$basic_string@DU?$char_traits@D@std@@V?$allocator@D@2@@std@@V12@V?$_Uhash_compare@V?$basic_string@DU?$char_traits@D@std@@V?$allocator@D@2@@std@@U?$hash@V?$basic_string@DU?$char_traits@D@std@@V?$allocator@D@2@@std@@@2@U?$equal_to@V?$basic_string@DU?$char_traits@D@std@@V?$allocator@D@2@@std@@@2@@2@V?$allocator@U?$pair@$$CBV?$basic_string@DU?$char_traits@D@std@@V?$allocator@D@2@@std@@V12@@std@@@2@$0A@@std@@@std@@IAEXV?$_List_iterator@V?$_List_val@U?$_List_simple_types@U?$pair@$$CBV?$basic_string@DU?$char_traits@D@std@@V?$allocator@D@2@@std@@V12@@std@@@std@@@std@@@2@I@Z 10052d20 f i Hooks.obj
 0001:00051d20       ?_Erase_bucket@?$_Hash@V?$_Umap_traits@V?$basic_string@DU?$char_traits@D@std@@V?$allocator@D@2@@std@@V?$set@V?$basic_string@DU?$char_traits@D@std@@V?$allocator@D@2@@std@@U?$less@V?$basic_string@DU?$char_traits@D@std@@V?$allocator@D@2@@std@@@2@V?$allocator@V?$basic_string@DU?$char_traits@D@std@@V?$allocator@D@2@@std@@@2@@2@V?$_Uhash_compare@V?$basic_string@DU?$char_traits@D@std@@V?$allocator@D@2@@std@@U?$hash@V?$basic_string@DU?$char_traits@D@std@@V?$allocator@D@2@@std@@@2@U?$equal_to@V?$basic_string@DU?$char_traits@D@std@@V?$allocator@D@2@@std@@@2@@2@V?$allocator@U?$pair@$$CBV?$basic_string@DU?$char_traits@D@std@@V?$allocator@D@2@@std@@V?$set@V?$basic_string@DU?$char_traits@D@std@@V?$allocator@D@2@@std@@U?$less@V?$basic_string@DU?$char_traits@D@std@@V?$allocator@D@2@@std@@@2@V?$allocator@V?$basic_string@DU?$char_traits@D@std@@V?$allocator@D@2@@std@@@2@@2@@std@@@2@$0A@@std@@@std@@IAEXV?$_List_iterator@V?$_List_val@U?$_List_simple_types@U?$pair@$$CBV?$basic_string@DU?$char_traits@D@std@@V?$allocator@D@2@@std@@V?$set@V?$basic_string@DU?$char_traits@D@std@@V?$allocator@D@2@@std@@U?$less@V?$basic_string@DU?$char_traits@D@std@@V?$allocator@D@2@@std@@@2@V?$allocator@V?$basic_string@DU?$char_traits@D@std@@V?$allocator@D@2@@std@@@2@@2@@std@@@std@@@std@@@2@I@Z 10052d20 f i Hooks.obj
 0001:00051d20       ?_Erase_bucket@?$_Hash@V?$_Umap_traits@V?$basic_string@DU?$char_traits@D@std@@V?$allocator@D@2@@std@@UskinInfo@@V?$_Uhash_compare@V?$basic_string@DU?$char_traits@D@std@@V?$allocator@D@2@@std@@U?$hash@V?$basic_string@DU?$char_traits@D@std@@V?$allocator@D@2@@std@@@2@U?$equal_to@V?$basic_string@DU?$char_traits@D@std@@V?$allocator@D@2@@std@@@2@@2@V?$allocator@U?$pair@$$CBV?$basic_string@DU?$char_traits@D@std@@V?$allocator@D@2@@std@@UskinInfo@@@std@@@2@$0A@@std@@@std@@IAEXV?$_List_iterator@V?$_List_val@U?$_List_simple_types@U?$pair@$$CBV?$basic_string@DU?$char_traits@D@std@@V?$allocator@D@2@@std@@UskinInfo@@@std@@@std@@@std@@@2@I@Z 10052d20 f i Hooks.obj
 0001:00051e10       ?_Free_proxy@?$_Deque_alloc@U?$_Deque_base_types@V?$shared_ptr@VNode@valve_parser@@@std@@V?$allocator@V?$shared_ptr@VNode@valve_parser@@@std@@@2@@std@@@std@@QAEXXZ 10052e10 f i Hooks.obj
 0001:00051e80       ?_Freeheadnode@?$_List_alloc@U?$_List_base_types@U?$pair@QADPAD@std@@V?$allocator@U?$pair@QADPAD@std@@@2@@std@@@std@@QAEXPAU?$_List_node@U?$pair@QADPAD@std@@PAX@2@@Z 10052e80 f i Hooks.obj
 0001:00051ee0       ?_Freenode0@?$_Tree_comp_alloc@V?$_Tset_traits@V?$basic_string@DU?$char_traits@D@std@@V?$allocator@D@2@@std@@U?$less@V?$basic_string@DU?$char_traits@D@std@@V?$allocator@D@2@@std@@@2@V?$allocator@V?$basic_string@DU?$char_traits@D@std@@V?$allocator@D@2@@std@@@2@$0A@@std@@@std@@QAEXPAU?$_Tree_node@V?$basic_string@DU?$char_traits@D@std@@V?$allocator@D@2@@std@@PAX@2@@Z 10052ee0 f i Hooks.obj
 0001:00051ee0       ?_Freeheadnode@?$_Tree_comp_alloc@V?$_Tset_traits@V?$basic_string@DU?$char_traits@D@std@@V?$allocator@D@2@@std@@U?$less@V?$basic_string@DU?$char_traits@D@std@@V?$allocator@D@2@@std@@@2@V?$allocator@V?$basic_string@DU?$char_traits@D@std@@V?$allocator@D@2@@std@@@2@$0A@@std@@@std@@QAEXPAU?$_Tree_node@V?$basic_string@DU?$char_traits@D@std@@V?$allocator@D@2@@std@@PAX@2@@Z 10052ee0 f i Configuration.obj
 0001:00051f60       ?_Freenode@?$_List_buy@U?$pair@QADPAD@std@@V?$allocator@U?$pair@QADPAD@std@@@2@@std@@QAEXPAU?$_List_node@U?$pair@QADPAD@std@@PAX@2@@Z 10052f60 f i Hooks.obj
 0001:00051fe0       ?_Get_data@?$_Vector_alloc@U?$_Vec_base_types@V?$_List_unchecked_iterator@V?$_List_val@U?$_List_simple_types@U?$pair@QADPAD@std@@@std@@@std@@@std@@V?$allocator@V?$_List_unchecked_iterator@V?$_List_val@U?$_List_simple_types@U?$pair@QADPAD@std@@@std@@@std@@@std@@@2@@std@@@std@@QBEABV?$_Vector_val@U?$_Simple_types@V?$_List_unchecked_iterator@V?$_List_val@U?$_List_simple_types@U?$pair@QADPAD@std@@@std@@@std@@@std@@@std@@@2@XZ 10052fe0 f i Hooks.obj
 0001:00051fe0       ?_Getal@?$_Vector_alloc@U?$_Vec_base_types@PAV?$ConfigValue@_N@@V?$allocator@PAV?$ConfigValue@_N@@@std@@@std@@@std@@QAEAAV?$allocator@PAV?$ConfigValue@_N@@@2@XZ 10052fe0 f i Configuration.obj
 0001:00051fe0       ?_Getal@?$_Vector_alloc@U?$_Vec_base_types@PAURecvTable@@V?$allocator@PAURecvTable@@@std@@@std@@@std@@QAEAAV?$allocator@PAURecvTable@@@2@XZ 10052fe0 f i NetVarManager.obj
 0001:00051fe0       ?_Getal@?$_Vector_alloc@U?$_Vec_base_types@PAV?$ConfigValue@M@@V?$allocator@PAV?$ConfigValue@M@@@std@@@std@@@std@@QAEAAV?$allocator@PAV?$ConfigValue@M@@@2@XZ 10052fe0 f i Configuration.obj
 0001:00051fe0       ?_Get_data@?$_Vector_alloc@U?$_Vec_base_types@PAURecvTable@@V?$allocator@PAURecvTable@@@std@@@std@@@std@@QAEAAV?$_Vector_val@U?$_Simple_types@PAURecvTable@@@std@@@2@XZ 10052fe0 f i NetVarManager.obj
 0001:00051fe0       ?_Getal@?$_Vector_alloc@U?$_Vec_base_types@PAV?$ConfigValue@M@@V?$allocator@PAV?$ConfigValue@M@@@std@@@std@@@std@@QBEABV?$allocator@PAV?$ConfigValue@M@@@2@XZ 10052fe0 f i Configuration.obj
 0001:00051fe0       ?_Getal@?$_Deque_alloc@U?$_Deque_base_types@V?$shared_ptr@VNode@valve_parser@@@std@@V?$allocator@V?$shared_ptr@VNode@valve_parser@@@std@@@2@@std@@@std@@QBEABV?$allocator@V?$shared_ptr@VNode@valve_parser@@@std@@@2@XZ 10052fe0 f i Hooks.obj
